ARM GAS  C:\Users\Besitzer\AppData\Local\Temp\cc6ojJsB.s 			page 1


   1              		.syntax unified
   2              		.cpu cortex-m3
   3              		.fpu softvfp
   4              		.eabi_attribute 20, 1
   5              		.eabi_attribute 21, 1
   6              		.eabi_attribute 23, 3
   7              		.eabi_attribute 24, 1
   8              		.eabi_attribute 25, 1
   9              		.eabi_attribute 26, 1
  10              		.eabi_attribute 30, 1
  11              		.eabi_attribute 34, 1
  12              		.eabi_attribute 18, 4
  13              		.thumb
  14              		.syntax unified
  15              		.file	"ITG3200.c"
  16              		.text
  17              	.Ltext0:
  18              		.cfi_sections	.debug_frame
  19              		.section	.text.write_data,"ax",%progbits
  20              		.align	2
  21              		.global	write_data
  22              		.thumb
  23              		.thumb_func
  24              		.type	write_data, %function
  25              	write_data:
  26              	.LFB63:
  27              		.file 1 "ITG3200.c"
   1:ITG3200.c     **** /***********************************************************************
   2:ITG3200.c     **** *! \file:                   ITG3200.c
   3:ITG3200.c     **** *  \projekt:                FT800_ESP
   4:ITG3200.c     **** *  \created on:             07.03.2019
   5:ITG3200.c     **** *  \author:                 R. Gräber
   6:ITG3200.c     **** *  \version:                0
   7:ITG3200.c     **** *  \history:                -
   8:ITG3200.c     **** *  \brief                   The ITG-3200 triple-axis MEMS gyroscope 
   9:ITG3200.c     **** *                           includes a wide range of features
  10:ITG3200.c     **** ***********************************************************************/
  11:ITG3200.c     ****  
  12:ITG3200.c     **** /***********************************************************************
  13:ITG3200.c     **** * Includes
  14:ITG3200.c     **** ***********************************************************************/
  15:ITG3200.c     **** #include "ITG3200.h"
  16:ITG3200.c     **** /***********************************************************************
  17:ITG3200.c     **** * Informations
  18:ITG3200.c     **** ***********************************************************************/
  19:ITG3200.c     **** //https://invensense.tdk.com/products/motion-tracking/3-axis/itg-3200/
  20:ITG3200.c     **** /***********************************************************************
  21:ITG3200.c     **** * Declarations
  22:ITG3200.c     **** ***********************************************************************/
  23:ITG3200.c     **** 
  24:ITG3200.c     **** #define WHO_AM_I_REG                    0x00
  25:ITG3200.c     **** #define SMPLRT_DIV_REG                  0x15
  26:ITG3200.c     **** #define DLPF_FS_REG                     0x16
  27:ITG3200.c     **** #define INT_CFG_REG                     0x17
  28:ITG3200.c     **** #define INT_STATUS_REG                  0x1A
  29:ITG3200.c     **** #define TEMP_OUT_H_REG                  0x1B
  30:ITG3200.c     **** #define TEMP_OUT_L_REG                  0x1C
ARM GAS  C:\Users\Besitzer\AppData\Local\Temp\cc6ojJsB.s 			page 2


  31:ITG3200.c     **** #define GYRO_XOUT_H_REG                 0x1D
  32:ITG3200.c     **** #define GYRO_XOUT_L_REG                 0x1E
  33:ITG3200.c     **** #define GYRO_YOUT_H_REG                 0x1F
  34:ITG3200.c     **** #define GYRO_YOUT_L_REG                 0x20
  35:ITG3200.c     **** #define GYRO_ZOUT_H_REG                 0x21
  36:ITG3200.c     **** #define GYRO_ZOUT_L_REG                 0x22
  37:ITG3200.c     **** #define PWR_MGM_REG                     0x3E
  38:ITG3200.c     **** 
  39:ITG3200.c     **** #define DeviceADR_Base                  0b1101000
  40:ITG3200.c     **** 
  41:ITG3200.c     **** /***********************************************************************
  42:ITG3200.c     **** * Global Variable
  43:ITG3200.c     **** ***********************************************************************/
  44:ITG3200.c     **** 
  45:ITG3200.c     **** /***********************************************************************
  46:ITG3200.c     **** * Local Variable
  47:ITG3200.c     **** ***********************************************************************/
  48:ITG3200.c     **** uint8_t DeviceADR;
  49:ITG3200.c     **** /***********************************************************************
  50:ITG3200.c     **** * Constant
  51:ITG3200.c     **** ***********************************************************************/
  52:ITG3200.c     ****  
  53:ITG3200.c     **** /***********************************************************************
  54:ITG3200.c     **** * Local Funtions
  55:ITG3200.c     **** ***********************************************************************/
  56:ITG3200.c     **** 
  57:ITG3200.c     **** /***********************************************************************
  58:ITG3200.c     **** *! \fn          uint8 write_data(uint8 SlaveAddress, uint8_t Register, uint8 wrData)
  59:ITG3200.c     **** *  \brief       write to an slave register address
  60:ITG3200.c     **** *  \param       uint8 SlaveAddress
  61:ITG3200.c     **** *  \param       uint8_t Register
  62:ITG3200.c     **** *  \param       uint8 wrData
  63:ITG3200.c     **** *  \exception   none
  64:ITG3200.c     **** *  \return      0 = success
  65:ITG3200.c     **** ***********************************************************************/
  66:ITG3200.c     **** uint8 write_data(uint8 SlaveAddress, uint8_t Register, uint8 wrData){
  28              		.loc 1 66 0
  29              		.cfi_startproc
  30              		@ args = 0, pretend = 0, frame = 8
  31              		@ frame_needed = 0, uses_anonymous_args = 0
  32              	.LVL0:
  33 0000 00B5     		push	{lr}
  34              		.cfi_def_cfa_offset 4
  35              		.cfi_offset 14, -4
  36 0002 83B0     		sub	sp, sp, #12
  37              		.cfi_def_cfa_offset 16
  67:ITG3200.c     ****     
  68:ITG3200.c     ****     uint8_t write_buffer[2];
  69:ITG3200.c     ****     write_buffer[0] =  Register;
  38              		.loc 1 69 0
  39 0004 8DF80410 		strb	r1, [sp, #4]
  70:ITG3200.c     ****     write_buffer[1] =  wrData;
  40              		.loc 1 70 0
  41 0008 8DF80520 		strb	r2, [sp, #5]
  71:ITG3200.c     ****     return I2C_Master_1_MasterWriteBuf(SlaveAddress, write_buffer, 2, I2C_Master_1_MODE_COMPLETE_XF
  42              		.loc 1 71 0
  43 000c 0023     		movs	r3, #0
ARM GAS  C:\Users\Besitzer\AppData\Local\Temp\cc6ojJsB.s 			page 3


  44 000e 0222     		movs	r2, #2
  45              	.LVL1:
  46 0010 01A9     		add	r1, sp, #4
  47              	.LVL2:
  48 0012 FFF7FEFF 		bl	I2C_Master_1_MasterWriteBuf
  49              	.LVL3:
  72:ITG3200.c     **** }
  50              		.loc 1 72 0
  51 0016 03B0     		add	sp, sp, #12
  52              		.cfi_def_cfa_offset 4
  53              		@ sp needed
  54 0018 5DF804FB 		ldr	pc, [sp], #4
  55              		.cfi_endproc
  56              	.LFE63:
  57              		.size	write_data, .-write_data
  58              		.section	.text.read_register_data,"ax",%progbits
  59              		.align	2
  60              		.global	read_register_data
  61              		.thumb
  62              		.thumb_func
  63              		.type	read_register_data, %function
  64              	read_register_data:
  65              	.LFB64:
  73:ITG3200.c     **** 
  74:ITG3200.c     **** /***********************************************************************
  75:ITG3200.c     **** *! \fn          uint8 read_register_data(uint8 SlaveAddress, uint8_t Register)
  76:ITG3200.c     **** *  \brief       read single register
  77:ITG3200.c     **** *  \param       uint8 SlaveAddress
  78:ITG3200.c     **** *  \exception   none
  79:ITG3200.c     **** *  \return      register value
  80:ITG3200.c     **** ***********************************************************************/
  81:ITG3200.c     **** uint8 read_register_data(uint8 SlaveAddress, uint8_t Register){
  66              		.loc 1 81 0
  67              		.cfi_startproc
  68              		@ args = 0, pretend = 0, frame = 16
  69              		@ frame_needed = 0, uses_anonymous_args = 0
  70              	.LVL4:
  71 0000 30B5     		push	{r4, r5, lr}
  72              		.cfi_def_cfa_offset 12
  73              		.cfi_offset 4, -12
  74              		.cfi_offset 5, -8
  75              		.cfi_offset 14, -4
  76 0002 85B0     		sub	sp, sp, #20
  77              		.cfi_def_cfa_offset 32
  78 0004 0546     		mov	r5, r0
  79 0006 04AC     		add	r4, sp, #16
  80 0008 04F8091D 		strb	r1, [r4, #-9]!
  82:ITG3200.c     ****     
  83:ITG3200.c     ****     uint8_t rdData;
  84:ITG3200.c     ****     I2C_Master_1_MasterWriteBuf(SlaveAddress, &Register, 1, I2C_Master_1_MODE_NO_STOP );
  81              		.loc 1 84 0
  82 000c 0223     		movs	r3, #2
  83 000e 0122     		movs	r2, #1
  84 0010 2146     		mov	r1, r4
  85              	.LVL5:
  86 0012 FFF7FEFF 		bl	I2C_Master_1_MasterWriteBuf
  87              	.LVL6:
ARM GAS  C:\Users\Besitzer\AppData\Local\Temp\cc6ojJsB.s 			page 4


  85:ITG3200.c     ****     I2C_Master_1_MasterReadBuf(SlaveAddress, &rdData, 1, I2C_Master_1_MODE_COMPLETE_XFER);
  88              		.loc 1 85 0
  89 0016 0023     		movs	r3, #0
  90 0018 0122     		movs	r2, #1
  91 001a 0DF10F01 		add	r1, sp, #15
  92 001e 2846     		mov	r0, r5
  93 0020 FFF7FEFF 		bl	I2C_Master_1_MasterReadBuf
  94              	.LVL7:
  86:ITG3200.c     ****     return rdData;
  87:ITG3200.c     **** }
  95              		.loc 1 87 0
  96 0024 9DF80F00 		ldrb	r0, [sp, #15]	@ zero_extendqisi2
  97 0028 05B0     		add	sp, sp, #20
  98              		.cfi_def_cfa_offset 12
  99              		@ sp needed
 100 002a 30BD     		pop	{r4, r5, pc}
 101              		.cfi_endproc
 102              	.LFE64:
 103              		.size	read_register_data, .-read_register_data
 104              		.section	.text.set_sample_rate_divider,"ax",%progbits
 105              		.align	2
 106              		.global	set_sample_rate_divider
 107              		.thumb
 108              		.thumb_func
 109              		.type	set_sample_rate_divider, %function
 110              	set_sample_rate_divider:
 111              	.LFB65:
  88:ITG3200.c     **** 
  89:ITG3200.c     **** /***********************************************************************
  90:ITG3200.c     **** *! \fn          uint8_t set_sample_rate_divider(uint8_t rate_divider)
  91:ITG3200.c     **** *  \brief       
  92:ITG3200.c     **** *  \param       uint8_t rate_divider
  93:ITG3200.c     **** *  \exception   none
  94:ITG3200.c     **** *  \return      0 = success
  95:ITG3200.c     **** ***********************************************************************/
  96:ITG3200.c     **** uint8_t set_sample_rate_divider(uint8_t rate_divider){
 112              		.loc 1 96 0
 113              		.cfi_startproc
 114              		@ args = 0, pretend = 0, frame = 0
 115              		@ frame_needed = 0, uses_anonymous_args = 0
 116              	.LVL8:
 117 0000 08B5     		push	{r3, lr}
 118              		.cfi_def_cfa_offset 8
 119              		.cfi_offset 3, -8
 120              		.cfi_offset 14, -4
  97:ITG3200.c     ****     
  98:ITG3200.c     ****     write_data(0x00, SMPLRT_DIV_REG, rate_divider);
 121              		.loc 1 98 0
 122 0002 0246     		mov	r2, r0
 123 0004 1521     		movs	r1, #21
 124 0006 0020     		movs	r0, #0
 125              	.LVL9:
 126 0008 FFF7FEFF 		bl	write_data
 127              	.LVL10:
  99:ITG3200.c     ****     
 100:ITG3200.c     ****     return 0;
 101:ITG3200.c     ****     
ARM GAS  C:\Users\Besitzer\AppData\Local\Temp\cc6ojJsB.s 			page 5


 102:ITG3200.c     **** }
 128              		.loc 1 102 0
 129 000c 0020     		movs	r0, #0
 130 000e 08BD     		pop	{r3, pc}
 131              		.cfi_endproc
 132              	.LFE65:
 133              		.size	set_sample_rate_divider, .-set_sample_rate_divider
 134              		.section	.text.setup_itg3200,"ax",%progbits
 135              		.align	2
 136              		.global	setup_itg3200
 137              		.thumb
 138              		.thumb_func
 139              		.type	setup_itg3200, %function
 140              	setup_itg3200:
 141              	.LFB66:
 103:ITG3200.c     **** 
 104:ITG3200.c     **** /***********************************************************************
 105:ITG3200.c     **** *! \fn          uint8_t setup_itg3200(_Bool ADRPin)
 106:ITG3200.c     **** *  \brief       init the itg3200 gyro
 107:ITG3200.c     **** *  \param       _Bool ADRPin - state of ADR Pin
 108:ITG3200.c     **** *  \param       uint8_t Register
 109:ITG3200.c     **** *  \param       uint8 wrData
 110:ITG3200.c     **** *  \exception   none
 111:ITG3200.c     **** *  \return      0 = success
 112:ITG3200.c     **** ***********************************************************************/
 113:ITG3200.c     **** uint8_t setup_itg3200(_Bool ADRPin){
 142              		.loc 1 113 0
 143              		.cfi_startproc
 144              		@ args = 0, pretend = 0, frame = 0
 145              		@ frame_needed = 0, uses_anonymous_args = 0
 146              		@ link register save eliminated.
 147              	.LVL11:
 114:ITG3200.c     ****     
 115:ITG3200.c     ****     DeviceADR = ((uint8_t)DeviceADR_Base)<<1;
 148              		.loc 1 115 0
 149 0000 D022     		movs	r2, #208
 150 0002 034B     		ldr	r3, .L9
 151 0004 1A70     		strb	r2, [r3]
 116:ITG3200.c     ****     if(ADRPin)
 152              		.loc 1 116 0
 153 0006 08B1     		cbz	r0, .L8
 117:ITG3200.c     ****        DeviceADR |= 0x01;
 154              		.loc 1 117 0
 155 0008 D122     		movs	r2, #209
 156 000a 1A70     		strb	r2, [r3]
 157              	.L8:
 118:ITG3200.c     ****         
 119:ITG3200.c     ****     return 0;
 120:ITG3200.c     **** }...
 158              		.loc 1 120 0
 159 000c 0020     		movs	r0, #0
 160              	.LVL12:
 161 000e 7047     		bx	lr
 162              	.L10:
 163              		.align	2
 164              	.L9:
 165 0010 00000000 		.word	DeviceADR
ARM GAS  C:\Users\Besitzer\AppData\Local\Temp\cc6ojJsB.s 			page 6


 166              		.cfi_endproc
 167              	.LFE66:
 168              		.size	setup_itg3200, .-setup_itg3200
 169              		.comm	DeviceADR,1,1
 170              		.text
 171              	.Letext0:
 172              		.file 2 "c:\\program files (x86)\\cypress\\psoc creator\\4.3\\psoc creator\\import\\gnu\\arm\\5.4.
 173              		.file 3 "c:\\program files (x86)\\cypress\\psoc creator\\4.3\\psoc creator\\import\\gnu\\arm\\5.4.
 174              		.file 4 "Generated_Source\\PSoC5/cytypes.h"
 175              		.file 5 "Generated_Source\\PSoC5/core_cm3.h"
 176              		.file 6 "Generated_Source\\PSoC5/I2C_Master_1.h"