ARM GAS  C:\Users\rene_\AppData\Local\Temp\ccmrkU79.s 			page 1


   1              		.syntax unified
   2              		.cpu cortex-m3
   3              		.fpu softvfp
   4              		.eabi_attribute 20, 1
   5              		.eabi_attribute 21, 1
   6              		.eabi_attribute 23, 3
   7              		.eabi_attribute 24, 1
   8              		.eabi_attribute 25, 1
   9              		.eabi_attribute 26, 1
  10              		.eabi_attribute 30, 1
  11              		.eabi_attribute 34, 1
  12              		.eabi_attribute 18, 4
  13              		.thumb
  14              		.syntax unified
  15              		.file	"main.c"
  16              		.text
  17              	.Ltext0:
  18              		.cfi_sections	.debug_frame
  19              		.section	.text.DmaTxConfiguration,"ax",%progbits
  20              		.align	2
  21              		.global	DmaTxConfiguration
  22              		.thumb
  23              		.thumb_func
  24              		.type	DmaTxConfiguration, %function
  25              	DmaTxConfiguration:
  26              	.LFB64:
  27              		.file 1 "main.c"
   1:main.c        **** /* ========================================
   2:main.c        ****  *
   3:main.c        ****  * Copyright YOUR COMPANY, THE YEAR
   4:main.c        ****  * All Rights Reserved
   5:main.c        ****  * UNPUBLISHED, LICENSED SOFTWARE.
   6:main.c        ****  *
   7:main.c        ****  * CONFIDENTIAL AND PROPRIETARY INFORMATION
   8:main.c        ****  * WHICH IS THE PROPERTY OF your company.
   9:main.c        ****  *
  10:main.c        ****  * ========================================
  11:main.c        **** */
  12:main.c        **** #include "project.h"
  13:main.c        **** #include "ITG3200.h"
  14:main.c        **** #include "stdio.h"
  15:main.c        **** 
  16:main.c        **** void DmaTxConfiguration(void);
  17:main.c        **** void DmaRxConfiguration(void);
  18:main.c        **** 
  19:main.c        **** /* DMA Configuration for DMA_TX */
  20:main.c        **** #define DMA_TX_BYTES_PER_BURST      (1u)
  21:main.c        **** #define DMA_TX_REQUEST_PER_BURST    (1u)
  22:main.c        **** #define DMA_TX_SRC_BASE             (CYDEV_SRAM_BASE)
  23:main.c        **** #define DMA_TX_DST_BASE             (CYDEV_PERIPH_BASE)
  24:main.c        **** 
  25:main.c        **** #define BUFFER_SIZE                 (8u)
  26:main.c        **** #define STORE_TD_CFG_ONCMPLT        (1u)
  27:main.c        **** 
  28:main.c        **** #define USBFS_DEVICE    (0u)
  29:main.c        **** 
  30:main.c        **** /* The buffer size is equal to the maximum packet size of the IN and OUT bulk
ARM GAS  C:\Users\rene_\AppData\Local\Temp\ccmrkU79.s 			page 2


  31:main.c        **** * endpoints.
  32:main.c        **** */
  33:main.c        **** #define USBUART_BUFFER_SIZE (64u)
  34:main.c        **** #define LINE_STR_LENGTH     (20u)
  35:main.c        **** 
  36:main.c        **** /* Variable declarations for DMA_TX*/
  37:main.c        **** uint8 txChannel;
  38:main.c        **** uint8 txTD;
  39:main.c        **** 
  40:main.c        **** /* Data buffers */
  41:main.c        **** uint8 txBuffer [BUFFER_SIZE] = {0x0u, 0x01u, 0x02u, 0x03u, 0x04u, 0x05u, 0x06u, 0x07u};
  42:main.c        **** char USB_CDC_Buffer[USBUART_BUFFER_SIZE];
  43:main.c        **** 
  44:main.c        **** /* DIE TEMP */
  45:main.c        **** int16 DIEtemperature;
  46:main.c        **** 
  47:main.c        **** 
  48:main.c        **** /***********************************************************************
  49:main.c        **** *! \fn          void DmaTxConfiguration()
  50:main.c        **** *  \brief       Configures the DMA transfer for TX direction
  51:main.c        **** *  \param       none
  52:main.c        **** *  \exception   none
  53:main.c        **** *  \return      none
  54:main.c        **** ***********************************************************************/
  55:main.c        **** void DmaTxConfiguration()
  56:main.c        **** {
  28              		.loc 1 56 0
  29              		.cfi_startproc
  30              		@ args = 0, pretend = 0, frame = 0
  31              		@ frame_needed = 0, uses_anonymous_args = 0
  32 0000 38B5     		push	{r3, r4, r5, lr}
  33              		.cfi_def_cfa_offset 16
  34              		.cfi_offset 3, -16
  35              		.cfi_offset 4, -12
  36              		.cfi_offset 5, -8
  37              		.cfi_offset 14, -4
  57:main.c        ****     /* Init DMA, 1 byte bursts, each burst requires a request */ 
  58:main.c        ****     txChannel = DMA_UART_Tx(DMA_TX_BYTES_PER_BURST, DMA_TX_REQUEST_PER_BURST, 
  38              		.loc 1 58 0
  39 0002 4FF48043 		mov	r3, #16384
  40 0006 41F6FF72 		movw	r2, #8191
  41 000a 0121     		movs	r1, #1
  42 000c 0846     		mov	r0, r1
  43 000e FFF7FEFF 		bl	DMA_UART_Tx
  44              	.LVL0:
  45 0012 084C     		ldr	r4, .L3
  46 0014 2070     		strb	r0, [r4]
  59:main.c        ****                                         HI16(DMA_TX_SRC_BASE), HI16(DMA_TX_DST_BASE));
  60:main.c        **** 
  61:main.c        ****     txTD = CyDmaTdAllocate();
  47              		.loc 1 61 0
  48 0016 FFF7FEFF 		bl	CyDmaTdAllocate
  49              	.LVL1:
  50 001a 074D     		ldr	r5, .L3+4
  51 001c 2870     		strb	r0, [r5]
  62:main.c        **** 
  63:main.c        ****     /* Configure this Td as follows:
ARM GAS  C:\Users\rene_\AppData\Local\Temp\ccmrkU79.s 			page 3


  64:main.c        ****     *  - Increment the source address, but not the destination address   
  65:main.c        ****     */
  66:main.c        ****     CyDmaTdSetConfiguration(txTD, BUFFER_SIZE, CY_DMA_DISABLE_TD, TD_INC_SRC_ADR);
  52              		.loc 1 66 0
  53 001e 0123     		movs	r3, #1
  54 0020 FE22     		movs	r2, #254
  55 0022 0821     		movs	r1, #8
  56 0024 FFF7FEFF 		bl	CyDmaTdSetConfiguration
  57              	.LVL2:
  67:main.c        **** 
  68:main.c        ****     /* From the memory to the SPIM */
  69:main.c        ****     //CyDmaTdSetAddress(txTD, LO16((uint32)txBuffer), LO16((uint32) SPIM_TXDATA_PTR));
  70:main.c        ****     
  71:main.c        ****     /* Associate the TD with the channel */
  72:main.c        ****     CyDmaChSetInitialTd(txChannel, txTD); 
  58              		.loc 1 72 0
  59 0028 2978     		ldrb	r1, [r5]	@ zero_extendqisi2
  60 002a 2078     		ldrb	r0, [r4]	@ zero_extendqisi2
  61 002c FFF7FEFF 		bl	CyDmaChSetInitialTd
  62              	.LVL3:
  63 0030 38BD     		pop	{r3, r4, r5, pc}
  64              	.L4:
  65 0032 00BF     		.align	2
  66              	.L3:
  67 0034 00000000 		.word	txChannel
  68 0038 00000000 		.word	txTD
  69              		.cfi_endproc
  70              	.LFE64:
  71              		.size	DmaTxConfiguration, .-DmaTxConfiguration
  72              		.section	.text.main,"ax",%progbits
  73              		.align	2
  74              		.global	main
  75              		.thumb
  76              		.thumb_func
  77              		.type	main, %function
  78              	main:
  79              	.LFB65:
  73:main.c        **** } 
  74:main.c        **** 
  75:main.c        **** /***********************************************************************
  76:main.c        **** *! \fn          int main(void)
  77:main.c        **** *  \brief       Start Up Function 
  78:main.c        **** *  \param       none
  79:main.c        **** *  \exception   none
  80:main.c        **** *  \return      none
  81:main.c        **** ***********************************************************************/
  82:main.c        **** int main(void)
  83:main.c        **** {
  80              		.loc 1 83 0
  81              		.cfi_startproc
  82              		@ args = 0, pretend = 0, frame = 64
  83              		@ frame_needed = 0, uses_anonymous_args = 0
  84 0000 10B5     		push	{r4, lr}
  85              		.cfi_def_cfa_offset 8
  86              		.cfi_offset 4, -8
  87              		.cfi_offset 14, -4
  88 0002 90B0     		sub	sp, sp, #64
ARM GAS  C:\Users\rene_\AppData\Local\Temp\ccmrkU79.s 			page 4


  89              		.cfi_def_cfa_offset 72
  84:main.c        ****     uint16 count;
  85:main.c        ****     uint8 buffer[USBUART_BUFFER_SIZE];
  86:main.c        ****     uint8_t dummy;
  87:main.c        ****     CyGlobalIntEnable; /* Enable global interrupts. */
  90              		.loc 1 87 0
  91              		.syntax unified
  92              	@ 87 "main.c" 1
  93 0004 62B6     		CPSIE   i
  94              	@ 0 "" 2
  88:main.c        **** 
  89:main.c        ****     /* Place your initialization/startup code here (e.g. MyInst_Start()) */
  90:main.c        ****     Cycle_ISR_1_Start();
  95              		.loc 1 90 0
  96              		.thumb
  97              		.syntax unified
  98 0006 FFF7FEFF 		bl	Cycle_ISR_1_Start
  99              	.LVL4:
  91:main.c        ****     DMA_Timer_Start();
 100              		.loc 1 91 0
 101 000a FFF7FEFF 		bl	DMA_Timer_Start
 102              	.LVL5:
  92:main.c        ****     Timer_1_Start();
 103              		.loc 1 92 0
 104 000e FFF7FEFF 		bl	Timer_1_Start
 105              	.LVL6:
  93:main.c        ****     DieTemp_1_Start();
 106              		.loc 1 93 0
 107 0012 FFF7FEFF 		bl	DieTemp_1_Start
 108              	.LVL7:
  94:main.c        ****     //set to fullscale and 42HzFilrer
  95:main.c        ****     setup_itg3200(0, 0, (3<<3)|(3));
 109              		.loc 1 95 0
 110 0016 1B22     		movs	r2, #27
 111 0018 0021     		movs	r1, #0
 112 001a 0846     		mov	r0, r1
 113 001c FFF7FEFF 		bl	setup_itg3200
 114              	.LVL8:
  96:main.c        **** 
  97:main.c        ****     CyGlobalIntEnable;
 115              		.loc 1 97 0
 116              		.syntax unified
 117              	@ 97 "main.c" 1
 118 0020 62B6     		CPSIE   i
 119              	@ 0 "" 2
  98:main.c        ****     
  99:main.c        ****      /* Start USBFS operation with 5-V operation. */
 100:main.c        ****     USB_CDC_1_Start(USBFS_DEVICE, USB_CDC_1_5V_OPERATION);
 120              		.loc 1 100 0
 121              		.thumb
 122              		.syntax unified
 123 0022 0121     		movs	r1, #1
 124 0024 0020     		movs	r0, #0
 125 0026 FFF7FEFF 		bl	USB_CDC_1_Start
 126              	.LVL9:
 127              	.L7:
 101:main.c        ****     
ARM GAS  C:\Users\rene_\AppData\Local\Temp\ccmrkU79.s 			page 5


 102:main.c        ****     for(;;)
 103:main.c        ****     {
 104:main.c        ****         /* Place your application code here. */
 105:main.c        ****         /******  get Sensor Data *****************/
 106:main.c        ****         DieTemp_1_GetTemp(&DIEtemperature);
 128              		.loc 1 106 0
 129 002a 1648     		ldr	r0, .L15
 130 002c FFF7FEFF 		bl	DieTemp_1_GetTemp
 131              	.LVL10:
 107:main.c        ****         
 108:main.c        ****         /* Host can send double SET_INTERFACE request. */
 109:main.c        ****         if (0u != USB_CDC_1_IsConfigurationChanged())
 132              		.loc 1 109 0
 133 0030 FFF7FEFF 		bl	USB_CDC_1_IsConfigurationChanged
 134              	.LVL11:
 135 0034 20B1     		cbz	r0, .L6
 110:main.c        ****         {
 111:main.c        ****             /* Initialize IN endpoints when device is configured. */
 112:main.c        ****             if (0u != USB_CDC_1_GetConfiguration())
 136              		.loc 1 112 0
 137 0036 FFF7FEFF 		bl	USB_CDC_1_GetConfiguration
 138              	.LVL12:
 139 003a 08B1     		cbz	r0, .L6
 113:main.c        ****             {
 114:main.c        ****                 /* Enumeration is done, enable OUT endpoint to receive data 
 115:main.c        ****                  * from host. */
 116:main.c        ****                 USB_CDC_1_Init();
 140              		.loc 1 116 0
 141 003c FFF7FEFF 		bl	USB_CDC_1_Init
 142              	.LVL13:
 143              	.L6:
 117:main.c        ****             }
 118:main.c        ****         }
 119:main.c        ****         
 120:main.c        ****         /* Service USB CDC when device is configured. */
 121:main.c        ****         dummy = USB_CDC_1_GetConfiguration();
 144              		.loc 1 121 0
 145 0040 FFF7FEFF 		bl	USB_CDC_1_GetConfiguration
 146              	.LVL14:
 122:main.c        ****         if (0u != dummy){
 147              		.loc 1 122 0
 148 0044 0028     		cmp	r0, #0
 149 0046 F0D0     		beq	.L7
 123:main.c        ****             
 124:main.c        ****             /* Check for input data from host. */
 125:main.c        ****             if (0u != USB_CDC_1_DataIsReady())
 150              		.loc 1 125 0
 151 0048 FFF7FEFF 		bl	USB_CDC_1_DataIsReady
 152              	.LVL15:
 153 004c 0028     		cmp	r0, #0
 154 004e ECD0     		beq	.L7
 126:main.c        ****             {
 127:main.c        ****                 /* Read received data and re-enable OUT endpoint. */
 128:main.c        ****                 count = USB_CDC_1_GetAll(buffer);
 155              		.loc 1 128 0
 156 0050 6846     		mov	r0, sp
 157 0052 FFF7FEFF 		bl	USB_CDC_1_GetAll
ARM GAS  C:\Users\rene_\AppData\Local\Temp\ccmrkU79.s 			page 6


 158              	.LVL16:
 129:main.c        **** 
 130:main.c        ****                 if (0u != count)
 159              		.loc 1 130 0
 160 0056 0446     		mov	r4, r0
 161 0058 0028     		cmp	r0, #0
 162 005a E6D0     		beq	.L7
 163              	.LVL17:
 164              	.L10:
 131:main.c        ****                 {
 132:main.c        ****                     /* Wait until component is ready to send data to host. */
 133:main.c        ****                     while (0u == USB_CDC_1_CDCIsReady())
 165              		.loc 1 133 0 discriminator 1
 166 005c FFF7FEFF 		bl	USB_CDC_1_CDCIsReady
 167              	.LVL18:
 168 0060 0028     		cmp	r0, #0
 169 0062 FBD0     		beq	.L10
 134:main.c        ****                     {
 135:main.c        ****                     }
 136:main.c        **** 
 137:main.c        ****                     /* Send data back to host. */
 138:main.c        ****                     USB_CDC_1_PutData(buffer, count);
 170              		.loc 1 138 0
 171 0064 2146     		mov	r1, r4
 172 0066 6846     		mov	r0, sp
 173 0068 FFF7FEFF 		bl	USB_CDC_1_PutData
 174              	.LVL19:
 139:main.c        **** 
 140:main.c        ****                     /* If the last sent packet is exactly the maximum packet 
 141:main.c        ****                     *  size, it is followed by a zero-length packet to assure
 142:main.c        ****                     *  that the end of the segment is properly identified by 
 143:main.c        ****                     *  the terminal.
 144:main.c        ****                     */
 145:main.c        ****                     if (USBUART_BUFFER_SIZE == count)
 175              		.loc 1 145 0
 176 006c 402C     		cmp	r4, #64
 177 006e DCD1     		bne	.L7
 178              	.L12:
 146:main.c        ****                     {
 147:main.c        ****                         /* Wait until component is ready to send data to PC. */
 148:main.c        ****                         while (0u == USB_CDC_1_CDCIsReady())
 179              		.loc 1 148 0 discriminator 1
 180 0070 FFF7FEFF 		bl	USB_CDC_1_CDCIsReady
 181              	.LVL20:
 182 0074 0028     		cmp	r0, #0
 183 0076 FBD0     		beq	.L12
 149:main.c        ****                         {
 150:main.c        ****                         }
 151:main.c        **** 
 152:main.c        ****                         /* Send zero-length packet to PC. */
 153:main.c        ****                         USB_CDC_1_PutData(NULL, 0u);
 184              		.loc 1 153 0
 185 0078 0021     		movs	r1, #0
 186 007a 0846     		mov	r0, r1
 187 007c FFF7FEFF 		bl	USB_CDC_1_PutData
 188              	.LVL21:
 189 0080 D3E7     		b	.L7
ARM GAS  C:\Users\rene_\AppData\Local\Temp\ccmrkU79.s 			page 7


 190              	.L16:
 191 0082 00BF     		.align	2
 192              	.L15:
 193 0084 00000000 		.word	DIEtemperature
 194              		.cfi_endproc
 195              	.LFE65:
 196              		.size	main, .-main
 197              		.comm	DIEtemperature,2,2
 198              		.comm	USB_CDC_Buffer,64,4
 199              		.global	txBuffer
 200              		.comm	txTD,1,1
 201              		.comm	txChannel,1,1
 202              		.data
 203              		.align	2
 204              		.type	txBuffer, %object
 205              		.size	txBuffer, 8
 206              	txBuffer:
 207 0000 00       		.byte	0
 208 0001 01       		.byte	1
 209 0002 02       		.byte	2
 210 0003 03       		.byte	3
 211 0004 04       		.byte	4
 212 0005 05       		.byte	5
 213 0006 06       		.byte	6
 214 0007 07       		.byte	7
 215              		.text
 216              	.Letext0:
 217              		.file 2 "c:\\program files (x86)\\cypress\\psoc creator\\4.3\\psoc creator\\import\\gnu\\arm\\5.4.
 218              		.file 3 "c:\\program files (x86)\\cypress\\psoc creator\\4.3\\psoc creator\\import\\gnu\\arm\\5.4.
 219              		.file 4 "Generated_Source\\PSoC5/cytypes.h"
 220              		.file 5 "Generated_Source\\PSoC5/core_cm3.h"
 221              		.file 6 "Generated_Source\\PSoC5/CYDMAC.H"
 222              		.file 7 "Generated_Source\\PSoC5/Cycle_ISR_1.h"
 223              		.file 8 "Generated_Source\\PSoC5/DMA_Timer.h"
 224              		.file 9 "Generated_Source\\PSoC5/Timer_1.h"
 225              		.file 10 "Generated_Source\\PSoC5/DieTemp_1.h"
 226              		.file 11 "ITG3200.h"
 227              		.file 12 "Generated_Source\\PSoC5/USB_CDC_1.h"
 228              		.file 13 "Generated_Source\\PSoC5/USB_CDC_1_cdc.h"