ARM GAS  C:\Users\Besitzer\AppData\Local\Temp\cczB0neC.s 			page 1


   1              		.syntax unified
   2              		.cpu cortex-m3
   3              		.fpu softvfp
   4              		.eabi_attribute 20, 1
   5              		.eabi_attribute 21, 1
   6              		.eabi_attribute 23, 3
   7              		.eabi_attribute 24, 1
   8              		.eabi_attribute 25, 1
   9              		.eabi_attribute 26, 1
  10              		.eabi_attribute 30, 1
  11              		.eabi_attribute 34, 1
  12              		.eabi_attribute 18, 4
  13              		.thumb
  14              		.syntax unified
  15              		.file	"ssd1306.c"
  16              		.text
  17              	.Ltext0:
  18              		.cfi_sections	.debug_frame
  19              		.section	.text.display_setPixel,"ax",%progbits
  20              		.align	2
  21              		.thumb
  22              		.thumb_func
  23              		.type	display_setPixel, %function
  24              	display_setPixel:
  25              	.LFB1:
  26              		.file 1 "ssd1306.c"
   1:ssd1306.c     **** /***********************************************************************
   2:ssd1306.c     **** *! \file:                   SSD1306.c
   3:ssd1306.c     **** *  \projekt:                JmBadge Bicycle
   4:ssd1306.c     **** *  \created on:             Apr 19, 2019
   5:ssd1306.c     **** *  \author:                 R. Gräber
   6:ssd1306.c     **** *  \version:                0
   7:ssd1306.c     **** *  \history:                -
   8:ssd1306.c     **** *  \brief					±1.5g - 6g Three Axis Low-g Micromachined 
   9:ssd1306.c     **** *  AccelerometerThe MMA7260QT low cost capacitive micromachined 
  10:ssd1306.c     **** *  accelerometer features signal conditioning, a 1-pole low pass filter, 
  11:ssd1306.c     **** *  temperature compensation and g-Select which allows for the selection 
  12:ssd1306.c     **** *  among 4 sensitivities. Zero-g offset full scale span and filter 
  13:ssd1306.c     **** *  cut-off are factory set and require no external devices. Includes 
  14:ssd1306.c     **** *  a Sleep Mode that makes it ideal for handheld battery powered 
  15:ssd1306.c     **** *  electronics
  16:ssd1306.c     **** ***********************************************************************/
  17:ssd1306.c     **** 
  18:ssd1306.c     **** /***********************************************************************
  19:ssd1306.c     **** * Includes
  20:ssd1306.c     **** ***********************************************************************/
  21:ssd1306.c     **** #include <stdlib.h>
  22:ssd1306.c     **** #include "ssd1306.h"
  23:ssd1306.c     **** #include "SSD1306_Reset.h"
  24:ssd1306.c     **** #include "I2C_1.h"
  25:ssd1306.c     **** #include "font.h"
  26:ssd1306.c     **** /***********************************************************************
  27:ssd1306.c     **** * Informations
  28:ssd1306.c     **** ***********************************************************************/
  29:ssd1306.c     **** //https://www.nxp.com/files-static/sensors/doc/data_sheet/MMA7260QT.pdf
  30:ssd1306.c     **** //https://www.mikrocontroller.net/topic/415651
  31:ssd1306.c     **** /***********************************************************************
ARM GAS  C:\Users\Besitzer\AppData\Local\Temp\cczB0neC.s 			page 2


  32:ssd1306.c     **** * Global Variable
  33:ssd1306.c     **** ***********************************************************************/
  34:ssd1306.c     **** 
  35:ssd1306.c     **** /***********************************************************************
  36:ssd1306.c     **** * Constant and Definitions
  37:ssd1306.c     **** ***********************************************************************/
  38:ssd1306.c     **** 
  39:ssd1306.c     **** #define SSD1306_CMD_REG         		                    0x00
  40:ssd1306.c     **** #define SSD1306_DATA_REG        		                    0x40
  41:ssd1306.c     **** 
  42:ssd1306.c     **** #define DISPLAYWIDTH                                        128
  43:ssd1306.c     **** #define DISPLAYHEIGHT                                       64
  44:ssd1306.c     **** #define DISPLAYPAGES                                        8                      
  45:ssd1306.c     ****     
  46:ssd1306.c     **** #define SSD1306_SETCONTRAST                                 0x81
  47:ssd1306.c     **** #define SSD1306_DISPLAYALLON_RESUME                         0xA4
  48:ssd1306.c     **** #define SSD1306_DISPLAYALLON                                0xA5
  49:ssd1306.c     **** #define SSD1306_NORMALDISPLAY                               0xA6
  50:ssd1306.c     **** #define SSD1306_INVERTDISPLAY                               0xA7
  51:ssd1306.c     **** #define SSD1306_DISPLAYOFF                                  0xAE
  52:ssd1306.c     **** #define SSD1306_DISPLAYON                                   0xAF
  53:ssd1306.c     **** #define SSD1306_SETDISPLAYOFFSET                            0xD3
  54:ssd1306.c     **** #define SSD1306_SETCOMPINS                                  0xDA
  55:ssd1306.c     **** #define SSD1306_SETVCOMDETECT                               0xDB
  56:ssd1306.c     **** #define SSD1306_SETDISPLAYCLOCKDIV                          0xD5
  57:ssd1306.c     **** #define SSD1306_SETPRECHARGE                                0xD9
  58:ssd1306.c     **** #define SSD1306_SETMULTIPLEX                                0xA8
  59:ssd1306.c     **** #define SSD1306_SETLOWCOLUMN                                0x00
  60:ssd1306.c     **** #define SSD1306_SETHIGHCOLUMN                               0x10
  61:ssd1306.c     **** #define SSD1306_SETSTARTLINE                                0x40
  62:ssd1306.c     **** #define SSD1306_MEMORYMODE                                  0x20
  63:ssd1306.c     **** #define SSD1306_COLUMNADDR                                  0x21
  64:ssd1306.c     **** #define SSD1306_PAGEADDR                                    0x22
  65:ssd1306.c     **** #define SSD1306_COMSCANINC                                  0xC0
  66:ssd1306.c     **** #define SSD1306_COMSCANDEC                                  0xC8
  67:ssd1306.c     **** #define SSD1306_SEGREMAP                                    0xA0
  68:ssd1306.c     **** #define SSD1306_CHARGEPUMP                                  0x8D
  69:ssd1306.c     **** #define SSD1306_EXTERNALVCC                                 0x1
  70:ssd1306.c     **** #define SSD1306_SWITCHCAPVCC                                0x2
  71:ssd1306.c     **** #define SSD1306_ACTIVATE_SCROLL                             0x2F
  72:ssd1306.c     **** #define SSD1306_DEACTIVATE_SCROLL                           0x2E
  73:ssd1306.c     **** #define SSD1306_SET_VERTICAL_SCROLL_AREA 				    0xA3
  74:ssd1306.c     **** #define SSD1306_RIGHT_HORIZONTAL_SCROLL 				    0x26
  75:ssd1306.c     **** #define SSD1306_LEFT_HORIZONTAL_SCROLL 					    0x27
  76:ssd1306.c     **** #define SSD1306_VERTICAL_AND_RIGHT_HORIZONTAL_SCROLL 	    0x29
  77:ssd1306.c     **** #define SSD1306_VERTICAL_AND_LEFT_HORIZONTAL_SCROLL 	    0x2A
  78:ssd1306.c     **** 
  79:ssd1306.c     **** // I2C result status
  80:ssd1306.c     **** #define TRANSFER_CMPLT    (0x00u)
  81:ssd1306.c     **** #define TRANSFER_ERROR    (0xFFu)
  82:ssd1306.c     **** 
  83:ssd1306.c     **** #define SSD1306_PIXEL_BLACK  		  	                    0 /* 0 is a black pixel */
  84:ssd1306.c     **** #define SSD1306_PIXEL_WHITE  		  	                    1 /* 1 is a color/white pixel */
  85:ssd1306.c     **** #define SSD1306_COLOR_PIXEL_SET      	                    SSD1306_PIXEL_WHITE /* color for a pixel 
  86:ssd1306.c     **** #define SSD1306_COLOR_PIXEL_CLR      	                    SSD1306_PIXEL_BLACK /* color for a pixel 
  87:ssd1306.c     **** 
  88:ssd1306.c     **** #define SSD1306_COLOR_BLACK          	                    SSD1306_PIXEL_BLACK
ARM GAS  C:\Users\Besitzer\AppData\Local\Temp\cczB0neC.s 			page 3


  89:ssd1306.c     **** #define SSD1306_COLOR_WHITE          	                    SSD1306_PIXEL_WHITE
  90:ssd1306.c     **** #define SSD1306_COLOR_RED            	                    SSD1306_PIXEL_WHITE
  91:ssd1306.c     **** #define SSD1306_COLOR_BRIGHT_RED     	                    SSD1306_COLOR_WHITE
  92:ssd1306.c     **** #define SSD1306_COLOR_DARK_RED       	                    SSD1306_PIXEL_WHITE
  93:ssd1306.c     **** #define SSD1306_COLOR_GREEN          	                    SSD1306_PIXEL_WHITE
  94:ssd1306.c     **** #define SSD1306_COLOR_BRIGHT_GREEN   	                    SSD1306_PIXEL_WHITE
  95:ssd1306.c     **** #define SSD1306_COLOR_DARK_GREEN     	                    SSD1306_PIXEL_WHITE
  96:ssd1306.c     **** #define SSD1306_COLOR_BLUE           	                    SSD1306_PIXEL_WHITE
  97:ssd1306.c     **** #define SSD1306_COLOR_BRIGHT_BLUE    	                    SSD1306_PIXEL_WHITE
  98:ssd1306.c     **** #define SSD1306_COLOR_DARK_BLUE      	                    SSD1306_PIXEL_WHITE
  99:ssd1306.c     **** #define SSD1306_COLOR_YELLOW         	                    SSD1306_PIXEL_WHITE
 100:ssd1306.c     **** #define SSD1306_COLOR_BRIGHT_YELLOW  	                    SSD1306_PIXEL_WHITE
 101:ssd1306.c     **** #define SSD1306_COLOR_ORANGE         	                    SSD1306_PIXEL_WHITE
 102:ssd1306.c     **** #define SSD1306_COLOR_GREY           	                    SSD1306_PIXEL_WHITE
 103:ssd1306.c     **** #define SSD1306_COLOR_BRIGHT_GREY    	                    SSD1306_PIXEL_WHITE
 104:ssd1306.c     **** 
 105:ssd1306.c     **** #define SSD1306_PIXEL_ON  			  	                    SSD1306_COLOR_WHITE /* value of a pixel if it i
 106:ssd1306.c     **** #define SSD1306_PIXEL_OFF 			 	                    SSD1306_COLOR_BLACK /* value of a pixel if it is
 107:ssd1306.c     **** 
 108:ssd1306.c     **** 
 109:ssd1306.c     **** // see data sheet page 25 for Graphic Display Data RAM organization
 110:ssd1306.c     **** // 8 pages, each page a row of DISPLAYWIDTH bytes
 111:ssd1306.c     **** // start address of of row: y/8*DISPLAYWIDTH
 112:ssd1306.c     **** // x pos in row: == x 
 113:ssd1306.c     **** #define GDDRAM_ADDRESS(X,Y) ((_displaybuf)+((Y)/8)*(DISPLAYWIDTH)+(X))
 114:ssd1306.c     **** 
 115:ssd1306.c     **** // lower 3 bit of y determine vertical pixel position (pos 0...7) in GDDRAM byte
 116:ssd1306.c     **** // (y&0x07) == position of pixel on row (page). LSB is top, MSB bottom
 117:ssd1306.c     **** #define GDDRAM_PIXMASK(Y) (1 << ((Y)&0x07))
 118:ssd1306.c     **** 
 119:ssd1306.c     **** #define PIXEL_ON(X,Y) (*GDDRAM_ADDRESS(x,y) |= GDDRAM_PIXMASK(y))
 120:ssd1306.c     **** #define PIXEL_OFF(X,Y) (*GDDRAM_ADDRESS(x,y) &= ~GDDRAM_PIXMASK(y))
 121:ssd1306.c     **** #define PIXEL_TOGGLE(X,Y) (*GDDRAM_ADDRESS(x,y) ^= GDDRAM_PIXMASK(y)) 
 122:ssd1306.c     **** /***********************************************************************
 123:ssd1306.c     **** * Local Funtions
 124:ssd1306.c     **** ***********************************************************************/
 125:ssd1306.c     **** static uint32 display_write_buf( uint8_t* buf, uint16_t size );
 126:ssd1306.c     **** void gfx_init( int16_t width, int16_t height );
 127:ssd1306.c     **** // display memory buffer ( === MUST INCLUDE === the preceding I2C 0x40 control byte for the display
 128:ssd1306.c     **** static uint8_t SSD1306_buffer[DISPLAYHEIGHT * DISPLAYWIDTH / 8 + 1] = { 0x40 };
 129:ssd1306.c     **** // pointer to actual display memory buffer
 130:ssd1306.c     **** static uint8_t* _displaybuf = SSD1306_buffer+1;
 131:ssd1306.c     **** static uint16_t _displaybuf_size = sizeof(SSD1306_buffer) - 1;
 132:ssd1306.c     **** void SSD1306_HAL_Reset(bool reset);
 133:ssd1306.c     **** void SSD1306_SetPageStartAddr(uint8_t page);
 134:ssd1306.c     **** static void SSD1306_SetColStartAddr(uint8_t col);
 135:ssd1306.c     **** /***********************************************************************
 136:ssd1306.c     **** * Local Variable
 137:ssd1306.c     **** ***********************************************************************/
 138:ssd1306.c     **** static uint8 _i2caddr;
 139:ssd1306.c     **** int16_t WIDTH, HEIGHT; // This is the 'raw' display w/h - never changes
 140:ssd1306.c     **** static int16_t _width, _height; // Display w/h as modified by current rotation
 141:ssd1306.c     **** static int16_t cursor_x, cursor_y;
 142:ssd1306.c     **** static uint16_t textcolor, textbgcolor;
 143:ssd1306.c     **** static uint8_t textsize;
 144:ssd1306.c     **** uint8_t rotation;
 145:ssd1306.c     **** uint8_t wrap; // If set, 'wrap' text at right edge of display
ARM GAS  C:\Users\Besitzer\AppData\Local\Temp\cczB0neC.s 			page 4


 146:ssd1306.c     **** static uint8_t actCol = 0;
 147:ssd1306.c     **** static uint8_t actPage = 0;
 148:ssd1306.c     **** /***********************************************************************
 149:ssd1306.c     **** *! \fn			void SSD1306_Init(uint8_t i2caddr)
 150:ssd1306.c     **** *  \brief		Display driver initialization
 151:ssd1306.c     **** *  \param		uint8_t i2caddr - Adress of SSD106
 152:ssd1306.c     **** *  \exception	none
 153:ssd1306.c     **** *  \return		none
 154:ssd1306.c     **** ***********************************************************************/
 155:ssd1306.c     **** void SSD1306_Init(uint8_t i2caddr){
 156:ssd1306.c     ****     
 157:ssd1306.c     ****     I2C_1_Enable();
 158:ssd1306.c     ****     I2C_1_Start();
 159:ssd1306.c     **** 
 160:ssd1306.c     ****     _i2caddr = i2caddr;
 161:ssd1306.c     ****     gfx_init( DISPLAYWIDTH, DISPLAYHEIGHT );
 162:ssd1306.c     ****     
 163:ssd1306.c     **** 	SSD1306_HAL_Reset(1);
 164:ssd1306.c     **** 	CyDelay(500);
 165:ssd1306.c     **** 	SSD1306_HAL_Reset(0);
 166:ssd1306.c     **** 	CyDelay(800);
 167:ssd1306.c     **** 
 168:ssd1306.c     ****     uint8_t cmdbuf[] = {
 169:ssd1306.c     ****         0x00,
 170:ssd1306.c     ****         
 171:ssd1306.c     ****         SSD1306_DISPLAYOFF,                         /* turn off display */       
 172:ssd1306.c     ****         SSD1306_SETDISPLAYCLOCKDIV,                 /* set display clock divide ratio/oscillator fr
 173:ssd1306.c     ****         0x80,                                       /* the suggested ratio 0x80 */
 174:ssd1306.c     ****         
 175:ssd1306.c     ****         SSD1306_SETMULTIPLEX,                       /* set multiplex ratio(1 to 64) */
 176:ssd1306.c     ****         DISPLAYHEIGHT-1,                            /* multiplex depending on number of rows */
 177:ssd1306.c     ****         
 178:ssd1306.c     ****         SSD1306_SETDISPLAYOFFSET,                   /* set display offset */
 179:ssd1306.c     ****         0x00,                                       /* no offset */
 180:ssd1306.c     ****         SSD1306_SETSTARTLINE | 0x0,                 /* set start line address */
 181:ssd1306.c     ****         
 182:ssd1306.c     ****         SSD1306_COLUMNADDR,                         /* set start and end address of the columns */
 183:ssd1306.c     ****         0,
 184:ssd1306.c     ****         DISPLAYWIDTH-1,
 185:ssd1306.c     ****         
 186:ssd1306.c     ****         SSD1306_PAGEADDR,                           /* set start and end address of the pages */
 187:ssd1306.c     ****         0,
 188:ssd1306.c     ****         DISPLAYPAGES-1,
 189:ssd1306.c     ****         
 190:ssd1306.c     ****         SSD1306_CHARGEPUMP,                         /* set charge pump enable/disable */
 191:ssd1306.c     ****         0x14,
 192:ssd1306.c     ****         
 193:ssd1306.c     ****         SSD1306_SETCOMPINS,                         /* set COM pins hardware configuration */
 194:ssd1306.c     ****         0x12,
 195:ssd1306.c     ****         
 196:ssd1306.c     ****         SSD1306_SETCONTRAST,                        /* set contrast control register */
 197:ssd1306.c     ****         0x7f,
 198:ssd1306.c     ****         
 199:ssd1306.c     ****         SSD1306_SETPRECHARGE,                       /* set pre-charge period */
 200:ssd1306.c     ****         0xf1,
 201:ssd1306.c     ****         
 202:ssd1306.c     ****         SSD1306_SETVCOMDETECT,                      /* set vcomh */
ARM GAS  C:\Users\Besitzer\AppData\Local\Temp\cczB0neC.s 			page 5


 203:ssd1306.c     ****         0x40,
 204:ssd1306.c     ****         
 205:ssd1306.c     ****         SSD1306_DISPLAYALLON_RESUME,                /* disable entire display on */
 206:ssd1306.c     ****         SSD1306_NORMALDISPLAY,                      /* set normal display */
 207:ssd1306.c     ****         //SSD1306_DEACTIVATE_SCROLL,                /* Deactivate scrolling */
 208:ssd1306.c     ****         SSD1306_DISPLAYON,                          /* turn on oled panel */
 209:ssd1306.c     ****         
 210:ssd1306.c     ****         SSD1306_MEMORYMODE,                         /* set memory mode */
 211:ssd1306.c     ****         0x00,                                       /* 00b: horizontal addressing mode mode */
 212:ssd1306.c     ****         SSD1306_SEGREMAP | 0x1,                     /* set segment re-map 128 to 0 */
 213:ssd1306.c     ****         SSD1306_COMSCANDEC                         /* set COM output scan direction 64 to 0 */
 214:ssd1306.c     ****     };
 215:ssd1306.c     ****     
 216:ssd1306.c     ****     display_write_buf( cmdbuf, sizeof(cmdbuf) ); 
 217:ssd1306.c     **** 
 218:ssd1306.c     **** }
 219:ssd1306.c     **** /***********************************************************************
 220:ssd1306.c     **** *! \fn			static void display_setPixel( int16_t x, int16_t y, uint16_t color )
 221:ssd1306.c     **** *  \brief		used by gfx_ functions. Needs to be implemented by display_
 222:ssd1306.c     **** *  \param		int16_t x
 223:ssd1306.c     **** *  \param		int16_t y
 224:ssd1306.c     **** *  \param		uint16_t color
 225:ssd1306.c     **** *  \exception	none
 226:ssd1306.c     **** *  \return		none
 227:ssd1306.c     **** ***********************************************************************/
 228:ssd1306.c     **** static void display_setPixel( int16_t x, int16_t y, uint16_t color ){
  27              		.loc 1 228 0
  28              		.cfi_startproc
  29              		@ args = 0, pretend = 0, frame = 0
  30              		@ frame_needed = 0, uses_anonymous_args = 0
  31              		@ link register save eliminated.
  32              	.LVL0:
 229:ssd1306.c     ****     
 230:ssd1306.c     ****     if( (x < 0) || (x >= DISPLAYWIDTH) || (y < 0) || (y >= DISPLAYHEIGHT) )
  33              		.loc 1 230 0
  34 0000 83B2     		uxth	r3, r0
  35 0002 7F2B     		cmp	r3, #127
  36 0004 3CD8     		bhi	.L1
  37              		.loc 1 230 0 is_stmt 0 discriminator 1
  38 0006 0029     		cmp	r1, #0
  39 0008 3ADB     		blt	.L1
  40              		.loc 1 230 0 discriminator 2
  41 000a 3F29     		cmp	r1, #63
  42 000c 38DC     		bgt	.L1
 231:ssd1306.c     ****         return;
 232:ssd1306.c     **** 
 233:ssd1306.c     ****     switch( color ){
  43              		.loc 1 233 0 is_stmt 1
  44 000e 012A     		cmp	r2, #1
  45 0010 03D0     		beq	.L3
  46 0012 9AB1     		cbz	r2, .L4
  47 0014 022A     		cmp	r2, #2
  48 0016 23D0     		beq	.L5
  49 0018 7047     		bx	lr
  50              	.L3:
 234:ssd1306.c     ****         case WHITE: 
 235:ssd1306.c     ****             PIXEL_ON(x,y);
ARM GAS  C:\Users\Besitzer\AppData\Local\Temp\cczB0neC.s 			page 6


  51              		.loc 1 235 0
  52 001a 1A4A     		ldr	r2, .L9
  53              	.LVL1:
  54 001c 0B46     		mov	r3, r1
  55 001e 0029     		cmp	r1, #0
  56 0020 00DA     		bge	.L6
  57 0022 CB1D     		adds	r3, r1, #7
  58              	.L6:
  59 0024 DB10     		asrs	r3, r3, #3
  60 0026 00EBC310 		add	r0, r0, r3, lsl #7
  61              	.LVL2:
  62 002a 01F00701 		and	r1, r1, #7
  63              	.LVL3:
  64 002e 0123     		movs	r3, #1
  65 0030 03FA01F1 		lsl	r1, r3, r1
  66 0034 135C     		ldrb	r3, [r2, r0]	@ zero_extendqisi2
  67 0036 1943     		orrs	r1, r1, r3
  68 0038 1154     		strb	r1, [r2, r0]
 236:ssd1306.c     ****             break;
  69              		.loc 1 236 0
  70 003a 7047     		bx	lr
  71              	.LVL4:
  72              	.L4:
 237:ssd1306.c     ****         case BLACK:
 238:ssd1306.c     ****             PIXEL_OFF(x,y);
  73              		.loc 1 238 0
  74 003c 114A     		ldr	r2, .L9
  75              	.LVL5:
  76 003e 0B46     		mov	r3, r1
  77 0040 0029     		cmp	r1, #0
  78 0042 00DA     		bge	.L7
  79 0044 CB1D     		adds	r3, r1, #7
  80              	.L7:
  81 0046 DB10     		asrs	r3, r3, #3
  82 0048 00EBC310 		add	r0, r0, r3, lsl #7
  83              	.LVL6:
  84 004c 01F00701 		and	r1, r1, #7
  85              	.LVL7:
  86 0050 0123     		movs	r3, #1
  87 0052 03FA01F1 		lsl	r1, r3, r1
  88 0056 135C     		ldrb	r3, [r2, r0]	@ zero_extendqisi2
  89 0058 23EA0101 		bic	r1, r3, r1
  90 005c 1154     		strb	r1, [r2, r0]
 239:ssd1306.c     ****             break;
  91              		.loc 1 239 0
  92 005e 7047     		bx	lr
  93              	.LVL8:
  94              	.L5:
 240:ssd1306.c     ****         case INVERSE: 
 241:ssd1306.c     ****             PIXEL_TOGGLE(x,y);
  95              		.loc 1 241 0
  96 0060 084A     		ldr	r2, .L9
  97              	.LVL9:
  98 0062 0B46     		mov	r3, r1
  99 0064 0029     		cmp	r1, #0
 100 0066 00DA     		bge	.L8
 101 0068 CB1D     		adds	r3, r1, #7
ARM GAS  C:\Users\Besitzer\AppData\Local\Temp\cczB0neC.s 			page 7


 102              	.L8:
 103 006a DB10     		asrs	r3, r3, #3
 104 006c 00EBC310 		add	r0, r0, r3, lsl #7
 105              	.LVL10:
 106 0070 01F00701 		and	r1, r1, #7
 107              	.LVL11:
 108 0074 0123     		movs	r3, #1
 109 0076 03FA01F1 		lsl	r1, r3, r1
 110 007a 135C     		ldrb	r3, [r2, r0]	@ zero_extendqisi2
 111 007c 5940     		eors	r1, r1, r3
 112 007e 1154     		strb	r1, [r2, r0]
 113              	.L1:
 114 0080 7047     		bx	lr
 115              	.L10:
 116 0082 00BF     		.align	2
 117              	.L9:
 118 0084 01000000 		.word	.LANCHOR0+1
 119              		.cfi_endproc
 120              	.LFE1:
 121              		.size	display_setPixel, .-display_setPixel
 122              		.section	.text.display_line,"ax",%progbits
 123              		.align	2
 124              		.thumb
 125              		.thumb_func
 126              		.type	display_line, %function
 127              	display_line:
 128              	.LFB8:
 242:ssd1306.c     ****             break;
 243:ssd1306.c     ****     }
 244:ssd1306.c     **** }
 245:ssd1306.c     **** /***********************************************************************
 246:ssd1306.c     **** *! \fn			void display_clear(void)
 247:ssd1306.c     **** *  \brief		clear display buffer
 248:ssd1306.c     **** *  \param		none
 249:ssd1306.c     **** *  \exception	none
 250:ssd1306.c     **** *  \return		none
 251:ssd1306.c     **** ***********************************************************************/
 252:ssd1306.c     **** void display_clear(void){
 253:ssd1306.c     ****     memset( _displaybuf, 0, _displaybuf_size );
 254:ssd1306.c     ****     SSD1306_buffer[0] = 0x40; // to be sure its there
 255:ssd1306.c     **** }
 256:ssd1306.c     **** /***********************************************************************
 257:ssd1306.c     **** *! \fn			void display_contrast( uint8_t contrast )
 258:ssd1306.c     **** *  \brief		contrast: 0 ...255
 259:ssd1306.c     **** *  \param		uint8_t contrast
 260:ssd1306.c     **** *  \exception	none
 261:ssd1306.c     **** *  \return		none
 262:ssd1306.c     **** ***********************************************************************/
 263:ssd1306.c     **** void display_contrast( uint8_t contrast ){
 264:ssd1306.c     ****         
 265:ssd1306.c     ****     uint8 cmdbuf[] = {
 266:ssd1306.c     ****         0x00,  
 267:ssd1306.c     ****         SSD1306_SETCONTRAST,
 268:ssd1306.c     ****         contrast
 269:ssd1306.c     ****     };
 270:ssd1306.c     ****     display_write_buf( cmdbuf, sizeof(cmdbuf) ); 
 271:ssd1306.c     **** }
ARM GAS  C:\Users\Besitzer\AppData\Local\Temp\cczB0neC.s 			page 8


 272:ssd1306.c     **** /***********************************************************************
 273:ssd1306.c     **** *! \fn			void display_invert( uint8_t invert )
 274:ssd1306.c     **** *  \brief		invert <> 0 for inverse display, invert == 0 for normal display
 275:ssd1306.c     **** *  \param		uint8_t invert
 276:ssd1306.c     **** *  \exception	none
 277:ssd1306.c     **** *  \return		none
 278:ssd1306.c     **** ***********************************************************************/
 279:ssd1306.c     **** void display_invert( uint8_t invert ){
 280:ssd1306.c     **** 
 281:ssd1306.c     ****     uint8 cmdbuf[] = {
 282:ssd1306.c     ****         0x00,  
 283:ssd1306.c     ****         0
 284:ssd1306.c     ****     };
 285:ssd1306.c     ****     cmdbuf[1] = invert ? SSD1306_INVERTDISPLAY : SSD1306_NORMALDISPLAY;
 286:ssd1306.c     ****     display_write_buf( cmdbuf, sizeof(cmdbuf) ); 
 287:ssd1306.c     **** }
 288:ssd1306.c     **** /***********************************************************************
 289:ssd1306.c     **** *! \fn			void display_update(void) 
 290:ssd1306.c     **** *  \brief		send display buffer
 291:ssd1306.c     **** *  \param		none
 292:ssd1306.c     **** *  \exception	none
 293:ssd1306.c     **** *  \return		none
 294:ssd1306.c     **** ***********************************************************************/
 295:ssd1306.c     **** void display_update(void) {
 296:ssd1306.c     ****       
 297:ssd1306.c     **** 
 298:ssd1306.c     ****     SSD1306_SetPageStartAddr(0);
 299:ssd1306.c     **** 	SSD1306_SetColStartAddr(0);
 300:ssd1306.c     ****     display_write_buf( SSD1306_buffer, sizeof(SSD1306_buffer) );
 301:ssd1306.c     **** }
 302:ssd1306.c     **** /***********************************************************************
 303:ssd1306.c     **** *! \fn			void SSD1306_SetPageStartAddr(uint8_t page) 
 304:ssd1306.c     **** *  \brief		set the Adress from the page
 305:ssd1306.c     **** *  \param		uint8_t page -> Set Page
 306:ssd1306.c     **** *  \exception	none
 307:ssd1306.c     **** *  \return		Page Address
 308:ssd1306.c     **** ***********************************************************************/
 309:ssd1306.c     **** void SSD1306_SetPageStartAddr(uint8_t page) {
 310:ssd1306.c     **** 	
 311:ssd1306.c     **** 	actPage = page;
 312:ssd1306.c     **** 	if(actPage>=DISPLAYPAGES ) {
 313:ssd1306.c     **** 		return;
 314:ssd1306.c     **** 	}
 315:ssd1306.c     ****     uint8 cmdbuf[] = {
 316:ssd1306.c     ****         0x00,
 317:ssd1306.c     ****         0xB0 | actPage          //set Page Address
 318:ssd1306.c     ****     };
 319:ssd1306.c     **** 	display_write_buf( cmdbuf, sizeof(cmdbuf) );
 320:ssd1306.c     **** }
 321:ssd1306.c     **** /***********************************************************************
 322:ssd1306.c     **** *! \fn			static void SSD1306_SetColStartAddr(uint8_t col)
 323:ssd1306.c     **** *  \brief		set the Adress from the Colum
 324:ssd1306.c     **** *  \param		uint8_t col
 325:ssd1306.c     **** *  \exception	none
 326:ssd1306.c     **** *  \return		none
 327:ssd1306.c     **** ***********************************************************************/
 328:ssd1306.c     **** static void SSD1306_SetColStartAddr(uint8_t col){
ARM GAS  C:\Users\Besitzer\AppData\Local\Temp\cczB0neC.s 			page 9


 329:ssd1306.c     **** 	
 330:ssd1306.c     **** 	actCol = col;
 331:ssd1306.c     **** 	if(actCol>=DISPLAYWIDTH) {
 332:ssd1306.c     **** 		return;
 333:ssd1306.c     **** 	}
 334:ssd1306.c     ****     uint8 cmdbuf[] = {
 335:ssd1306.c     ****         0x00,
 336:ssd1306.c     ****         (0x10 | (actCol>>4)),         //set Collum Address
 337:ssd1306.c     ****         actCol & 0x0F
 338:ssd1306.c     ****     };
 339:ssd1306.c     **** 	display_write_buf( cmdbuf, sizeof(cmdbuf));
 340:ssd1306.c     **** }
 341:ssd1306.c     **** /***********************************************************************
 342:ssd1306.c     **** *! \fn			static void display_line( int16_t x1, int16_t y1, int16_t x2, int16_t y2, uint16_t color )
 343:ssd1306.c     **** *  \brief		draws horizontal or vertical line
 344:ssd1306.c     **** *               Note: no check for valid coords, this needs to be done by caller
 345:ssd1306.c     **** *               should only be called from gfx_hvline which is doing all validity checking
 346:ssd1306.c     **** *  \param		int16_t x1
 347:ssd1306.c     **** *  \param		int16_t y1
 348:ssd1306.c     **** *  \param		int16_t x2
 349:ssd1306.c     **** *  \param		int16_t y2
 350:ssd1306.c     **** *  \param		uint16_t color
 351:ssd1306.c     **** *  \exception	none
 352:ssd1306.c     **** *  \return		none
 353:ssd1306.c     **** ***********************************************************************/
 354:ssd1306.c     **** static void display_line( int16_t x1, int16_t y1, int16_t x2, int16_t y2, uint16_t color ){
 129              		.loc 1 354 0
 130              		.cfi_startproc
 131              		@ args = 4, pretend = 0, frame = 0
 132              		@ frame_needed = 0, uses_anonymous_args = 0
 133              	.LVL12:
 134 0000 F0B5     		push	{r4, r5, r6, r7, lr}
 135              		.cfi_def_cfa_offset 20
 136              		.cfi_offset 4, -20
 137              		.cfi_offset 5, -16
 138              		.cfi_offset 6, -12
 139              		.cfi_offset 7, -8
 140              		.cfi_offset 14, -4
 141 0002 BDF81440 		ldrh	r4, [sp, #20]
 355:ssd1306.c     **** 
 356:ssd1306.c     ****     if( x1 == x2 ){
 142              		.loc 1 356 0
 143 0006 9042     		cmp	r0, r2
 144 0008 67D1     		bne	.L12
 145              	.LBB2:
 357:ssd1306.c     ****         // vertical
 358:ssd1306.c     ****         uint8_t* pstart = GDDRAM_ADDRESS(x1,y1);
 146              		.loc 1 358 0
 147 000a 0D46     		mov	r5, r1
 148 000c 0029     		cmp	r1, #0
 149 000e 00DA     		bge	.L13
 150 0010 CD1D     		adds	r5, r1, #7
 151              	.L13:
 152 0012 ED10     		asrs	r5, r5, #3
 153 0014 00EBC510 		add	r0, r0, r5, lsl #7
 154              	.LVL13:
 155 0018 444F     		ldr	r7, .L41
ARM GAS  C:\Users\Besitzer\AppData\Local\Temp\cczB0neC.s 			page 10


 156 001a 0744     		add	r7, r7, r0
 157              	.LVL14:
 359:ssd1306.c     ****         uint8_t* pend = GDDRAM_ADDRESS(x2,y2);       
 158              		.loc 1 359 0
 159 001c 1846     		mov	r0, r3
 160 001e 002B     		cmp	r3, #0
 161 0020 00DA     		bge	.L14
 162 0022 D81D     		adds	r0, r3, #7
 163              	.L14:
 164 0024 C010     		asrs	r0, r0, #3
 165 0026 02EBC012 		add	r2, r2, r0, lsl #7
 166              	.LVL15:
 167 002a 4048     		ldr	r0, .L41
 168 002c 1044     		add	r0, r0, r2
 169              	.LVL16:
 360:ssd1306.c     ****         uint8_t* ptr = pstart;             
 170              		.loc 1 360 0
 171 002e 3A46     		mov	r2, r7
 361:ssd1306.c     ****         
 362:ssd1306.c     ****         while( ptr <= pend ){
 172              		.loc 1 362 0
 173 0030 50E0     		b	.L15
 174              	.LVL17:
 175              	.L30:
 176              	.LBB3:
 363:ssd1306.c     ****             
 364:ssd1306.c     ****             uint8_t mask;
 365:ssd1306.c     ****             if( ptr == pstart ){
 177              		.loc 1 365 0
 178 0032 BA42     		cmp	r2, r7
 179 0034 18D1     		bne	.L16
 180              	.LBB4:
 366:ssd1306.c     ****                 // top
 367:ssd1306.c     ****                 uint8_t lbit = y1 % 8;
 181              		.loc 1 367 0
 182 0036 3E4D     		ldr	r5, .L41+4
 183 0038 0D40     		ands	r5, r1, r5
 184 003a 03D5     		bpl	.L17
 185 003c 013D     		subs	r5, r5, #1
 186 003e 65F00705 		orn	r5, r5, #7
 187 0042 0135     		adds	r5, r5, #1
 188              	.L17:
 189 0044 EEB2     		uxtb	r6, r5
 190              	.LVL18:
 368:ssd1306.c     ****                 // bottom (line can be very short, all inside this one byte)
 369:ssd1306.c     ****                 uint8_t ubit = lbit + y2 - y1;
 191              		.loc 1 369 0
 192 0046 F518     		adds	r5, r6, r3
 193 0048 6D1A     		subs	r5, r5, r1
 194 004a EDB2     		uxtb	r5, r5
 195              	.LVL19:
 370:ssd1306.c     ****                 if( ubit >= 7 )
 196              		.loc 1 370 0
 197 004c 062D     		cmp	r5, #6
 198 004e 00D9     		bls	.L18
 371:ssd1306.c     ****                     ubit = 7;
 199              		.loc 1 371 0
ARM GAS  C:\Users\Besitzer\AppData\Local\Temp\cczB0neC.s 			page 11


 200 0050 0725     		movs	r5, #7
 201              	.LVL20:
 202              	.L18:
 372:ssd1306.c     ****                 mask = ((1 << (ubit-lbit+1)) - 1) << lbit;    
 203              		.loc 1 372 0
 204 0052 AD1B     		subs	r5, r5, r6
 205              	.LVL21:
 206 0054 0135     		adds	r5, r5, #1
 207 0056 4FF0010E 		mov	lr, #1
 208 005a 0EFA05F5 		lsl	r5, lr, r5
 209 005e 013D     		subs	r5, r5, #1
 210 0060 05FA06F6 		lsl	r6, r5, r6
 211              	.LVL22:
 212 0064 F6B2     		uxtb	r6, r6
 213              	.LVL23:
 214              	.LBE4:
 215 0066 0EE0     		b	.L19
 216              	.L16:
 373:ssd1306.c     ****             }else if( ptr == pend ){
 217              		.loc 1 373 0
 218 0068 8242     		cmp	r2, r0
 219 006a 0CD1     		bne	.L19
 374:ssd1306.c     ****                 // top is always bit 0, that makes it easy
 375:ssd1306.c     ****                 // bottom
 376:ssd1306.c     ****                 mask = (1 << (y2 % 8)) - 1;    
 220              		.loc 1 376 0
 221 006c 304D     		ldr	r5, .L41+4
 222 006e 1D40     		ands	r5, r3, r5
 223 0070 03D5     		bpl	.L20
 224 0072 013D     		subs	r5, r5, #1
 225 0074 65F00705 		orn	r5, r5, #7
 226 0078 0135     		adds	r5, r5, #1
 227              	.L20:
 228 007a 2DB2     		sxth	r5, r5
 229 007c 0126     		movs	r6, #1
 230              	.LVL24:
 231 007e 06FA05F5 		lsl	r5, r6, r5
 232 0082 6E1E     		subs	r6, r5, #1
 233 0084 F6B2     		uxtb	r6, r6
 234              	.LVL25:
 235              	.L19:
 377:ssd1306.c     ****             }
 378:ssd1306.c     **** 
 379:ssd1306.c     ****             if( ptr == pstart || ptr == pend ){
 236              		.loc 1 379 0
 237 0086 BA42     		cmp	r2, r7
 238 0088 01D0     		beq	.L21
 239              		.loc 1 379 0 is_stmt 0 discriminator 1
 240 008a 8242     		cmp	r2, r0
 241 008c 12D1     		bne	.L22
 242              	.L21:
 380:ssd1306.c     ****                 switch( color ){
 243              		.loc 1 380 0 is_stmt 1
 244 008e 012C     		cmp	r4, #1
 245 0090 03D0     		beq	.L24
 246 0092 34B1     		cbz	r4, .L25
 247 0094 022C     		cmp	r4, #2
ARM GAS  C:\Users\Besitzer\AppData\Local\Temp\cczB0neC.s 			page 12


 248 0096 09D0     		beq	.L26
 249 0098 1BE0     		b	.L23
 250              	.L24:
 381:ssd1306.c     ****                     case WHITE:     *ptr |= mask; break;
 251              		.loc 1 381 0
 252 009a 1578     		ldrb	r5, [r2]	@ zero_extendqisi2
 253 009c 3543     		orrs	r5, r5, r6
 254 009e 1570     		strb	r5, [r2]
 255 00a0 17E0     		b	.L23
 256              	.L25:
 382:ssd1306.c     ****                     case BLACK:     *ptr &= ~mask; break;
 257              		.loc 1 382 0
 258 00a2 1578     		ldrb	r5, [r2]	@ zero_extendqisi2
 259 00a4 25EA0605 		bic	r5, r5, r6
 260 00a8 1570     		strb	r5, [r2]
 261 00aa 12E0     		b	.L23
 262              	.L26:
 383:ssd1306.c     ****                     case INVERSE:   *ptr ^= mask; break;
 263              		.loc 1 383 0
 264 00ac 1578     		ldrb	r5, [r2]	@ zero_extendqisi2
 265 00ae 7540     		eors	r5, r5, r6
 266 00b0 1570     		strb	r5, [r2]
 267 00b2 0EE0     		b	.L23
 268              	.L22:
 384:ssd1306.c     ****                 };  
 385:ssd1306.c     ****             }else{
 386:ssd1306.c     ****                 switch( color ){
 269              		.loc 1 386 0
 270 00b4 012C     		cmp	r4, #1
 271 00b6 03D0     		beq	.L27
 272 00b8 2CB1     		cbz	r4, .L28
 273 00ba 022C     		cmp	r4, #2
 274 00bc 06D0     		beq	.L29
 275 00be 08E0     		b	.L23
 276              	.L27:
 387:ssd1306.c     ****                     case WHITE:     *ptr = 0xff; break;
 277              		.loc 1 387 0
 278 00c0 FF25     		movs	r5, #255
 279 00c2 1570     		strb	r5, [r2]
 280 00c4 05E0     		b	.L23
 281              	.L28:
 388:ssd1306.c     ****                     case BLACK:     *ptr = 0x00; break;
 282              		.loc 1 388 0
 283 00c6 0025     		movs	r5, #0
 284 00c8 1570     		strb	r5, [r2]
 285 00ca 02E0     		b	.L23
 286              	.L29:
 389:ssd1306.c     ****                     case INVERSE:   *ptr ^= 0xff; break;
 287              		.loc 1 389 0
 288 00cc 1578     		ldrb	r5, [r2]	@ zero_extendqisi2
 289 00ce ED43     		mvns	r5, r5
 290 00d0 1570     		strb	r5, [r2]
 291              	.L23:
 390:ssd1306.c     ****                 };  
 391:ssd1306.c     ****             }
 392:ssd1306.c     ****             
 393:ssd1306.c     ****             ptr += DISPLAYWIDTH;
ARM GAS  C:\Users\Besitzer\AppData\Local\Temp\cczB0neC.s 			page 13


 292              		.loc 1 393 0
 293 00d2 8032     		adds	r2, r2, #128
 294              	.LVL26:
 295              	.L15:
 296              	.LBE3:
 362:ssd1306.c     ****             
 297              		.loc 1 362 0
 298 00d4 8242     		cmp	r2, r0
 299 00d6 ACD9     		bls	.L30
 300 00d8 F0BD     		pop	{r4, r5, r6, r7, pc}
 301              	.LVL27:
 302              	.L12:
 303              	.LBE2:
 304              	.LBB5:
 394:ssd1306.c     ****         }
 395:ssd1306.c     ****     }else{
 396:ssd1306.c     ****         // horizontal
 397:ssd1306.c     ****         uint8_t* pstart = GDDRAM_ADDRESS(x1,y1);
 305              		.loc 1 397 0
 306 00da 0B46     		mov	r3, r1
 307              	.LVL28:
 308 00dc 0029     		cmp	r1, #0
 309 00de 00DA     		bge	.L32
 310 00e0 CB1D     		adds	r3, r1, #7
 311              	.L32:
 312 00e2 DB10     		asrs	r3, r3, #3
 313 00e4 00EBC313 		add	r3, r0, r3, lsl #7
 314 00e8 104D     		ldr	r5, .L41
 315 00ea 2B44     		add	r3, r3, r5
 316              	.LVL29:
 398:ssd1306.c     ****         uint8_t* pend = pstart + x2 - x1;
 317              		.loc 1 398 0
 318 00ec 121A     		subs	r2, r2, r0
 319              	.LVL30:
 320 00ee 1A44     		add	r2, r2, r3
 321              	.LVL31:
 399:ssd1306.c     ****         uint8_t pixmask = GDDRAM_PIXMASK(y1);    
 322              		.loc 1 399 0
 323 00f0 01F00701 		and	r1, r1, #7
 324              	.LVL32:
 325 00f4 0120     		movs	r0, #1
 326              	.LVL33:
 327 00f6 00FA01F1 		lsl	r1, r0, r1
 328 00fa CDB2     		uxtb	r5, r1
 329              	.LVL34:
 400:ssd1306.c     **** 
 401:ssd1306.c     ****         uint8_t* ptr = pstart;
 402:ssd1306.c     ****         while( ptr <= pend ){
 330              		.loc 1 402 0
 331 00fc 12E0     		b	.L33
 332              	.LVL35:
 333              	.L38:
 403:ssd1306.c     ****             switch( color ){
 334              		.loc 1 403 0
 335 00fe 012C     		cmp	r4, #1
 336 0100 03D0     		beq	.L35
 337 0102 34B1     		cbz	r4, .L36
ARM GAS  C:\Users\Besitzer\AppData\Local\Temp\cczB0neC.s 			page 14


 338 0104 022C     		cmp	r4, #2
 339 0106 09D0     		beq	.L37
 340 0108 0BE0     		b	.L34
 341              	.L35:
 404:ssd1306.c     ****                 case WHITE:     *ptr |= pixmask; break;
 342              		.loc 1 404 0
 343 010a 1878     		ldrb	r0, [r3]	@ zero_extendqisi2
 344 010c 2843     		orrs	r0, r0, r5
 345 010e 1870     		strb	r0, [r3]
 346 0110 07E0     		b	.L34
 347              	.L36:
 405:ssd1306.c     ****                 case BLACK:     *ptr &= ~pixmask; break;
 348              		.loc 1 405 0
 349 0112 1878     		ldrb	r0, [r3]	@ zero_extendqisi2
 350 0114 20EA0100 		bic	r0, r0, r1
 351 0118 1870     		strb	r0, [r3]
 352 011a 02E0     		b	.L34
 353              	.L37:
 406:ssd1306.c     ****                 case INVERSE:   *ptr ^= pixmask; break;
 354              		.loc 1 406 0
 355 011c 1878     		ldrb	r0, [r3]	@ zero_extendqisi2
 356 011e 6840     		eors	r0, r0, r5
 357 0120 1870     		strb	r0, [r3]
 358              	.L34:
 407:ssd1306.c     ****             };
 408:ssd1306.c     ****             ptr++;
 359              		.loc 1 408 0
 360 0122 0133     		adds	r3, r3, #1
 361              	.LVL36:
 362              	.L33:
 402:ssd1306.c     ****             switch( color ){
 363              		.loc 1 402 0
 364 0124 9342     		cmp	r3, r2
 365 0126 EAD9     		bls	.L38
 366 0128 F0BD     		pop	{r4, r5, r6, r7, pc}
 367              	.LVL37:
 368              	.L42:
 369 012a 00BF     		.align	2
 370              	.L41:
 371 012c 01000000 		.word	.LANCHOR0+1
 372 0130 07000080 		.word	-2147483641
 373              	.LBE5:
 374              		.cfi_endproc
 375              	.LFE8:
 376              		.size	display_line, .-display_line
 377              		.section	.text.gfx_rotation_adjust,"ax",%progbits
 378              		.align	2
 379              		.thumb
 380              		.thumb_func
 381              		.type	gfx_rotation_adjust, %function
 382              	gfx_rotation_adjust:
 383              	.LFB21:
 409:ssd1306.c     ****         }
 410:ssd1306.c     ****     }
 411:ssd1306.c     **** }
 412:ssd1306.c     **** /***********************************************************************
 413:ssd1306.c     **** *! \fn			void display_stopscroll(void)
ARM GAS  C:\Users\Besitzer\AppData\Local\Temp\cczB0neC.s 			page 15


 414:ssd1306.c     **** *  \brief		stop scrolling 
 415:ssd1306.c     **** *  \param		none
 416:ssd1306.c     **** *  \exception	none
 417:ssd1306.c     **** *  \return		none
 418:ssd1306.c     **** ***********************************************************************/
 419:ssd1306.c     **** void display_stopscroll(void){
 420:ssd1306.c     **** 
 421:ssd1306.c     ****     uint8 cmdbuf[] = {
 422:ssd1306.c     ****         0x00,
 423:ssd1306.c     ****         SSD1306_DEACTIVATE_SCROLL
 424:ssd1306.c     ****     };
 425:ssd1306.c     ****     display_write_buf( cmdbuf, sizeof(cmdbuf) ); 
 426:ssd1306.c     **** }
 427:ssd1306.c     **** /***********************************************************************
 428:ssd1306.c     **** *! \fn			void display_scroll( SCROLL_AREA start, SCROLL_AREA end, SCROLL_DIR dir, SCROLL_SPEED spee
 429:ssd1306.c     **** *  \brief		scrolling
 430:ssd1306.c     **** *  \param		SCROLL_AREA start
 431:ssd1306.c     **** *  \param		SCROLL_AREA end
 432:ssd1306.c     **** *  \param		SCROLL_DIR dir
 433:ssd1306.c     **** *  \param		SCROLL_SPEED speed
 434:ssd1306.c     **** *  \exception	none
 435:ssd1306.c     **** *  \return		none
 436:ssd1306.c     **** ***********************************************************************/
 437:ssd1306.c     **** void display_scroll( SCROLL_AREA start, SCROLL_AREA end, SCROLL_DIR dir, SCROLL_SPEED speed ){
 438:ssd1306.c     ****    
 439:ssd1306.c     ****     uint8 cmdbuf[] = {
 440:ssd1306.c     ****         0x00,
 441:ssd1306.c     ****         dir,                    // 0x26 or 0x2a
 442:ssd1306.c     ****         0x00,                   // dummy byte
 443:ssd1306.c     ****         start,                  // start page
 444:ssd1306.c     ****         speed,                  // scroll step interval in terms of frame frequency 
 445:ssd1306.c     ****         end,                    // end page
 446:ssd1306.c     ****         0x00,                   // dummy byte
 447:ssd1306.c     ****         0xFF,                   // dummy byte
 448:ssd1306.c     ****         SSD1306_ACTIVATE_SCROLL // 0x2F
 449:ssd1306.c     ****     };
 450:ssd1306.c     ****     display_write_buf( cmdbuf, sizeof(cmdbuf) ); 
 451:ssd1306.c     **** }
 452:ssd1306.c     **** //########################################### Graphic #############################################
 453:ssd1306.c     **** /***********************************************************************
 454:ssd1306.c     **** *! \fn			void gfx_init( int16_t width, int16_t height)
 455:ssd1306.c     **** *  \brief		start gfx
 456:ssd1306.c     **** *  \param		int16_t width
 457:ssd1306.c     **** *  \param		int16_t height
 458:ssd1306.c     **** *  \exception	none
 459:ssd1306.c     **** *  \return		none
 460:ssd1306.c     **** ***********************************************************************/
 461:ssd1306.c     **** void gfx_init( int16_t width, int16_t height ){
 462:ssd1306.c     ****     WIDTH = width;
 463:ssd1306.c     ****     HEIGHT = height;
 464:ssd1306.c     ****     _width = WIDTH;
 465:ssd1306.c     ****     _height = HEIGHT;
 466:ssd1306.c     ****     
 467:ssd1306.c     ****     rotation = 0;
 468:ssd1306.c     ****     cursor_y = cursor_x = 0;
 469:ssd1306.c     ****     textsize = 1;
 470:ssd1306.c     ****     textcolor = textbgcolor = 0xFFFF;
ARM GAS  C:\Users\Besitzer\AppData\Local\Temp\cczB0neC.s 			page 16


 471:ssd1306.c     ****     wrap = 1;
 472:ssd1306.c     **** }
 473:ssd1306.c     **** 
 474:ssd1306.c     **** /***********************************************************************
 475:ssd1306.c     **** *! \fn			int16_t gfx_width(void)
 476:ssd1306.c     **** *  \brief		Return the width of the display
 477:ssd1306.c     **** *  \param		none
 478:ssd1306.c     **** *  \exception	none
 479:ssd1306.c     **** *  \return		int16_t display width
 480:ssd1306.c     **** ***********************************************************************/
 481:ssd1306.c     **** int16_t gfx_width(void){
 482:ssd1306.c     ****     return _width;
 483:ssd1306.c     **** }
 484:ssd1306.c     **** /***********************************************************************
 485:ssd1306.c     **** *! \fn			int16_t gfx_height(void){
 486:ssd1306.c     **** *  \brief		Return the height of the display
 487:ssd1306.c     **** *  \param		none
 488:ssd1306.c     **** *  \exception	none
 489:ssd1306.c     **** *  \return		int16_t display heigth
 490:ssd1306.c     **** ***********************************************************************/
 491:ssd1306.c     **** int16_t gfx_height(void){
 492:ssd1306.c     ****     return _height;
 493:ssd1306.c     **** }
 494:ssd1306.c     **** /***********************************************************************
 495:ssd1306.c     **** *! \fn			uint8_t gfx_rotation(void)
 496:ssd1306.c     **** *  \brief		Return the size of the display (per current rotation
 497:ssd1306.c     **** *  \param		none
 498:ssd1306.c     **** *  \exception	none
 499:ssd1306.c     **** *  \return		uint8_t gfx_rotation
 500:ssd1306.c     **** ***********************************************************************/
 501:ssd1306.c     **** uint8_t gfx_rotation(void){
 502:ssd1306.c     ****     return rotation;
 503:ssd1306.c     **** }
 504:ssd1306.c     **** /***********************************************************************
 505:ssd1306.c     **** *! \fn			void gfx_setCursor( int16_t x, int16_t y )
 506:ssd1306.c     **** *  \brief		set the cusor at the display
 507:ssd1306.c     **** *  \param		int16_t x position
 508:ssd1306.c     **** *  \param		int16_t y position
 509:ssd1306.c     **** *  \exception	none
 510:ssd1306.c     **** *  \return		none
 511:ssd1306.c     **** ***********************************************************************/
 512:ssd1306.c     **** void gfx_setCursor( int16_t x, int16_t y ){
 513:ssd1306.c     ****     cursor_x = x;
 514:ssd1306.c     ****     cursor_y = y;
 515:ssd1306.c     **** }
 516:ssd1306.c     **** /***********************************************************************
 517:ssd1306.c     **** *! \fn			void gfx_setTextSize( uint8_t size )
 518:ssd1306.c     **** *  \brief		set text size
 519:ssd1306.c     **** *  \param		uint8_t size - set the text size
 520:ssd1306.c     **** *  \exception	none
 521:ssd1306.c     **** *  \return		none
 522:ssd1306.c     **** ***********************************************************************/
 523:ssd1306.c     **** void gfx_setTextSize( uint8_t size ){
 524:ssd1306.c     ****     textsize = (size > 0) ? size : 1;
 525:ssd1306.c     **** }
 526:ssd1306.c     **** 
 527:ssd1306.c     **** /***********************************************************************
ARM GAS  C:\Users\Besitzer\AppData\Local\Temp\cczB0neC.s 			page 17


 528:ssd1306.c     **** *! \fn			void gfx_setTextColor( uint16_t color )
 529:ssd1306.c     **** *  \brief		set text color
 530:ssd1306.c     **** *  \param		uint16_t color
 531:ssd1306.c     **** *  \exception	none
 532:ssd1306.c     **** *  \return		none
 533:ssd1306.c     **** ***********************************************************************/
 534:ssd1306.c     **** void gfx_setTextColor( uint16_t color ){
 535:ssd1306.c     ****     textcolor = textbgcolor = color;
 536:ssd1306.c     **** }
 537:ssd1306.c     **** 
 538:ssd1306.c     **** /***********************************************************************
 539:ssd1306.c     **** *! \fn			void gfx_setTextBg( uint16_t color )
 540:ssd1306.c     **** *  \brief		set text backgroundcolor
 541:ssd1306.c     **** *  \param		uint16_t color
 542:ssd1306.c     **** *  \exception	none
 543:ssd1306.c     **** *  \return		none
 544:ssd1306.c     **** ***********************************************************************/
 545:ssd1306.c     **** void gfx_setTextBg( uint16_t color ){
 546:ssd1306.c     ****     textbgcolor = color;
 547:ssd1306.c     **** }
 548:ssd1306.c     **** 
 549:ssd1306.c     **** /***********************************************************************
 550:ssd1306.c     **** *! \fn			void gfx_setTextWrap( uint8_t w )
 551:ssd1306.c     **** *  \brief		set text wrap
 552:ssd1306.c     **** *  \param		uint8_t w
 553:ssd1306.c     **** *  \exception	none
 554:ssd1306.c     **** *  \return		none
 555:ssd1306.c     **** ***********************************************************************/
 556:ssd1306.c     **** void gfx_setTextWrap( uint8_t w ){
 557:ssd1306.c     ****     wrap = w;
 558:ssd1306.c     **** }
 559:ssd1306.c     **** /***********************************************************************
 560:ssd1306.c     **** *! \fn			void gfx_setRotation( uint8_t x )
 561:ssd1306.c     **** *  \brief		set rotation
 562:ssd1306.c     **** *  \param		uint8_t x
 563:ssd1306.c     **** *  \exception	none
 564:ssd1306.c     **** *  \return		none
 565:ssd1306.c     **** ***********************************************************************/
 566:ssd1306.c     **** void gfx_setRotation( uint8_t x ){
 567:ssd1306.c     ****     
 568:ssd1306.c     ****     rotation = (x & 3);
 569:ssd1306.c     ****     switch( rotation ){
 570:ssd1306.c     ****         case 0:
 571:ssd1306.c     ****         case 2:
 572:ssd1306.c     ****             _width = WIDTH;
 573:ssd1306.c     ****             _height = HEIGHT;
 574:ssd1306.c     ****             break;
 575:ssd1306.c     ****         case 1:
 576:ssd1306.c     ****         case 3:
 577:ssd1306.c     ****             _width = HEIGHT;
 578:ssd1306.c     ****             _height = WIDTH;
 579:ssd1306.c     ****         break;
 580:ssd1306.c     ****     }
 581:ssd1306.c     **** }
 582:ssd1306.c     **** /***********************************************************************
 583:ssd1306.c     **** *! \fn			static void gfx_rotation_adjust( int16_t* px, int16_t* py )
 584:ssd1306.c     **** *  \brief		set rotation adjust
ARM GAS  C:\Users\Besitzer\AppData\Local\Temp\cczB0neC.s 			page 18


 585:ssd1306.c     **** *  \param		int16_t* px
 586:ssd1306.c     **** *  \param		int16_t* py
 587:ssd1306.c     **** *  \exception	none
 588:ssd1306.c     **** *  \return		none
 589:ssd1306.c     **** ***********************************************************************/
 590:ssd1306.c     **** static void gfx_rotation_adjust( int16_t* px, int16_t* py ){
 384              		.loc 1 590 0
 385              		.cfi_startproc
 386              		@ args = 0, pretend = 0, frame = 0
 387              		@ frame_needed = 0, uses_anonymous_args = 0
 388              		@ link register save eliminated.
 389              	.LVL38:
 591:ssd1306.c     **** 
 592:ssd1306.c     ****     int16_t y0 = *py;
 390              		.loc 1 592 0
 391 0000 B1F90020 		ldrsh	r2, [r1]
 392              	.LVL39:
 593:ssd1306.c     ****     
 594:ssd1306.c     ****     switch( rotation ){
 393              		.loc 1 594 0
 394 0004 154B     		ldr	r3, .L51
 395 0006 1B78     		ldrb	r3, [r3]	@ zero_extendqisi2
 396 0008 022B     		cmp	r3, #2
 397 000a 0CD0     		beq	.L45
 398 000c 032B     		cmp	r3, #3
 399 000e 19D0     		beq	.L46
 400 0010 012B     		cmp	r3, #1
 401 0012 21D1     		bne	.L50
 595:ssd1306.c     ****         case 1:
 596:ssd1306.c     ****             *py = *px;
 402              		.loc 1 596 0
 403 0014 B0F90030 		ldrsh	r3, [r0]
 404 0018 0B80     		strh	r3, [r1]	@ movhi
 597:ssd1306.c     ****             *px = WIDTH - y0 - 1;
 405              		.loc 1 597 0
 406 001a 114B     		ldr	r3, .L51+4
 407 001c 1B88     		ldrh	r3, [r3]
 408 001e 9A1A     		subs	r2, r3, r2
 409              	.LVL40:
 410 0020 013A     		subs	r2, r2, #1
 411 0022 0280     		strh	r2, [r0]	@ movhi
 412 0024 7047     		bx	lr
 413              	.LVL41:
 414              	.L45:
 598:ssd1306.c     ****             break;
 599:ssd1306.c     ****         case 2:
 600:ssd1306.c     ****             *px = WIDTH - *px - 1;
 415              		.loc 1 600 0
 416 0026 B0F90020 		ldrsh	r2, [r0]
 417              	.LVL42:
 418 002a 0D4B     		ldr	r3, .L51+4
 419 002c 1B88     		ldrh	r3, [r3]
 420 002e 9B1A     		subs	r3, r3, r2
 421 0030 013B     		subs	r3, r3, #1
 422 0032 0380     		strh	r3, [r0]	@ movhi
 423              	.LVL43:
 601:ssd1306.c     ****             *py = HEIGHT - *py - 1;
ARM GAS  C:\Users\Besitzer\AppData\Local\Temp\cczB0neC.s 			page 19


 424              		.loc 1 601 0
 425 0034 B1F90020 		ldrsh	r2, [r1]
 426 0038 0A4B     		ldr	r3, .L51+8
 427 003a 1B88     		ldrh	r3, [r3]
 428 003c 9B1A     		subs	r3, r3, r2
 429 003e 013B     		subs	r3, r3, #1
 430 0040 0B80     		strh	r3, [r1]	@ movhi
 602:ssd1306.c     ****             break;
 431              		.loc 1 602 0
 432 0042 7047     		bx	lr
 433              	.LVL44:
 434              	.L46:
 590:ssd1306.c     **** 
 435              		.loc 1 590 0
 436 0044 10B4     		push	{r4}
 437              		.cfi_def_cfa_offset 4
 438              		.cfi_offset 4, -4
 603:ssd1306.c     ****         case 3:
 604:ssd1306.c     ****             *py = HEIGHT - *px - 1;
 439              		.loc 1 604 0
 440 0046 B0F90040 		ldrsh	r4, [r0]
 441 004a 064B     		ldr	r3, .L51+8
 442 004c 1B88     		ldrh	r3, [r3]
 443 004e 1B1B     		subs	r3, r3, r4
 444 0050 013B     		subs	r3, r3, #1
 445 0052 0B80     		strh	r3, [r1]	@ movhi
 605:ssd1306.c     ****             *px = y0;
 446              		.loc 1 605 0
 447 0054 0280     		strh	r2, [r0]	@ movhi
 606:ssd1306.c     ****             break;
 607:ssd1306.c     ****     }
 608:ssd1306.c     **** }
 448              		.loc 1 608 0
 449 0056 10BC     		pop	{r4}
 450              		.cfi_restore 4
 451              		.cfi_def_cfa_offset 0
 452              	.L50:
 453 0058 7047     		bx	lr
 454              	.L52:
 455 005a 00BF     		.align	2
 456              	.L51:
 457 005c 00000000 		.word	rotation
 458 0060 00000000 		.word	WIDTH
 459 0064 00000000 		.word	HEIGHT
 460              		.cfi_endproc
 461              	.LFE21:
 462              		.size	gfx_rotation_adjust, .-gfx_rotation_adjust
 463              		.section	.text.gfx_hvLine,"ax",%progbits
 464              		.align	2
 465              		.thumb
 466              		.thumb_func
 467              		.type	gfx_hvLine, %function
 468              	gfx_hvLine:
 469              	.LFB23:
 609:ssd1306.c     **** /***********************************************************************
 610:ssd1306.c     **** *! \fn			void gfx_drawPixel( int16_t x, int16_t y, uint16_t color )
 611:ssd1306.c     **** *  \brief		draw pixel
ARM GAS  C:\Users\Besitzer\AppData\Local\Temp\cczB0neC.s 			page 20


 612:ssd1306.c     **** *  \param		int16_t x,
 613:ssd1306.c     **** *  \param		int16_t y
 614:ssd1306.c     **** *  \param		uint16_t color 
 615:ssd1306.c     **** *  \exception	none
 616:ssd1306.c     **** *  \return		none
 617:ssd1306.c     **** ***********************************************************************/
 618:ssd1306.c     **** void gfx_drawPixel( int16_t x, int16_t y, uint16_t color ){
 619:ssd1306.c     ****     
 620:ssd1306.c     ****     if( (x < 0) || (x >= _width) || (y < 0) || (y >= _height) )
 621:ssd1306.c     ****         return;
 622:ssd1306.c     ****     
 623:ssd1306.c     ****     gfx_rotation_adjust( &x, &y );
 624:ssd1306.c     **** 
 625:ssd1306.c     ****     display_setPixel(x,y,color);
 626:ssd1306.c     **** }
 627:ssd1306.c     **** 
 628:ssd1306.c     **** /***********************************************************************
 629:ssd1306.c     **** *! \fn			static void gfx_hvLine( int16_t x1, int16_t y1, int16_t x2, int16_t y2, uint16_t color )
 630:ssd1306.c     **** *  \brief		helper function for gfx_drawLine, handles special 
 631:ssd1306.c     **** *               cases of horizontal and vertical lines
 632:ssd1306.c     **** *  \param		int16_t x1
 633:ssd1306.c     **** *  \param		int16_t y1
 634:ssd1306.c     **** *  \param		int16_t x2,
 635:ssd1306.c     **** *  \param		int16_t y2
 636:ssd1306.c     **** *  \param		uint16_t color
 637:ssd1306.c     **** *  \exception	none
 638:ssd1306.c     **** *  \return		none
 639:ssd1306.c     **** ***********************************************************************/
 640:ssd1306.c     **** static void gfx_hvLine( int16_t x1, int16_t y1, int16_t x2, int16_t y2, uint16_t color ){
 470              		.loc 1 640 0
 471              		.cfi_startproc
 472              		@ args = 4, pretend = 0, frame = 8
 473              		@ frame_needed = 0, uses_anonymous_args = 0
 474              	.LVL45:
 475 0000 10B5     		push	{r4, lr}
 476              		.cfi_def_cfa_offset 8
 477              		.cfi_offset 4, -8
 478              		.cfi_offset 14, -4
 479 0002 84B0     		sub	sp, sp, #16
 480              		.cfi_def_cfa_offset 24
 481 0004 ADF80E00 		strh	r0, [sp, #14]	@ movhi
 482 0008 ADF80C10 		strh	r1, [sp, #12]	@ movhi
 483 000c ADF80A20 		strh	r2, [sp, #10]	@ movhi
 484 0010 ADF80830 		strh	r3, [sp, #8]	@ movhi
 641:ssd1306.c     ****     
 642:ssd1306.c     ****     if( x1 != x2 && y1 != y2 ){
 485              		.loc 1 642 0
 486 0014 9042     		cmp	r0, r2
 487 0016 03D0     		beq	.L54
 488              		.loc 1 642 0 is_stmt 0 discriminator 1
 489 0018 09B2     		sxth	r1, r1
 490              	.LVL46:
 491 001a 1BB2     		sxth	r3, r3
 492              	.LVL47:
 493 001c 9942     		cmp	r1, r3
 494 001e 71D1     		bne	.L53
 495              	.L54:
ARM GAS  C:\Users\Besitzer\AppData\Local\Temp\cczB0neC.s 			page 21


 643:ssd1306.c     ****         // neither vertical nor horizontal
 644:ssd1306.c     ****         return;
 645:ssd1306.c     ****     }    
 646:ssd1306.c     ****     
 647:ssd1306.c     ****     // bounds check
 648:ssd1306.c     ****     if( rotation == 1 || rotation == 3 ){
 496              		.loc 1 648 0 is_stmt 1
 497 0020 394B     		ldr	r3, .L63
 498 0022 1B78     		ldrb	r3, [r3]	@ zero_extendqisi2
 499 0024 012B     		cmp	r3, #1
 500 0026 01D0     		beq	.L56
 501              		.loc 1 648 0 is_stmt 0 discriminator 1
 502 0028 032B     		cmp	r3, #3
 503 002a 1AD1     		bne	.L57
 504              	.L56:
 649:ssd1306.c     ****         if( x1 < 0 || x1 >= HEIGHT || x2 < 0 || x2 >= HEIGHT )
 505              		.loc 1 649 0 is_stmt 1
 506 002c 0028     		cmp	r0, #0
 507 002e 69DB     		blt	.L53
 508              		.loc 1 649 0 is_stmt 0 discriminator 1
 509 0030 364B     		ldr	r3, .L63+4
 510 0032 B3F90030 		ldrsh	r3, [r3]
 511 0036 9842     		cmp	r0, r3
 512 0038 64DA     		bge	.L53
 513              		.loc 1 649 0 discriminator 2
 514 003a 002A     		cmp	r2, #0
 515 003c 62DB     		blt	.L53
 516              		.loc 1 649 0 discriminator 3
 517 003e 9A42     		cmp	r2, r3
 518 0040 60DA     		bge	.L53
 650:ssd1306.c     ****             return;
 651:ssd1306.c     ****         if( y1 < 0 || y1 >= WIDTH || y2 < 0 || y2 >= WIDTH )
 519              		.loc 1 651 0 is_stmt 1
 520 0042 BDF90C30 		ldrsh	r3, [sp, #12]
 521 0046 002B     		cmp	r3, #0
 522 0048 5CDB     		blt	.L53
 523              		.loc 1 651 0 is_stmt 0 discriminator 1
 524 004a 314A     		ldr	r2, .L63+8
 525              	.LVL48:
 526 004c B2F90020 		ldrsh	r2, [r2]
 527 0050 9342     		cmp	r3, r2
 528 0052 57DA     		bge	.L53
 529              		.loc 1 651 0 discriminator 2
 530 0054 BDF90830 		ldrsh	r3, [sp, #8]
 531 0058 002B     		cmp	r3, #0
 532 005a 53DB     		blt	.L53
 533              		.loc 1 651 0 discriminator 3
 534 005c 9A42     		cmp	r2, r3
 535 005e 1ADC     		bgt	.L58
 536 0060 50E0     		b	.L53
 537              	.LVL49:
 538              	.L57:
 652:ssd1306.c     ****             return;
 653:ssd1306.c     ****     }else{
 654:ssd1306.c     ****         if( y1 < 0 || y1 >= HEIGHT || y2 < 0 || y2 >= HEIGHT )
 539              		.loc 1 654 0 is_stmt 1
 540 0062 BDF90C30 		ldrsh	r3, [sp, #12]
ARM GAS  C:\Users\Besitzer\AppData\Local\Temp\cczB0neC.s 			page 22


 541 0066 002B     		cmp	r3, #0
 542 0068 4CDB     		blt	.L53
 543              		.loc 1 654 0 is_stmt 0 discriminator 1
 544 006a 2849     		ldr	r1, .L63+4
 545 006c B1F90010 		ldrsh	r1, [r1]
 546 0070 8B42     		cmp	r3, r1
 547 0072 47DA     		bge	.L53
 548              		.loc 1 654 0 discriminator 2
 549 0074 BDF90830 		ldrsh	r3, [sp, #8]
 550 0078 002B     		cmp	r3, #0
 551 007a 43DB     		blt	.L53
 552              		.loc 1 654 0 discriminator 3
 553 007c 9942     		cmp	r1, r3
 554 007e 41DD     		ble	.L53
 655:ssd1306.c     ****             return;
 656:ssd1306.c     ****         if( x1 < 0 || x1 >= WIDTH || x2 < 0 || x2 >= WIDTH )
 555              		.loc 1 656 0 is_stmt 1
 556 0080 0028     		cmp	r0, #0
 557 0082 3FDB     		blt	.L53
 558              		.loc 1 656 0 is_stmt 0 discriminator 1
 559 0084 224B     		ldr	r3, .L63+8
 560 0086 B3F90030 		ldrsh	r3, [r3]
 561 008a 9842     		cmp	r0, r3
 562 008c 3ADA     		bge	.L53
 563              		.loc 1 656 0 discriminator 2
 564 008e 002A     		cmp	r2, #0
 565 0090 38DB     		blt	.L53
 566              		.loc 1 656 0 discriminator 3
 567 0092 9A42     		cmp	r2, r3
 568 0094 36DA     		bge	.L53
 569              	.LVL50:
 570              	.L58:
 657:ssd1306.c     ****             return;
 658:ssd1306.c     ****     }
 659:ssd1306.c     ****     
 660:ssd1306.c     ****     gfx_rotation_adjust( &x1, &y1 );
 571              		.loc 1 660 0 is_stmt 1
 572 0096 03A9     		add	r1, sp, #12
 573              	.LVL51:
 574 0098 0DF10E00 		add	r0, sp, #14
 575              	.LVL52:
 576 009c FFF7FEFF 		bl	gfx_rotation_adjust
 577              	.LVL53:
 661:ssd1306.c     ****     gfx_rotation_adjust( &x2, &y2 );
 578              		.loc 1 661 0
 579 00a0 02A9     		add	r1, sp, #8
 580              	.LVL54:
 581 00a2 0DF10A00 		add	r0, sp, #10
 582              	.LVL55:
 583 00a6 FFF7FEFF 		bl	gfx_rotation_adjust
 584              	.LVL56:
 662:ssd1306.c     ****     
 663:ssd1306.c     ****     // ensure coords are from left to right and top to bottom
 664:ssd1306.c     ****     if( (x1 == x2 && y2 < y1) || (y1 == y2 && x2 < x1) ){
 585              		.loc 1 664 0
 586 00aa BDF90E30 		ldrsh	r3, [sp, #14]
 587 00ae BDF90A20 		ldrsh	r2, [sp, #10]
ARM GAS  C:\Users\Besitzer\AppData\Local\Temp\cczB0neC.s 			page 23


 588 00b2 9342     		cmp	r3, r2
 589 00b4 05D1     		bne	.L59
 590              		.loc 1 664 0 is_stmt 0 discriminator 1
 591 00b6 BDF90800 		ldrsh	r0, [sp, #8]
 592 00ba BDF90C10 		ldrsh	r1, [sp, #12]
 593 00be 8842     		cmp	r0, r1
 594 00c0 07DB     		blt	.L60
 595              	.L59:
 596              		.loc 1 664 0 discriminator 3
 597 00c2 BDF90C00 		ldrsh	r0, [sp, #12]
 598 00c6 BDF90810 		ldrsh	r1, [sp, #8]
 599 00ca 8842     		cmp	r0, r1
 600 00cc 0DD1     		bne	.L61
 601              		.loc 1 664 0 discriminator 4
 602 00ce 9342     		cmp	r3, r2
 603 00d0 0BDD     		ble	.L61
 604              	.L60:
 605              	.LVL57:
 606              	.LBB6:
 665:ssd1306.c     ****         // swap as needed
 666:ssd1306.c     ****         int16_t t = x1; x1 = x2; x2 = t;
 607              		.loc 1 666 0 is_stmt 1
 608 00d2 ADF80E20 		strh	r2, [sp, #14]	@ movhi
 609 00d6 ADF80A30 		strh	r3, [sp, #10]	@ movhi
 667:ssd1306.c     ****         t = y1; y1 = y2; y2 = t;
 610              		.loc 1 667 0
 611 00da BDF90C30 		ldrsh	r3, [sp, #12]
 612              	.LVL58:
 613 00de BDF80820 		ldrh	r2, [sp, #8]
 614 00e2 ADF80C20 		strh	r2, [sp, #12]	@ movhi
 615 00e6 ADF80830 		strh	r3, [sp, #8]	@ movhi
 616              	.LVL59:
 617              	.L61:
 618              	.LBE6:
 668:ssd1306.c     ****     }
 669:ssd1306.c     ****     
 670:ssd1306.c     ****     display_line( x1, y1, x2, y2, color );
 619              		.loc 1 670 0
 620 00ea BDF90830 		ldrsh	r3, [sp, #8]
 621 00ee BDF90A20 		ldrsh	r2, [sp, #10]
 622 00f2 BDF90C10 		ldrsh	r1, [sp, #12]
 623 00f6 BDF90E00 		ldrsh	r0, [sp, #14]
 624 00fa BDF81840 		ldrh	r4, [sp, #24]
 625 00fe 0094     		str	r4, [sp]
 626 0100 FFF7FEFF 		bl	display_line
 627              	.LVL60:
 628              	.L53:
 671:ssd1306.c     **** }
 629              		.loc 1 671 0
 630 0104 04B0     		add	sp, sp, #16
 631              		.cfi_def_cfa_offset 8
 632              		@ sp needed
 633 0106 10BD     		pop	{r4, pc}
 634              	.LVL61:
 635              	.L64:
 636              		.align	2
 637              	.L63:
ARM GAS  C:\Users\Besitzer\AppData\Local\Temp\cczB0neC.s 			page 24


 638 0108 00000000 		.word	rotation
 639 010c 00000000 		.word	HEIGHT
 640 0110 00000000 		.word	WIDTH
 641              		.cfi_endproc
 642              	.LFE23:
 643              		.size	gfx_hvLine, .-gfx_hvLine
 644              		.section	.text.display_write_buf,"ax",%progbits
 645              		.align	2
 646              		.thumb
 647              		.thumb_func
 648              		.type	display_write_buf, %function
 649              	display_write_buf:
 650              	.LFB33:
 672:ssd1306.c     **** /***********************************************************************
 673:ssd1306.c     **** *! \fn			void gfx_drawLine( int16_t x0, int16_t y0, int16_t x1, int16_t y1, uint16_t color )
 674:ssd1306.c     **** *  \brief		always use this function for line drawing
 675:ssd1306.c     **** *  \param		int16_t x0
 676:ssd1306.c     **** *  \param		int16_t y0
 677:ssd1306.c     **** *  \param		int16_t x1
 678:ssd1306.c     **** *  \param		int16_t y1
 679:ssd1306.c     **** *  \param		uint16_t color
 680:ssd1306.c     **** *  \exception	none
 681:ssd1306.c     **** *  \return		none
 682:ssd1306.c     **** ***********************************************************************/
 683:ssd1306.c     **** void gfx_drawLine( int16_t x0, int16_t y0, int16_t x1, int16_t y1, uint16_t color ){
 684:ssd1306.c     ****  
 685:ssd1306.c     ****     if( x0 == x1 || y0 == y1 ){
 686:ssd1306.c     ****         // vertical and horizontal lines can be drawn faster
 687:ssd1306.c     ****         gfx_hvLine( x0, y0, x1, y1, color );
 688:ssd1306.c     ****         return;
 689:ssd1306.c     ****     }
 690:ssd1306.c     ****     
 691:ssd1306.c     ****     int16_t t;
 692:ssd1306.c     ****     
 693:ssd1306.c     ****     int16_t steep = abs(y1 - y0) > abs(x1 - x0);
 694:ssd1306.c     ****     if( steep ){
 695:ssd1306.c     ****         t = x0; x0 = y0; y0 = t;
 696:ssd1306.c     ****         t = x1; x1 = y1; y1 = t;
 697:ssd1306.c     ****     }
 698:ssd1306.c     ****     if( x0 > x1 ){
 699:ssd1306.c     ****         t = x0; x0 = x1; x1 = t;
 700:ssd1306.c     ****         t = y0; y0 = y1; y1 = t;
 701:ssd1306.c     ****     }
 702:ssd1306.c     ****     int16_t dx, dy;
 703:ssd1306.c     ****     dx = x1 - x0;
 704:ssd1306.c     ****     dy = abs(y1 - y0);
 705:ssd1306.c     ****     int16_t err = dx / 2;
 706:ssd1306.c     ****     int16_t ystep;
 707:ssd1306.c     ****     if( y0 < y1 ){
 708:ssd1306.c     ****         ystep = 1;
 709:ssd1306.c     ****     }else{
 710:ssd1306.c     ****         ystep = -1;
 711:ssd1306.c     ****     }
 712:ssd1306.c     ****     for( ; x0<=x1; x0++ ){
 713:ssd1306.c     ****         if( steep ){
 714:ssd1306.c     ****             gfx_drawPixel( y0, x0, color );
 715:ssd1306.c     ****         }else{
ARM GAS  C:\Users\Besitzer\AppData\Local\Temp\cczB0neC.s 			page 25


 716:ssd1306.c     ****             gfx_drawPixel( x0, y0, color );
 717:ssd1306.c     ****         }
 718:ssd1306.c     ****         err -= dy;
 719:ssd1306.c     ****         if( err < 0 ){
 720:ssd1306.c     ****             y0 += ystep;
 721:ssd1306.c     ****             err += dx;
 722:ssd1306.c     ****         }
 723:ssd1306.c     ****     }
 724:ssd1306.c     **** }
 725:ssd1306.c     **** /***********************************************************************
 726:ssd1306.c     **** *! \fn			void gfx_drawRect( int16_t x, int16_t y, int16_t w, int16_t h, uint16_t color )
 727:ssd1306.c     **** *  \brief		draw an rectangle
 728:ssd1306.c     **** *  \param		int16_t x
 729:ssd1306.c     **** *  \param		int16_t y
 730:ssd1306.c     **** *  \param		int16_t w - border
 731:ssd1306.c     **** *  \param		uint16_t color
 732:ssd1306.c     **** *  \exception	none
 733:ssd1306.c     **** *  \return		none
 734:ssd1306.c     **** ***********************************************************************/
 735:ssd1306.c     **** void gfx_drawRect( int16_t x, int16_t y, int16_t w, int16_t h, uint16_t color ){
 736:ssd1306.c     ****     
 737:ssd1306.c     ****     gfx_drawLine( x, y, x+w-1, y, color );
 738:ssd1306.c     ****     gfx_drawLine( x, y+h-1, x+w-1, y+h-1, color );
 739:ssd1306.c     ****     gfx_drawLine( x, y, x, y+h-1, color );
 740:ssd1306.c     ****     gfx_drawLine( x+w-1, y, x+w-1, y+h-1, color );
 741:ssd1306.c     **** }
 742:ssd1306.c     **** /***********************************************************************
 743:ssd1306.c     **** *! \fn			gfx_fillRect( int16_t x, int16_t y, int16_t w, int16_t h, uint16_t color )
 744:ssd1306.c     **** *  \brief		draw an filled rectangle
 745:ssd1306.c     **** *  \param		int16_t x
 746:ssd1306.c     **** *  \param		int16_t y
 747:ssd1306.c     **** *  \param		int16_t w - border
 748:ssd1306.c     **** *  \param		int16_t h - heigth of filling
 749:ssd1306.c     **** *  \param		uint16_t color
 750:ssd1306.c     **** *  \exception	none
 751:ssd1306.c     **** *  \return		none
 752:ssd1306.c     **** ***********************************************************************/
 753:ssd1306.c     **** void gfx_fillRect( int16_t x, int16_t y, int16_t w, int16_t h, uint16_t color ){
 754:ssd1306.c     ****     int16_t i = 0;
 755:ssd1306.c     ****     if( h > w ){
 756:ssd1306.c     ****         for( i = x ; i < x+w ; i++ ){
 757:ssd1306.c     ****             gfx_drawLine( i, y, i, y+h-1, color );
 758:ssd1306.c     ****         }
 759:ssd1306.c     ****     }else{
 760:ssd1306.c     ****         for( i = y ; i < y+h ; i++ ){
 761:ssd1306.c     ****             gfx_drawLine( x, i, x+w-1, i, color );
 762:ssd1306.c     ****         }
 763:ssd1306.c     ****     }
 764:ssd1306.c     **** }
 765:ssd1306.c     **** 
 766:ssd1306.c     **** /***********************************************************************
 767:ssd1306.c     **** *! \fn			void gfx_drawCircle( int16_t x0, int16_t y0, int16_t r,uint16_t color )
 768:ssd1306.c     **** *  \brief		draw an circle outline
 769:ssd1306.c     **** *  \param		int16_t x0
 770:ssd1306.c     **** *  \param	    int16_t y0
 771:ssd1306.c     **** *  \param		int16_t r
 772:ssd1306.c     **** *  \param		uint16_t color
ARM GAS  C:\Users\Besitzer\AppData\Local\Temp\cczB0neC.s 			page 26


 773:ssd1306.c     **** *  \exception	none
 774:ssd1306.c     **** *  \return		none
 775:ssd1306.c     **** ***********************************************************************/
 776:ssd1306.c     **** void gfx_drawCircle( int16_t x0, int16_t y0, int16_t r,uint16_t color ){
 777:ssd1306.c     **** 
 778:ssd1306.c     ****     int16_t f = 1 - r;
 779:ssd1306.c     ****     int16_t ddF_x = 1;
 780:ssd1306.c     ****     int16_t ddF_y = -2 * r;
 781:ssd1306.c     ****     int16_t x = 0;
 782:ssd1306.c     ****     int16_t y = r;
 783:ssd1306.c     ****     gfx_drawPixel( x0 , y0+r, color );
 784:ssd1306.c     ****     gfx_drawPixel( x0 , y0-r, color );
 785:ssd1306.c     ****     gfx_drawPixel( x0+r, y0 , color );
 786:ssd1306.c     ****     gfx_drawPixel( x0-r, y0 , color );
 787:ssd1306.c     ****     while( x < y ){
 788:ssd1306.c     ****         if( f >= 0 ){
 789:ssd1306.c     ****             y--;
 790:ssd1306.c     ****             ddF_y += 2;
 791:ssd1306.c     ****             f += ddF_y;
 792:ssd1306.c     ****         }
 793:ssd1306.c     ****         x++;
 794:ssd1306.c     ****         ddF_x += 2;
 795:ssd1306.c     ****         f += ddF_x;
 796:ssd1306.c     ****         gfx_drawPixel( x0 + x, y0 + y, color );
 797:ssd1306.c     ****         gfx_drawPixel( x0 - x, y0 + y, color );
 798:ssd1306.c     ****         gfx_drawPixel( x0 + x, y0 - y, color );
 799:ssd1306.c     ****         gfx_drawPixel( x0 - x, y0 - y, color );
 800:ssd1306.c     ****         gfx_drawPixel( x0 + y, y0 + x, color );
 801:ssd1306.c     ****         gfx_drawPixel( x0 - y, y0 + x, color );
 802:ssd1306.c     ****         gfx_drawPixel( x0 + y, y0 - x, color );
 803:ssd1306.c     ****         gfx_drawPixel( x0 - y, y0 - x, color );
 804:ssd1306.c     ****     }
 805:ssd1306.c     **** }
 806:ssd1306.c     **** /***********************************************************************
 807:ssd1306.c     **** *! \fn			void gfx_drawCircle( int16_t x0, int16_t y0, int16_t r,uint16_t color )
 808:ssd1306.c     **** *  \brief		draw an circle outline
 809:ssd1306.c     **** *  \param		int16_t x0
 810:ssd1306.c     **** *  \param	    int16_t y0
 811:ssd1306.c     **** *  \param		int16_t r
 812:ssd1306.c     **** *  \param		uint16_t color
 813:ssd1306.c     **** *  \exception	none
 814:ssd1306.c     **** *  \return		none
 815:ssd1306.c     **** ***********************************************************************/
 816:ssd1306.c     **** void gfx_drawTriangle( int16_t x0, int16_t y0,int16_t x1, int16_t y1, int16_t x2, int16_t y2, uint1
 817:ssd1306.c     ****     
 818:ssd1306.c     ****     gfx_drawLine( x0, y0, x1, y1, color );
 819:ssd1306.c     ****     gfx_drawLine( x1, y1, x2, y2, color );
 820:ssd1306.c     ****     gfx_drawLine( x2, y2, x0, y0, color );
 821:ssd1306.c     **** }
 822:ssd1306.c     **** 
 823:ssd1306.c     **** /***********************************************************************
 824:ssd1306.c     **** *! \fn			void gfx_drawChar( int16_t x, int16_t y, unsigned char c,uint16_t color, uint16_t bg, uint
 825:ssd1306.c     **** *  \brief		Draw a character
 826:ssd1306.c     **** *  \param		int16_t x
 827:ssd1306.c     **** *  \param		int16_t y
 828:ssd1306.c     **** *  \param		unsigned char c
 829:ssd1306.c     **** *  \param		uint16_t color
ARM GAS  C:\Users\Besitzer\AppData\Local\Temp\cczB0neC.s 			page 27


 830:ssd1306.c     **** *  \param		uint16_t bg
 831:ssd1306.c     **** *  \param		uint8_t size
 832:ssd1306.c     **** *  \exception	none
 833:ssd1306.c     **** *  \return		none
 834:ssd1306.c     **** ***********************************************************************/
 835:ssd1306.c     **** void gfx_drawChar( int16_t x, int16_t y, unsigned char c,uint16_t color, uint16_t bg, uint8_t size)
 836:ssd1306.c     ****     if( (x >= _width) || // Clip right
 837:ssd1306.c     ****         (y >= _height) || // Clip bottom
 838:ssd1306.c     ****         ((x + 6 * size - 1) < 0) || // Clip left
 839:ssd1306.c     ****         ((y + 8 * size - 1) < 0)) // Clip top
 840:ssd1306.c     ****         return;
 841:ssd1306.c     **** 
 842:ssd1306.c     ****     int8_t i = 0;
 843:ssd1306.c     ****     for( i = 0 ; i < 6 ; i++ ){
 844:ssd1306.c     ****         uint8_t line;
 845:ssd1306.c     ****         if( i == 5 )
 846:ssd1306.c     ****             line = 0x0;
 847:ssd1306.c     ****         else
 848:ssd1306.c     ****            line = font[(c*5)+i];
 849:ssd1306.c     ****         int8_t j = 0;
 850:ssd1306.c     ****         for( j = 0; j < 8 ; j++ ){
 851:ssd1306.c     ****             if( line & 0x1 ){
 852:ssd1306.c     ****                 if( size == 1 ) // default size
 853:ssd1306.c     ****                     gfx_drawPixel( x+i, y+j, color );
 854:ssd1306.c     ****                 else { // big size
 855:ssd1306.c     ****                     gfx_fillRect( x+(i*size), y+(j*size), size, size, color );
 856:ssd1306.c     ****                 }
 857:ssd1306.c     ****             } else if( bg != color ){
 858:ssd1306.c     ****                 if( size == 1 ) // default size
 859:ssd1306.c     ****                     gfx_drawPixel( x+i, y+j, bg );
 860:ssd1306.c     ****                 else { // big size
 861:ssd1306.c     ****                     gfx_fillRect( x+i*size, y+j*size, size, size, bg );
 862:ssd1306.c     ****                 }
 863:ssd1306.c     ****             }
 864:ssd1306.c     ****             line >>= 1;
 865:ssd1306.c     ****         }
 866:ssd1306.c     ****     }
 867:ssd1306.c     **** }
 868:ssd1306.c     **** /***********************************************************************
 869:ssd1306.c     **** *! \fn			void gfx_write( uint8_t ch )
 870:ssd1306.c     **** *  \brief		write character
 871:ssd1306.c     **** *  \param		uint8_t ch 
 872:ssd1306.c     **** *  \exception	none
 873:ssd1306.c     **** *  \return		none
 874:ssd1306.c     **** ***********************************************************************/
 875:ssd1306.c     **** void gfx_write( uint8_t ch ){
 876:ssd1306.c     ****     if( ch == '\n' ){
 877:ssd1306.c     ****         cursor_y += textsize*8;
 878:ssd1306.c     ****         cursor_x = 0;
 879:ssd1306.c     ****     }else if( ch == '\r' ){
 880:ssd1306.c     ****         // skip em
 881:ssd1306.c     ****     }else{
 882:ssd1306.c     ****         gfx_drawChar(cursor_x, cursor_y, ch, textcolor, textbgcolor, textsize);
 883:ssd1306.c     ****         cursor_x += textsize*6;
 884:ssd1306.c     ****         if( wrap && (cursor_x > (_width - textsize*6)) ){
 885:ssd1306.c     ****             cursor_y += textsize*8;
 886:ssd1306.c     ****             cursor_x = 0;
ARM GAS  C:\Users\Besitzer\AppData\Local\Temp\cczB0neC.s 			page 28


 887:ssd1306.c     ****         }
 888:ssd1306.c     ****     }
 889:ssd1306.c     **** }
 890:ssd1306.c     **** /***********************************************************************
 891:ssd1306.c     **** *! \fn			void gfx_print( const char* s )
 892:ssd1306.c     **** *  \brief		write text
 893:ssd1306.c     **** *  \param		const char* s - pointer to text
 894:ssd1306.c     **** *  \exception	none
 895:ssd1306.c     **** *  \return		none
 896:ssd1306.c     **** ***********************************************************************/
 897:ssd1306.c     **** void gfx_print( const char* s ){
 898:ssd1306.c     ****     
 899:ssd1306.c     ****     unsigned int len = strlen( s );
 900:ssd1306.c     ****     unsigned int i = 0; 
 901:ssd1306.c     ****     for( i = 0 ; i < len ; i++ ){
 902:ssd1306.c     ****         gfx_write( s[i] );
 903:ssd1306.c     ****     }
 904:ssd1306.c     **** }
 905:ssd1306.c     **** /***********************************************************************
 906:ssd1306.c     **** *! \fn			void gfx_println( const char* s )
 907:ssd1306.c     **** *  \brief		write text with new line
 908:ssd1306.c     **** *  \param		const char* s - pointer to text
 909:ssd1306.c     **** *  \exception	none
 910:ssd1306.c     **** *  \return		none
 911:ssd1306.c     **** ***********************************************************************/
 912:ssd1306.c     **** void gfx_println( const char* s ){ 
 913:ssd1306.c     ****     gfx_print( s ); 
 914:ssd1306.c     ****     gfx_write( '\n' );
 915:ssd1306.c     **** }
 916:ssd1306.c     **** //########################################### HAL #################################################
 917:ssd1306.c     **** 
 918:ssd1306.c     **** /***********************************************************************
 919:ssd1306.c     **** *! \fn			static uint32 display_write_buf( uint8_t* buf, uint16_t size )
 920:ssd1306.c     **** *  \brief		for submitting command sequences:
 921:ssd1306.c     **** *               buf[0] must be 0x00
 922:ssd1306.c     **** *               for submitting bulk data (writing to display RAM):
 923:ssd1306.c     **** *               buf[0] must be 0x40
 924:ssd1306.c     **** *  \param		uint8_t cmd - Command to send
 925:ssd1306.c     **** *  \exception	none
 926:ssd1306.c     **** *  \return		none
 927:ssd1306.c     **** ***********************************************************************/
 928:ssd1306.c     **** static uint32 display_write_buf( uint8_t* buf, uint16_t size ){
 651              		.loc 1 928 0
 652              		.cfi_startproc
 653              		@ args = 0, pretend = 0, frame = 0
 654              		@ frame_needed = 0, uses_anonymous_args = 0
 655              	.LVL62:
 656 0000 F8B5     		push	{r3, r4, r5, r6, r7, lr}
 657              		.cfi_def_cfa_offset 24
 658              		.cfi_offset 3, -24
 659              		.cfi_offset 4, -20
 660              		.cfi_offset 5, -16
 661              		.cfi_offset 6, -12
 662              		.cfi_offset 7, -8
 663              		.cfi_offset 14, -4
 664 0002 0546     		mov	r5, r0
 665 0004 0F46     		mov	r7, r1
ARM GAS  C:\Users\Besitzer\AppData\Local\Temp\cczB0neC.s 			page 29


 666              	.LVL63:
 929:ssd1306.c     **** 
 930:ssd1306.c     ****     uint32_t status = TRANSFER_ERROR;
 931:ssd1306.c     ****     uint8_t transmit_status;
 932:ssd1306.c     ****     uint16_t cnt = 0;
 933:ssd1306.c     ****     /*I2C_1_MasterWriteBuf(_i2caddr, buf, size, I2C_1_MODE_COMPLETE_XFER);
 934:ssd1306.c     ****     while( 0u == (I2C_1_MasterStatus() & I2C_1_MSTAT_WR_CMPLT) );
 935:ssd1306.c     **** 
 936:ssd1306.c     ****     if( 0u == (I2C_1_MSTAT_ERR_XFER & I2C_1_MasterStatus()) ){
 937:ssd1306.c     ****         // Check if all bytes was written 
 938:ssd1306.c     ****         if( I2C_1_MasterGetWriteBufSize() == size ){
 939:ssd1306.c     ****             status = TRANSFER_CMPLT;
 940:ssd1306.c     ****         }
 941:ssd1306.c     ****     }
 942:ssd1306.c     ****     I2C_1_MasterClearStatus();
 943:ssd1306.c     **** 
 944:ssd1306.c     ****     return status;*/
 945:ssd1306.c     ****     I2C_1_DisableInt();
 667              		.loc 1 945 0
 668 0006 4FF40042 		mov	r2, #32768
 669 000a 0E4B     		ldr	r3, .L72
 670 000c 1A60     		str	r2, [r3]
 946:ssd1306.c     ****     transmit_status = I2C_1_MasterSendStart(_i2caddr, I2C_1_WRITE_XFER_MODE);
 671              		.loc 1 946 0
 672 000e 0021     		movs	r1, #0
 673              	.LVL64:
 674 0010 0D4B     		ldr	r3, .L72+4
 675 0012 1878     		ldrb	r0, [r3]	@ zero_extendqisi2
 676              	.LVL65:
 677 0014 FFF7FEFF 		bl	I2C_1_MasterSendStart
 678              	.LVL66:
 947:ssd1306.c     ****     /* Check if start generation completed without errors */
 948:ssd1306.c     ****     if (I2C_1_MSTR_NO_ERROR == transmit_status){
 679              		.loc 1 948 0
 680 0018 48B1     		cbz	r0, .L70
 681 001a 0DE0     		b	.L67
 682              	.LVL67:
 683              	.L69:
 949:ssd1306.c     ****         for(cnt = 0; cnt < size; cnt++){
 950:ssd1306.c     ****             transmit_status = I2C_1_MasterWriteByte(*buf++);
 684              		.loc 1 950 0
 685 001c 6E1C     		adds	r6, r5, #1
 686              	.LVL68:
 687 001e 2878     		ldrb	r0, [r5]	@ zero_extendqisi2
 688              	.LVL69:
 689 0020 FFF7FEFF 		bl	I2C_1_MasterWriteByte
 690              	.LVL70:
 951:ssd1306.c     ****             if (transmit_status != I2C_1_MSTR_NO_ERROR){
 691              		.loc 1 951 0
 692 0024 30B9     		cbnz	r0, .L68
 949:ssd1306.c     ****         for(cnt = 0; cnt < size; cnt++){
 693              		.loc 1 949 0 discriminator 2
 694 0026 0134     		adds	r4, r4, #1
 695              	.LVL71:
 696 0028 A4B2     		uxth	r4, r4
 697              	.LVL72:
 950:ssd1306.c     ****             if (transmit_status != I2C_1_MSTR_NO_ERROR){
ARM GAS  C:\Users\Besitzer\AppData\Local\Temp\cczB0neC.s 			page 30


 698              		.loc 1 950 0 discriminator 2
 699 002a 3546     		mov	r5, r6
 700 002c 00E0     		b	.L66
 701              	.LVL73:
 702              	.L70:
 703 002e 0024     		movs	r4, #0
 704              	.LVL74:
 705              	.L66:
 949:ssd1306.c     ****         for(cnt = 0; cnt < size; cnt++){
 706              		.loc 1 949 0 discriminator 1
 707 0030 BC42     		cmp	r4, r7
 708 0032 F3D3     		bcc	.L69
 709              	.LVL75:
 710              	.L68:
 952:ssd1306.c     ****                 break;
 953:ssd1306.c     ****             }
 954:ssd1306.c     ****         }
 955:ssd1306.c     ****         I2C_1_MasterSendStop(); /* Send Stop */
 711              		.loc 1 955 0
 712 0034 FFF7FEFF 		bl	I2C_1_MasterSendStop
 713              	.LVL76:
 714              	.L67:
 956:ssd1306.c     ****     }
 957:ssd1306.c     ****     I2C_1_EnableInt(); /* Enable interrupt, if it was enabled before */
 715              		.loc 1 957 0
 716 0038 4FF40042 		mov	r2, #32768
 717 003c 034B     		ldr	r3, .L72+8
 718 003e 1A60     		str	r2, [r3]
 719              	.LVL77:
 958:ssd1306.c     **** 
 959:ssd1306.c     ****     status = TRANSFER_CMPLT;
 960:ssd1306.c     ****     return status;
 961:ssd1306.c     ****     
 962:ssd1306.c     **** }
 720              		.loc 1 962 0
 721 0040 0020     		movs	r0, #0
 722 0042 F8BD     		pop	{r3, r4, r5, r6, r7, pc}
 723              	.L73:
 724              		.align	2
 725              	.L72:
 726 0044 80E100E0 		.word	-536813184
 727 0048 00000000 		.word	.LANCHOR1
 728 004c 00E100E0 		.word	-536813312
 729              		.cfi_endproc
 730              	.LFE33:
 731              		.size	display_write_buf, .-display_write_buf
 732              		.section	.text.SSD1306_SetColStartAddr,"ax",%progbits
 733              		.align	2
 734              		.thumb
 735              		.thumb_func
 736              		.type	SSD1306_SetColStartAddr, %function
 737              	SSD1306_SetColStartAddr:
 738              	.LFB7:
 328:ssd1306.c     **** 	
 739              		.loc 1 328 0
 740              		.cfi_startproc
 741              		@ args = 0, pretend = 0, frame = 8
ARM GAS  C:\Users\Besitzer\AppData\Local\Temp\cczB0neC.s 			page 31


 742              		@ frame_needed = 0, uses_anonymous_args = 0
 743              	.LVL78:
 331:ssd1306.c     **** 		return;
 744              		.loc 1 331 0
 745 0000 10F0800F 		tst	r0, #128
 746 0004 14D1     		bne	.L78
 328:ssd1306.c     **** 	
 747              		.loc 1 328 0
 748 0006 00B5     		push	{lr}
 749              		.cfi_def_cfa_offset 4
 750              		.cfi_offset 14, -4
 751 0008 83B0     		sub	sp, sp, #12
 752              		.cfi_def_cfa_offset 16
 334:ssd1306.c     ****         0x00,
 753              		.loc 1 334 0
 754 000a 0023     		movs	r3, #0
 755 000c 8DF80430 		strb	r3, [sp, #4]
 756 0010 0309     		lsrs	r3, r0, #4
 757 0012 43F01003 		orr	r3, r3, #16
 758 0016 8DF80530 		strb	r3, [sp, #5]
 759 001a 00F00F00 		and	r0, r0, #15
 760              	.LVL79:
 761 001e 8DF80600 		strb	r0, [sp, #6]
 339:ssd1306.c     **** }
 762              		.loc 1 339 0
 763 0022 0321     		movs	r1, #3
 764 0024 01A8     		add	r0, sp, #4
 765 0026 FFF7FEFF 		bl	display_write_buf
 766              	.LVL80:
 340:ssd1306.c     **** /***********************************************************************
 767              		.loc 1 340 0
 768 002a 03B0     		add	sp, sp, #12
 769              		.cfi_def_cfa_offset 4
 770              		@ sp needed
 771 002c 5DF804FB 		ldr	pc, [sp], #4
 772              	.LVL81:
 773              	.L78:
 774              		.cfi_def_cfa_offset 0
 775              		.cfi_restore 14
 776 0030 7047     		bx	lr
 777              		.cfi_endproc
 778              	.LFE7:
 779              		.size	SSD1306_SetColStartAddr, .-SSD1306_SetColStartAddr
 780 0032 00BF     		.section	.text.display_clear,"ax",%progbits
 781              		.align	2
 782              		.global	display_clear
 783              		.thumb
 784              		.thumb_func
 785              		.type	display_clear, %function
 786              	display_clear:
 787              	.LFB2:
 252:ssd1306.c     ****     memset( _displaybuf, 0, _displaybuf_size );
 788              		.loc 1 252 0
 789              		.cfi_startproc
 790              		@ args = 0, pretend = 0, frame = 0
 791              		@ frame_needed = 0, uses_anonymous_args = 0
 792 0000 10B5     		push	{r4, lr}
ARM GAS  C:\Users\Besitzer\AppData\Local\Temp\cczB0neC.s 			page 32


 793              		.cfi_def_cfa_offset 8
 794              		.cfi_offset 4, -8
 795              		.cfi_offset 14, -4
 253:ssd1306.c     ****     SSD1306_buffer[0] = 0x40; // to be sure its there
 796              		.loc 1 253 0
 797 0002 054C     		ldr	r4, .L81
 798 0004 4FF48062 		mov	r2, #1024
 799 0008 0021     		movs	r1, #0
 800 000a 601C     		adds	r0, r4, #1
 801 000c FFF7FEFF 		bl	memset
 802              	.LVL82:
 254:ssd1306.c     **** }
 803              		.loc 1 254 0
 804 0010 4023     		movs	r3, #64
 805 0012 2370     		strb	r3, [r4]
 806 0014 10BD     		pop	{r4, pc}
 807              	.L82:
 808 0016 00BF     		.align	2
 809              	.L81:
 810 0018 00000000 		.word	.LANCHOR0
 811              		.cfi_endproc
 812              	.LFE2:
 813              		.size	display_clear, .-display_clear
 814              		.section	.text.display_contrast,"ax",%progbits
 815              		.align	2
 816              		.global	display_contrast
 817              		.thumb
 818              		.thumb_func
 819              		.type	display_contrast, %function
 820              	display_contrast:
 821              	.LFB3:
 263:ssd1306.c     ****         
 822              		.loc 1 263 0
 823              		.cfi_startproc
 824              		@ args = 0, pretend = 0, frame = 8
 825              		@ frame_needed = 0, uses_anonymous_args = 0
 826              	.LVL83:
 827 0000 00B5     		push	{lr}
 828              		.cfi_def_cfa_offset 4
 829              		.cfi_offset 14, -4
 830 0002 83B0     		sub	sp, sp, #12
 831              		.cfi_def_cfa_offset 16
 265:ssd1306.c     ****         0x00,  
 832              		.loc 1 265 0
 833 0004 0023     		movs	r3, #0
 834 0006 8DF80430 		strb	r3, [sp, #4]
 835 000a 8123     		movs	r3, #129
 836 000c 8DF80530 		strb	r3, [sp, #5]
 837 0010 8DF80600 		strb	r0, [sp, #6]
 270:ssd1306.c     **** }
 838              		.loc 1 270 0
 839 0014 0321     		movs	r1, #3
 840 0016 01A8     		add	r0, sp, #4
 841              	.LVL84:
 842 0018 FFF7FEFF 		bl	display_write_buf
 843              	.LVL85:
 271:ssd1306.c     **** /***********************************************************************
ARM GAS  C:\Users\Besitzer\AppData\Local\Temp\cczB0neC.s 			page 33


 844              		.loc 1 271 0
 845 001c 03B0     		add	sp, sp, #12
 846              		.cfi_def_cfa_offset 4
 847              		@ sp needed
 848 001e 5DF804FB 		ldr	pc, [sp], #4
 849              		.cfi_endproc
 850              	.LFE3:
 851              		.size	display_contrast, .-display_contrast
 852 0022 00BF     		.section	.text.display_invert,"ax",%progbits
 853              		.align	2
 854              		.global	display_invert
 855              		.thumb
 856              		.thumb_func
 857              		.type	display_invert, %function
 858              	display_invert:
 859              	.LFB4:
 279:ssd1306.c     **** 
 860              		.loc 1 279 0
 861              		.cfi_startproc
 862              		@ args = 0, pretend = 0, frame = 8
 863              		@ frame_needed = 0, uses_anonymous_args = 0
 864              	.LVL86:
 865 0000 00B5     		push	{lr}
 866              		.cfi_def_cfa_offset 4
 867              		.cfi_offset 14, -4
 868 0002 83B0     		sub	sp, sp, #12
 869              		.cfi_def_cfa_offset 16
 281:ssd1306.c     ****         0x00,  
 870              		.loc 1 281 0
 871 0004 0023     		movs	r3, #0
 872 0006 8DF80430 		strb	r3, [sp, #4]
 285:ssd1306.c     ****     display_write_buf( cmdbuf, sizeof(cmdbuf) ); 
 873              		.loc 1 285 0
 874 000a 08B1     		cbz	r0, .L87
 875 000c A723     		movs	r3, #167
 876 000e 00E0     		b	.L86
 877              	.L87:
 878 0010 A623     		movs	r3, #166
 879              	.L86:
 285:ssd1306.c     ****     display_write_buf( cmdbuf, sizeof(cmdbuf) ); 
 880              		.loc 1 285 0 is_stmt 0 discriminator 4
 881 0012 8DF80530 		strb	r3, [sp, #5]
 286:ssd1306.c     **** }
 882              		.loc 1 286 0 is_stmt 1 discriminator 4
 883 0016 0221     		movs	r1, #2
 884 0018 01A8     		add	r0, sp, #4
 885              	.LVL87:
 886 001a FFF7FEFF 		bl	display_write_buf
 887              	.LVL88:
 287:ssd1306.c     **** /***********************************************************************
 888              		.loc 1 287 0 discriminator 4
 889 001e 03B0     		add	sp, sp, #12
 890              		.cfi_def_cfa_offset 4
 891              		@ sp needed
 892 0020 5DF804FB 		ldr	pc, [sp], #4
 893              		.cfi_endproc
 894              	.LFE4:
ARM GAS  C:\Users\Besitzer\AppData\Local\Temp\cczB0neC.s 			page 34


 895              		.size	display_invert, .-display_invert
 896              		.section	.text.SSD1306_SetPageStartAddr,"ax",%progbits
 897              		.align	2
 898              		.global	SSD1306_SetPageStartAddr
 899              		.thumb
 900              		.thumb_func
 901              		.type	SSD1306_SetPageStartAddr, %function
 902              	SSD1306_SetPageStartAddr:
 903              	.LFB6:
 309:ssd1306.c     **** 	
 904              		.loc 1 309 0
 905              		.cfi_startproc
 906              		@ args = 0, pretend = 0, frame = 8
 907              		@ frame_needed = 0, uses_anonymous_args = 0
 908              	.LVL89:
 312:ssd1306.c     **** 		return;
 909              		.loc 1 312 0
 910 0000 0728     		cmp	r0, #7
 911 0002 0FD8     		bhi	.L93
 309:ssd1306.c     **** 	
 912              		.loc 1 309 0
 913 0004 00B5     		push	{lr}
 914              		.cfi_def_cfa_offset 4
 915              		.cfi_offset 14, -4
 916 0006 83B0     		sub	sp, sp, #12
 917              		.cfi_def_cfa_offset 16
 315:ssd1306.c     ****         0x00,
 918              		.loc 1 315 0
 919 0008 0023     		movs	r3, #0
 920 000a 8DF80430 		strb	r3, [sp, #4]
 921 000e 60F04F00 		orn	r0, r0, #79
 922              	.LVL90:
 923 0012 8DF80500 		strb	r0, [sp, #5]
 319:ssd1306.c     **** }
 924              		.loc 1 319 0
 925 0016 0221     		movs	r1, #2
 926 0018 01A8     		add	r0, sp, #4
 927 001a FFF7FEFF 		bl	display_write_buf
 928              	.LVL91:
 320:ssd1306.c     **** /***********************************************************************
 929              		.loc 1 320 0
 930 001e 03B0     		add	sp, sp, #12
 931              		.cfi_def_cfa_offset 4
 932              		@ sp needed
 933 0020 5DF804FB 		ldr	pc, [sp], #4
 934              	.LVL92:
 935              	.L93:
 936              		.cfi_def_cfa_offset 0
 937              		.cfi_restore 14
 938 0024 7047     		bx	lr
 939              		.cfi_endproc
 940              	.LFE6:
 941              		.size	SSD1306_SetPageStartAddr, .-SSD1306_SetPageStartAddr
 942 0026 00BF     		.section	.text.display_update,"ax",%progbits
 943              		.align	2
 944              		.global	display_update
 945              		.thumb
ARM GAS  C:\Users\Besitzer\AppData\Local\Temp\cczB0neC.s 			page 35


 946              		.thumb_func
 947              		.type	display_update, %function
 948              	display_update:
 949              	.LFB5:
 295:ssd1306.c     ****       
 950              		.loc 1 295 0
 951              		.cfi_startproc
 952              		@ args = 0, pretend = 0, frame = 0
 953              		@ frame_needed = 0, uses_anonymous_args = 0
 954 0000 08B5     		push	{r3, lr}
 955              		.cfi_def_cfa_offset 8
 956              		.cfi_offset 3, -8
 957              		.cfi_offset 14, -4
 298:ssd1306.c     **** 	SSD1306_SetColStartAddr(0);
 958              		.loc 1 298 0
 959 0002 0020     		movs	r0, #0
 960 0004 FFF7FEFF 		bl	SSD1306_SetPageStartAddr
 961              	.LVL93:
 299:ssd1306.c     ****     display_write_buf( SSD1306_buffer, sizeof(SSD1306_buffer) );
 962              		.loc 1 299 0
 963 0008 0020     		movs	r0, #0
 964 000a FFF7FEFF 		bl	SSD1306_SetColStartAddr
 965              	.LVL94:
 300:ssd1306.c     **** }
 966              		.loc 1 300 0
 967 000e 40F20141 		movw	r1, #1025
 968 0012 0248     		ldr	r0, .L96
 969 0014 FFF7FEFF 		bl	display_write_buf
 970              	.LVL95:
 971 0018 08BD     		pop	{r3, pc}
 972              	.L97:
 973 001a 00BF     		.align	2
 974              	.L96:
 975 001c 00000000 		.word	.LANCHOR0
 976              		.cfi_endproc
 977              	.LFE5:
 978              		.size	display_update, .-display_update
 979              		.section	.text.display_stopscroll,"ax",%progbits
 980              		.align	2
 981              		.global	display_stopscroll
 982              		.thumb
 983              		.thumb_func
 984              		.type	display_stopscroll, %function
 985              	display_stopscroll:
 986              	.LFB9:
 419:ssd1306.c     **** 
 987              		.loc 1 419 0
 988              		.cfi_startproc
 989              		@ args = 0, pretend = 0, frame = 8
 990              		@ frame_needed = 0, uses_anonymous_args = 0
 991 0000 00B5     		push	{lr}
 992              		.cfi_def_cfa_offset 4
 993              		.cfi_offset 14, -4
 994 0002 83B0     		sub	sp, sp, #12
 995              		.cfi_def_cfa_offset 16
 421:ssd1306.c     ****         0x00,
 996              		.loc 1 421 0
ARM GAS  C:\Users\Besitzer\AppData\Local\Temp\cczB0neC.s 			page 36


 997 0004 0023     		movs	r3, #0
 998 0006 8DF80430 		strb	r3, [sp, #4]
 999 000a 2E23     		movs	r3, #46
 1000 000c 8DF80530 		strb	r3, [sp, #5]
 425:ssd1306.c     **** }
 1001              		.loc 1 425 0
 1002 0010 0221     		movs	r1, #2
 1003 0012 01A8     		add	r0, sp, #4
 1004 0014 FFF7FEFF 		bl	display_write_buf
 1005              	.LVL96:
 426:ssd1306.c     **** /***********************************************************************
 1006              		.loc 1 426 0
 1007 0018 03B0     		add	sp, sp, #12
 1008              		.cfi_def_cfa_offset 4
 1009              		@ sp needed
 1010 001a 5DF804FB 		ldr	pc, [sp], #4
 1011              		.cfi_endproc
 1012              	.LFE9:
 1013              		.size	display_stopscroll, .-display_stopscroll
 1014 001e 00BF     		.section	.text.display_scroll,"ax",%progbits
 1015              		.align	2
 1016              		.global	display_scroll
 1017              		.thumb
 1018              		.thumb_func
 1019              		.type	display_scroll, %function
 1020              	display_scroll:
 1021              	.LFB10:
 437:ssd1306.c     ****    
 1022              		.loc 1 437 0
 1023              		.cfi_startproc
 1024              		@ args = 0, pretend = 0, frame = 16
 1025              		@ frame_needed = 0, uses_anonymous_args = 0
 1026              	.LVL97:
 1027 0000 10B5     		push	{r4, lr}
 1028              		.cfi_def_cfa_offset 8
 1029              		.cfi_offset 4, -8
 1030              		.cfi_offset 14, -4
 1031 0002 84B0     		sub	sp, sp, #16
 1032              		.cfi_def_cfa_offset 24
 439:ssd1306.c     ****         0x00,
 1033              		.loc 1 439 0
 1034 0004 0024     		movs	r4, #0
 1035 0006 8DF80440 		strb	r4, [sp, #4]
 1036 000a 8DF80520 		strb	r2, [sp, #5]
 1037 000e 8DF80640 		strb	r4, [sp, #6]
 1038 0012 8DF80700 		strb	r0, [sp, #7]
 1039 0016 8DF80830 		strb	r3, [sp, #8]
 1040 001a 8DF80910 		strb	r1, [sp, #9]
 1041 001e 8DF80A40 		strb	r4, [sp, #10]
 1042 0022 FF23     		movs	r3, #255
 1043              	.LVL98:
 1044 0024 8DF80B30 		strb	r3, [sp, #11]
 1045 0028 2F23     		movs	r3, #47
 1046 002a 8DF80C30 		strb	r3, [sp, #12]
 450:ssd1306.c     **** }
 1047              		.loc 1 450 0
 1048 002e 0921     		movs	r1, #9
ARM GAS  C:\Users\Besitzer\AppData\Local\Temp\cczB0neC.s 			page 37


 1049              	.LVL99:
 1050 0030 01A8     		add	r0, sp, #4
 1051              	.LVL100:
 1052 0032 FFF7FEFF 		bl	display_write_buf
 1053              	.LVL101:
 451:ssd1306.c     **** //########################################### Graphic #############################################
 1054              		.loc 1 451 0
 1055 0036 04B0     		add	sp, sp, #16
 1056              		.cfi_def_cfa_offset 8
 1057              		@ sp needed
 1058 0038 10BD     		pop	{r4, pc}
 1059              		.cfi_endproc
 1060              	.LFE10:
 1061              		.size	display_scroll, .-display_scroll
 1062 003a 00BF     		.section	.text.gfx_init,"ax",%progbits
 1063              		.align	2
 1064              		.global	gfx_init
 1065              		.thumb
 1066              		.thumb_func
 1067              		.type	gfx_init, %function
 1068              	gfx_init:
 1069              	.LFB11:
 461:ssd1306.c     ****     WIDTH = width;
 1070              		.loc 1 461 0
 1071              		.cfi_startproc
 1072              		@ args = 0, pretend = 0, frame = 0
 1073              		@ frame_needed = 0, uses_anonymous_args = 0
 1074              		@ link register save eliminated.
 1075              	.LVL102:
 462:ssd1306.c     ****     HEIGHT = height;
 1076              		.loc 1 462 0
 1077 0000 0A4B     		ldr	r3, .L103
 1078 0002 1880     		strh	r0, [r3]	@ movhi
 463:ssd1306.c     ****     _width = WIDTH;
 1079              		.loc 1 463 0
 1080 0004 0A4B     		ldr	r3, .L103+4
 1081 0006 1980     		strh	r1, [r3]	@ movhi
 464:ssd1306.c     ****     _height = HEIGHT;
 1082              		.loc 1 464 0
 1083 0008 0A4B     		ldr	r3, .L103+8
 1084 000a 5880     		strh	r0, [r3, #2]	@ movhi
 465:ssd1306.c     ****     
 1085              		.loc 1 465 0
 1086 000c 9980     		strh	r1, [r3, #4]	@ movhi
 467:ssd1306.c     ****     cursor_y = cursor_x = 0;
 1087              		.loc 1 467 0
 1088 000e 0022     		movs	r2, #0
 1089 0010 0949     		ldr	r1, .L103+12
 1090              	.LVL103:
 1091 0012 0A70     		strb	r2, [r1]
 468:ssd1306.c     ****     textsize = 1;
 1092              		.loc 1 468 0
 1093 0014 DA80     		strh	r2, [r3, #6]	@ movhi
 1094 0016 1A81     		strh	r2, [r3, #8]	@ movhi
 469:ssd1306.c     ****     textcolor = textbgcolor = 0xFFFF;
 1095              		.loc 1 469 0
 1096 0018 0122     		movs	r2, #1
ARM GAS  C:\Users\Besitzer\AppData\Local\Temp\cczB0neC.s 			page 38


 1097 001a 9A72     		strb	r2, [r3, #10]
 470:ssd1306.c     ****     wrap = 1;
 1098              		.loc 1 470 0
 1099 001c 4FF6FF71 		movw	r1, #65535
 1100 0020 9981     		strh	r1, [r3, #12]	@ movhi
 1101 0022 D981     		strh	r1, [r3, #14]	@ movhi
 471:ssd1306.c     **** }
 1102              		.loc 1 471 0
 1103 0024 054B     		ldr	r3, .L103+16
 1104 0026 1A70     		strb	r2, [r3]
 1105 0028 7047     		bx	lr
 1106              	.L104:
 1107 002a 00BF     		.align	2
 1108              	.L103:
 1109 002c 00000000 		.word	WIDTH
 1110 0030 00000000 		.word	HEIGHT
 1111 0034 00000000 		.word	.LANCHOR1
 1112 0038 00000000 		.word	rotation
 1113 003c 00000000 		.word	wrap
 1114              		.cfi_endproc
 1115              	.LFE11:
 1116              		.size	gfx_init, .-gfx_init
 1117              		.section	.text.gfx_width,"ax",%progbits
 1118              		.align	2
 1119              		.global	gfx_width
 1120              		.thumb
 1121              		.thumb_func
 1122              		.type	gfx_width, %function
 1123              	gfx_width:
 1124              	.LFB12:
 481:ssd1306.c     ****     return _width;
 1125              		.loc 1 481 0
 1126              		.cfi_startproc
 1127              		@ args = 0, pretend = 0, frame = 0
 1128              		@ frame_needed = 0, uses_anonymous_args = 0
 1129              		@ link register save eliminated.
 483:ssd1306.c     **** /***********************************************************************
 1130              		.loc 1 483 0
 1131 0000 014B     		ldr	r3, .L106
 1132 0002 B3F90200 		ldrsh	r0, [r3, #2]
 1133 0006 7047     		bx	lr
 1134              	.L107:
 1135              		.align	2
 1136              	.L106:
 1137 0008 00000000 		.word	.LANCHOR1
 1138              		.cfi_endproc
 1139              	.LFE12:
 1140              		.size	gfx_width, .-gfx_width
 1141              		.section	.text.gfx_height,"ax",%progbits
 1142              		.align	2
 1143              		.global	gfx_height
 1144              		.thumb
 1145              		.thumb_func
 1146              		.type	gfx_height, %function
 1147              	gfx_height:
 1148              	.LFB13:
 491:ssd1306.c     ****     return _height;
ARM GAS  C:\Users\Besitzer\AppData\Local\Temp\cczB0neC.s 			page 39


 1149              		.loc 1 491 0
 1150              		.cfi_startproc
 1151              		@ args = 0, pretend = 0, frame = 0
 1152              		@ frame_needed = 0, uses_anonymous_args = 0
 1153              		@ link register save eliminated.
 493:ssd1306.c     **** /***********************************************************************
 1154              		.loc 1 493 0
 1155 0000 014B     		ldr	r3, .L109
 1156 0002 B3F90400 		ldrsh	r0, [r3, #4]
 1157 0006 7047     		bx	lr
 1158              	.L110:
 1159              		.align	2
 1160              	.L109:
 1161 0008 00000000 		.word	.LANCHOR1
 1162              		.cfi_endproc
 1163              	.LFE13:
 1164              		.size	gfx_height, .-gfx_height
 1165              		.section	.text.gfx_rotation,"ax",%progbits
 1166              		.align	2
 1167              		.global	gfx_rotation
 1168              		.thumb
 1169              		.thumb_func
 1170              		.type	gfx_rotation, %function
 1171              	gfx_rotation:
 1172              	.LFB14:
 501:ssd1306.c     ****     return rotation;
 1173              		.loc 1 501 0
 1174              		.cfi_startproc
 1175              		@ args = 0, pretend = 0, frame = 0
 1176              		@ frame_needed = 0, uses_anonymous_args = 0
 1177              		@ link register save eliminated.
 503:ssd1306.c     **** /***********************************************************************
 1178              		.loc 1 503 0
 1179 0000 014B     		ldr	r3, .L112
 1180 0002 1878     		ldrb	r0, [r3]	@ zero_extendqisi2
 1181 0004 7047     		bx	lr
 1182              	.L113:
 1183 0006 00BF     		.align	2
 1184              	.L112:
 1185 0008 00000000 		.word	rotation
 1186              		.cfi_endproc
 1187              	.LFE14:
 1188              		.size	gfx_rotation, .-gfx_rotation
 1189              		.section	.text.gfx_setCursor,"ax",%progbits
 1190              		.align	2
 1191              		.global	gfx_setCursor
 1192              		.thumb
 1193              		.thumb_func
 1194              		.type	gfx_setCursor, %function
 1195              	gfx_setCursor:
 1196              	.LFB15:
 512:ssd1306.c     ****     cursor_x = x;
 1197              		.loc 1 512 0
 1198              		.cfi_startproc
 1199              		@ args = 0, pretend = 0, frame = 0
 1200              		@ frame_needed = 0, uses_anonymous_args = 0
 1201              		@ link register save eliminated.
ARM GAS  C:\Users\Besitzer\AppData\Local\Temp\cczB0neC.s 			page 40


 1202              	.LVL104:
 513:ssd1306.c     ****     cursor_y = y;
 1203              		.loc 1 513 0
 1204 0000 014B     		ldr	r3, .L115
 1205 0002 D880     		strh	r0, [r3, #6]	@ movhi
 514:ssd1306.c     **** }
 1206              		.loc 1 514 0
 1207 0004 1981     		strh	r1, [r3, #8]	@ movhi
 1208 0006 7047     		bx	lr
 1209              	.L116:
 1210              		.align	2
 1211              	.L115:
 1212 0008 00000000 		.word	.LANCHOR1
 1213              		.cfi_endproc
 1214              	.LFE15:
 1215              		.size	gfx_setCursor, .-gfx_setCursor
 1216              		.section	.text.gfx_setTextSize,"ax",%progbits
 1217              		.align	2
 1218              		.global	gfx_setTextSize
 1219              		.thumb
 1220              		.thumb_func
 1221              		.type	gfx_setTextSize, %function
 1222              	gfx_setTextSize:
 1223              	.LFB16:
 523:ssd1306.c     ****     textsize = (size > 0) ? size : 1;
 1224              		.loc 1 523 0
 1225              		.cfi_startproc
 1226              		@ args = 0, pretend = 0, frame = 0
 1227              		@ frame_needed = 0, uses_anonymous_args = 0
 1228              		@ link register save eliminated.
 1229              	.LVL105:
 524:ssd1306.c     **** }
 1230              		.loc 1 524 0
 1231 0000 08B9     		cbnz	r0, .L119
 1232 0002 0120     		movs	r0, #1
 1233              	.LVL106:
 1234 0004 FFE7     		b	.L118
 1235              	.LVL107:
 1236              	.L119:
 1237              	.L118:
 524:ssd1306.c     **** }
 1238              		.loc 1 524 0 is_stmt 0 discriminator 4
 1239 0006 014B     		ldr	r3, .L120
 1240 0008 9872     		strb	r0, [r3, #10]
 1241 000a 7047     		bx	lr
 1242              	.L121:
 1243              		.align	2
 1244              	.L120:
 1245 000c 00000000 		.word	.LANCHOR1
 1246              		.cfi_endproc
 1247              	.LFE16:
 1248              		.size	gfx_setTextSize, .-gfx_setTextSize
 1249              		.section	.text.gfx_setTextColor,"ax",%progbits
 1250              		.align	2
 1251              		.global	gfx_setTextColor
 1252              		.thumb
 1253              		.thumb_func
ARM GAS  C:\Users\Besitzer\AppData\Local\Temp\cczB0neC.s 			page 41


 1254              		.type	gfx_setTextColor, %function
 1255              	gfx_setTextColor:
 1256              	.LFB17:
 534:ssd1306.c     ****     textcolor = textbgcolor = color;
 1257              		.loc 1 534 0 is_stmt 1
 1258              		.cfi_startproc
 1259              		@ args = 0, pretend = 0, frame = 0
 1260              		@ frame_needed = 0, uses_anonymous_args = 0
 1261              		@ link register save eliminated.
 1262              	.LVL108:
 535:ssd1306.c     **** }
 1263              		.loc 1 535 0
 1264 0000 014B     		ldr	r3, .L123
 1265 0002 9881     		strh	r0, [r3, #12]	@ movhi
 1266 0004 D881     		strh	r0, [r3, #14]	@ movhi
 1267 0006 7047     		bx	lr
 1268              	.L124:
 1269              		.align	2
 1270              	.L123:
 1271 0008 00000000 		.word	.LANCHOR1
 1272              		.cfi_endproc
 1273              	.LFE17:
 1274              		.size	gfx_setTextColor, .-gfx_setTextColor
 1275              		.section	.text.gfx_setTextBg,"ax",%progbits
 1276              		.align	2
 1277              		.global	gfx_setTextBg
 1278              		.thumb
 1279              		.thumb_func
 1280              		.type	gfx_setTextBg, %function
 1281              	gfx_setTextBg:
 1282              	.LFB18:
 545:ssd1306.c     ****     textbgcolor = color;
 1283              		.loc 1 545 0
 1284              		.cfi_startproc
 1285              		@ args = 0, pretend = 0, frame = 0
 1286              		@ frame_needed = 0, uses_anonymous_args = 0
 1287              		@ link register save eliminated.
 1288              	.LVL109:
 546:ssd1306.c     **** }
 1289              		.loc 1 546 0
 1290 0000 014B     		ldr	r3, .L126
 1291 0002 9881     		strh	r0, [r3, #12]	@ movhi
 1292 0004 7047     		bx	lr
 1293              	.L127:
 1294 0006 00BF     		.align	2
 1295              	.L126:
 1296 0008 00000000 		.word	.LANCHOR1
 1297              		.cfi_endproc
 1298              	.LFE18:
 1299              		.size	gfx_setTextBg, .-gfx_setTextBg
 1300              		.section	.text.gfx_setTextWrap,"ax",%progbits
 1301              		.align	2
 1302              		.global	gfx_setTextWrap
 1303              		.thumb
 1304              		.thumb_func
 1305              		.type	gfx_setTextWrap, %function
 1306              	gfx_setTextWrap:
ARM GAS  C:\Users\Besitzer\AppData\Local\Temp\cczB0neC.s 			page 42


 1307              	.LFB19:
 556:ssd1306.c     ****     wrap = w;
 1308              		.loc 1 556 0
 1309              		.cfi_startproc
 1310              		@ args = 0, pretend = 0, frame = 0
 1311              		@ frame_needed = 0, uses_anonymous_args = 0
 1312              		@ link register save eliminated.
 1313              	.LVL110:
 557:ssd1306.c     **** }
 1314              		.loc 1 557 0
 1315 0000 014B     		ldr	r3, .L129
 1316 0002 1870     		strb	r0, [r3]
 1317 0004 7047     		bx	lr
 1318              	.L130:
 1319 0006 00BF     		.align	2
 1320              	.L129:
 1321 0008 00000000 		.word	wrap
 1322              		.cfi_endproc
 1323              	.LFE19:
 1324              		.size	gfx_setTextWrap, .-gfx_setTextWrap
 1325              		.section	.text.gfx_setRotation,"ax",%progbits
 1326              		.align	2
 1327              		.global	gfx_setRotation
 1328              		.thumb
 1329              		.thumb_func
 1330              		.type	gfx_setRotation, %function
 1331              	gfx_setRotation:
 1332              	.LFB20:
 566:ssd1306.c     ****     
 1333              		.loc 1 566 0
 1334              		.cfi_startproc
 1335              		@ args = 0, pretend = 0, frame = 0
 1336              		@ frame_needed = 0, uses_anonymous_args = 0
 1337              		@ link register save eliminated.
 1338              	.LVL111:
 568:ssd1306.c     ****     switch( rotation ){
 1339              		.loc 1 568 0
 1340 0000 00F00300 		and	r0, r0, #3
 1341              	.LVL112:
 1342 0004 0B4B     		ldr	r3, .L136
 1343 0006 1870     		strb	r0, [r3]
 569:ssd1306.c     ****         case 0:
 1344              		.loc 1 569 0
 1345 0008 0328     		cmp	r0, #3
 1346 000a 12D8     		bhi	.L131
 1347 000c DFE800F0 		tbb	[pc, r0]
 1348              	.L134:
 1349 0010 02       		.byte	(.L133-.L134)/2
 1350 0011 0A       		.byte	(.L135-.L134)/2
 1351 0012 02       		.byte	(.L133-.L134)/2
 1352 0013 0A       		.byte	(.L135-.L134)/2
 1353              		.p2align 1
 1354              	.L133:
 572:ssd1306.c     ****             _height = HEIGHT;
 1355              		.loc 1 572 0
 1356 0014 084B     		ldr	r3, .L136+4
 1357 0016 094A     		ldr	r2, .L136+8
ARM GAS  C:\Users\Besitzer\AppData\Local\Temp\cczB0neC.s 			page 43


 1358 0018 1288     		ldrh	r2, [r2]
 1359 001a 5A80     		strh	r2, [r3, #2]	@ movhi
 573:ssd1306.c     ****             break;
 1360              		.loc 1 573 0
 1361 001c 084A     		ldr	r2, .L136+12
 1362 001e 1288     		ldrh	r2, [r2]
 1363 0020 9A80     		strh	r2, [r3, #4]	@ movhi
 574:ssd1306.c     ****         case 1:
 1364              		.loc 1 574 0
 1365 0022 7047     		bx	lr
 1366              	.L135:
 577:ssd1306.c     ****             _height = WIDTH;
 1367              		.loc 1 577 0
 1368 0024 044B     		ldr	r3, .L136+4
 1369 0026 064A     		ldr	r2, .L136+12
 1370 0028 1288     		ldrh	r2, [r2]
 1371 002a 5A80     		strh	r2, [r3, #2]	@ movhi
 578:ssd1306.c     ****         break;
 1372              		.loc 1 578 0
 1373 002c 034A     		ldr	r2, .L136+8
 1374 002e 1288     		ldrh	r2, [r2]
 1375 0030 9A80     		strh	r2, [r3, #4]	@ movhi
 1376              	.L131:
 1377 0032 7047     		bx	lr
 1378              	.L137:
 1379              		.align	2
 1380              	.L136:
 1381 0034 00000000 		.word	rotation
 1382 0038 00000000 		.word	.LANCHOR1
 1383 003c 00000000 		.word	WIDTH
 1384 0040 00000000 		.word	HEIGHT
 1385              		.cfi_endproc
 1386              	.LFE20:
 1387              		.size	gfx_setRotation, .-gfx_setRotation
 1388              		.section	.text.gfx_drawPixel,"ax",%progbits
 1389              		.align	2
 1390              		.global	gfx_drawPixel
 1391              		.thumb
 1392              		.thumb_func
 1393              		.type	gfx_drawPixel, %function
 1394              	gfx_drawPixel:
 1395              	.LFB22:
 618:ssd1306.c     ****     
 1396              		.loc 1 618 0
 1397              		.cfi_startproc
 1398              		@ args = 0, pretend = 0, frame = 8
 1399              		@ frame_needed = 0, uses_anonymous_args = 0
 1400              	.LVL113:
 1401 0000 10B5     		push	{r4, lr}
 1402              		.cfi_def_cfa_offset 8
 1403              		.cfi_offset 4, -8
 1404              		.cfi_offset 14, -4
 1405 0002 82B0     		sub	sp, sp, #8
 1406              		.cfi_def_cfa_offset 16
 1407 0004 ADF80600 		strh	r0, [sp, #6]	@ movhi
 1408 0008 ADF80410 		strh	r1, [sp, #4]	@ movhi
 620:ssd1306.c     ****         return;
ARM GAS  C:\Users\Besitzer\AppData\Local\Temp\cczB0neC.s 			page 44


 1409              		.loc 1 620 0
 1410 000c 0028     		cmp	r0, #0
 1411              	.LVL114:
 1412 000e 19DB     		blt	.L138
 620:ssd1306.c     ****         return;
 1413              		.loc 1 620 0 is_stmt 0 discriminator 1
 1414 0010 0D4B     		ldr	r3, .L141
 1415 0012 B3F90230 		ldrsh	r3, [r3, #2]
 1416 0016 9842     		cmp	r0, r3
 1417 0018 14DA     		bge	.L138
 620:ssd1306.c     ****         return;
 1418              		.loc 1 620 0 discriminator 2
 1419 001a 0BB2     		sxth	r3, r1
 1420 001c 002B     		cmp	r3, #0
 1421 001e 11DB     		blt	.L138
 620:ssd1306.c     ****         return;
 1422              		.loc 1 620 0 discriminator 3
 1423 0020 0949     		ldr	r1, .L141
 1424              	.LVL115:
 1425 0022 B1F90410 		ldrsh	r1, [r1, #4]
 1426 0026 8B42     		cmp	r3, r1
 1427 0028 0CDA     		bge	.L138
 1428 002a 1446     		mov	r4, r2
 623:ssd1306.c     **** 
 1429              		.loc 1 623 0 is_stmt 1
 1430 002c 01A9     		add	r1, sp, #4
 1431              	.LVL116:
 1432 002e 0DF10600 		add	r0, sp, #6
 1433              	.LVL117:
 1434 0032 FFF7FEFF 		bl	gfx_rotation_adjust
 1435              	.LVL118:
 625:ssd1306.c     **** }
 1436              		.loc 1 625 0
 1437 0036 2246     		mov	r2, r4
 1438 0038 BDF90410 		ldrsh	r1, [sp, #4]
 1439 003c BDF90600 		ldrsh	r0, [sp, #6]
 1440 0040 FFF7FEFF 		bl	display_setPixel
 1441              	.LVL119:
 1442              	.L138:
 626:ssd1306.c     **** 
 1443              		.loc 1 626 0
 1444 0044 02B0     		add	sp, sp, #8
 1445              		.cfi_def_cfa_offset 8
 1446              		@ sp needed
 1447 0046 10BD     		pop	{r4, pc}
 1448              	.LVL120:
 1449              	.L142:
 1450              		.align	2
 1451              	.L141:
 1452 0048 00000000 		.word	.LANCHOR1
 1453              		.cfi_endproc
 1454              	.LFE22:
 1455              		.size	gfx_drawPixel, .-gfx_drawPixel
 1456              		.section	.text.gfx_drawLine,"ax",%progbits
 1457              		.align	2
 1458              		.global	gfx_drawLine
 1459              		.thumb
ARM GAS  C:\Users\Besitzer\AppData\Local\Temp\cczB0neC.s 			page 45


 1460              		.thumb_func
 1461              		.type	gfx_drawLine, %function
 1462              	gfx_drawLine:
 1463              	.LFB24:
 683:ssd1306.c     ****  
 1464              		.loc 1 683 0
 1465              		.cfi_startproc
 1466              		@ args = 4, pretend = 0, frame = 8
 1467              		@ frame_needed = 0, uses_anonymous_args = 0
 1468              	.LVL121:
 1469 0000 2DE9F04F 		push	{r4, r5, r6, r7, r8, r9, r10, fp, lr}
 1470              		.cfi_def_cfa_offset 36
 1471              		.cfi_offset 4, -36
 1472              		.cfi_offset 5, -32
 1473              		.cfi_offset 6, -28
 1474              		.cfi_offset 7, -24
 1475              		.cfi_offset 8, -20
 1476              		.cfi_offset 9, -16
 1477              		.cfi_offset 10, -12
 1478              		.cfi_offset 11, -8
 1479              		.cfi_offset 14, -4
 1480 0004 85B0     		sub	sp, sp, #20
 1481              		.cfi_def_cfa_offset 56
 1482 0006 0546     		mov	r5, r0
 1483 0008 0E46     		mov	r6, r1
 1484 000a 1746     		mov	r7, r2
 1485 000c BDF83820 		ldrh	r2, [sp, #56]
 1486              	.LVL122:
 1487 0010 0292     		str	r2, [sp, #8]
 685:ssd1306.c     ****         // vertical and horizontal lines can be drawn faster
 1488              		.loc 1 685 0
 1489 0012 B842     		cmp	r0, r7
 1490 0014 01D0     		beq	.L144
 685:ssd1306.c     ****         // vertical and horizontal lines can be drawn faster
 1491              		.loc 1 685 0 is_stmt 0 discriminator 1
 1492 0016 9942     		cmp	r1, r3
 1493 0018 07D1     		bne	.L145
 1494              	.L144:
 687:ssd1306.c     ****         return;
 1495              		.loc 1 687 0 is_stmt 1
 1496 001a 029A     		ldr	r2, [sp, #8]
 1497 001c 0092     		str	r2, [sp]
 1498 001e 3A46     		mov	r2, r7
 1499 0020 3146     		mov	r1, r6
 1500              	.LVL123:
 1501 0022 2846     		mov	r0, r5
 1502              	.LVL124:
 1503 0024 FFF7FEFF 		bl	gfx_hvLine
 1504              	.LVL125:
 688:ssd1306.c     ****     }
 1505              		.loc 1 688 0
 1506 0028 52E0     		b	.L143
 1507              	.LVL126:
 1508              	.L145:
 693:ssd1306.c     ****     if( steep ){
 1509              		.loc 1 693 0
 1510 002a C1EB0308 		rsb	r8, r1, r3
ARM GAS  C:\Users\Besitzer\AppData\Local\Temp\cczB0neC.s 			page 46


 1511 002e B8F1000F 		cmp	r8, #0
 1512 0032 B8BF     		it	lt
 1513 0034 C8F10008 		rsblt	r8, r8, #0
 1514 0038 C0EB0709 		rsb	r9, r0, r7
 1515 003c B9F1000F 		cmp	r9, #0
 1516 0040 B8BF     		it	lt
 1517 0042 C9F10009 		rsblt	r9, r9, #0
 1518              	.LVL127:
 694:ssd1306.c     ****         t = x0; x0 = y0; y0 = t;
 1519              		.loc 1 694 0
 1520 0046 C845     		cmp	r8, r9
 1521 0048 04DD     		ble	.L147
 1522 004a 3A46     		mov	r2, r7
 696:ssd1306.c     ****     }
 1523              		.loc 1 696 0
 1524 004c 1F46     		mov	r7, r3
 1525 004e 1346     		mov	r3, r2
 1526              	.LVL128:
 695:ssd1306.c     ****         t = x1; x1 = y1; y1 = t;
 1527              		.loc 1 695 0
 1528 0050 0D46     		mov	r5, r1
 1529 0052 0646     		mov	r6, r0
 1530              	.L147:
 1531              	.LVL129:
 698:ssd1306.c     ****         t = x0; x0 = x1; x1 = t;
 1532              		.loc 1 698 0
 1533 0054 BD42     		cmp	r5, r7
 1534 0056 05DD     		ble	.L148
 1535 0058 3246     		mov	r2, r6
 700:ssd1306.c     ****     }
 1536              		.loc 1 700 0
 1537 005a 1E46     		mov	r6, r3
 1538              	.LVL130:
 1539 005c 1346     		mov	r3, r2
 1540              	.LVL131:
 1541 005e 2A46     		mov	r2, r5
 699:ssd1306.c     ****         t = y0; y0 = y1; y1 = t;
 1542              		.loc 1 699 0
 1543 0060 3D46     		mov	r5, r7
 1544              	.LVL132:
 1545 0062 1746     		mov	r7, r2
 1546              	.LVL133:
 1547              	.L148:
 703:ssd1306.c     ****     dy = abs(y1 - y0);
 1548              		.loc 1 703 0
 1549 0064 C5EB070B 		rsb	fp, r5, r7
 1550 0068 1FFA8BFB 		uxth	fp, fp
 1551 006c 0FFA8BF4 		sxth	r4, fp
 1552              	.LVL134:
 704:ssd1306.c     ****     int16_t err = dx / 2;
 1553              		.loc 1 704 0
 1554 0070 C6EB030A 		rsb	r10, r6, r3
 1555 0074 BAF1000F 		cmp	r10, #0
 1556 0078 B8BF     		it	lt
 1557 007a CAF1000A 		rsblt	r10, r10, #0
 1558              	.LVL135:
 705:ssd1306.c     ****     int16_t ystep;
ARM GAS  C:\Users\Besitzer\AppData\Local\Temp\cczB0neC.s 			page 47


 1559              		.loc 1 705 0
 1560 007e 04EBD474 		add	r4, r4, r4, lsr #31
 1561              	.LVL136:
 1562 0082 6410     		asrs	r4, r4, #1
 1563              	.LVL137:
 707:ssd1306.c     ****         ystep = 1;
 1564              		.loc 1 707 0
 1565 0084 9E42     		cmp	r6, r3
 1566 0086 02DA     		bge	.L157
 708:ssd1306.c     ****     }else{
 1567              		.loc 1 708 0
 1568 0088 0123     		movs	r3, #1
 1569              	.LVL138:
 1570 008a 0393     		str	r3, [sp, #12]
 1571 008c 1EE0     		b	.L150
 1572              	.LVL139:
 1573              	.L157:
 710:ssd1306.c     ****     }
 1574              		.loc 1 710 0
 1575 008e 4FF0FF33 		mov	r3, #-1
 1576              	.LVL140:
 1577 0092 0393     		str	r3, [sp, #12]
 1578 0094 1AE0     		b	.L150
 1579              	.LVL141:
 1580              	.L154:
 713:ssd1306.c     ****             gfx_drawPixel( y0, x0, color );
 1581              		.loc 1 713 0
 1582 0096 C845     		cmp	r8, r9
 1583 0098 05DD     		ble	.L151
 714:ssd1306.c     ****         }else{
 1584              		.loc 1 714 0
 1585 009a 029A     		ldr	r2, [sp, #8]
 1586 009c 2946     		mov	r1, r5
 1587 009e 3046     		mov	r0, r6
 1588 00a0 FFF7FEFF 		bl	gfx_drawPixel
 1589              	.LVL142:
 1590 00a4 04E0     		b	.L152
 1591              	.L151:
 716:ssd1306.c     ****         }
 1592              		.loc 1 716 0
 1593 00a6 029A     		ldr	r2, [sp, #8]
 1594 00a8 3146     		mov	r1, r6
 1595 00aa 2846     		mov	r0, r5
 1596 00ac FFF7FEFF 		bl	gfx_drawPixel
 1597              	.LVL143:
 1598              	.L152:
 718:ssd1306.c     ****         if( err < 0 ){
 1599              		.loc 1 718 0
 1600 00b0 CAEB0404 		rsb	r4, r10, r4
 1601              	.LVL144:
 1602 00b4 A3B2     		uxth	r3, r4
 1603 00b6 1CB2     		sxth	r4, r3
 1604              	.LVL145:
 719:ssd1306.c     ****             y0 += ystep;
 1605              		.loc 1 719 0
 1606 00b8 002C     		cmp	r4, #0
 1607 00ba 05DA     		bge	.L153
ARM GAS  C:\Users\Besitzer\AppData\Local\Temp\cczB0neC.s 			page 48


 720:ssd1306.c     ****             err += dx;
 1608              		.loc 1 720 0
 1609 00bc 039A     		ldr	r2, [sp, #12]
 1610 00be 1644     		add	r6, r6, r2
 1611              	.LVL146:
 1612 00c0 36B2     		sxth	r6, r6
 1613              	.LVL147:
 721:ssd1306.c     ****         }
 1614              		.loc 1 721 0
 1615 00c2 0BEB0304 		add	r4, fp, r3
 1616              	.LVL148:
 1617 00c6 24B2     		sxth	r4, r4
 1618              	.LVL149:
 1619              	.L153:
 712:ssd1306.c     ****         if( steep ){
 1620              		.loc 1 712 0
 1621 00c8 0135     		adds	r5, r5, #1
 1622              	.LVL150:
 1623 00ca 2DB2     		sxth	r5, r5
 1624              	.LVL151:
 1625              	.L150:
 712:ssd1306.c     ****         if( steep ){
 1626              		.loc 1 712 0 is_stmt 0 discriminator 1
 1627 00cc BD42     		cmp	r5, r7
 1628 00ce E2DD     		ble	.L154
 1629              	.LVL152:
 1630              	.L143:
 724:ssd1306.c     **** /***********************************************************************
 1631              		.loc 1 724 0 is_stmt 1
 1632 00d0 05B0     		add	sp, sp, #20
 1633              		.cfi_def_cfa_offset 36
 1634              		@ sp needed
 1635 00d2 BDE8F08F 		pop	{r4, r5, r6, r7, r8, r9, r10, fp, pc}
 1636              		.cfi_endproc
 1637              	.LFE24:
 1638              		.size	gfx_drawLine, .-gfx_drawLine
 1639 00d6 00BF     		.section	.text.gfx_drawRect,"ax",%progbits
 1640              		.align	2
 1641              		.global	gfx_drawRect
 1642              		.thumb
 1643              		.thumb_func
 1644              		.type	gfx_drawRect, %function
 1645              	gfx_drawRect:
 1646              	.LFB25:
 735:ssd1306.c     ****     
 1647              		.loc 1 735 0
 1648              		.cfi_startproc
 1649              		@ args = 4, pretend = 0, frame = 0
 1650              		@ frame_needed = 0, uses_anonymous_args = 0
 1651              	.LVL153:
 1652 0000 2DE9F041 		push	{r4, r5, r6, r7, r8, lr}
 1653              		.cfi_def_cfa_offset 24
 1654              		.cfi_offset 4, -24
 1655              		.cfi_offset 5, -20
 1656              		.cfi_offset 6, -16
 1657              		.cfi_offset 7, -12
 1658              		.cfi_offset 8, -8
ARM GAS  C:\Users\Besitzer\AppData\Local\Temp\cczB0neC.s 			page 49


 1659              		.cfi_offset 14, -4
 1660 0004 82B0     		sub	sp, sp, #8
 1661              		.cfi_def_cfa_offset 32
 1662 0006 8046     		mov	r8, r0
 1663 0008 0E46     		mov	r6, r1
 1664 000a 1C46     		mov	r4, r3
 1665 000c BDF82070 		ldrh	r7, [sp, #32]
 737:ssd1306.c     ****     gfx_drawLine( x, y+h-1, x+w-1, y+h-1, color );
 1666              		.loc 1 737 0
 1667 0010 0244     		add	r2, r2, r0
 1668              	.LVL154:
 1669 0012 551E     		subs	r5, r2, #1
 1670 0014 2DB2     		sxth	r5, r5
 1671 0016 0097     		str	r7, [sp]
 1672 0018 0B46     		mov	r3, r1
 1673              	.LVL155:
 1674 001a 2A46     		mov	r2, r5
 1675 001c FFF7FEFF 		bl	gfx_drawLine
 1676              	.LVL156:
 738:ssd1306.c     ****     gfx_drawLine( x, y, x, y+h-1, color );
 1677              		.loc 1 738 0
 1678 0020 3444     		add	r4, r4, r6
 1679 0022 013C     		subs	r4, r4, #1
 1680 0024 24B2     		sxth	r4, r4
 1681 0026 0097     		str	r7, [sp]
 1682 0028 2346     		mov	r3, r4
 1683 002a 2A46     		mov	r2, r5
 1684 002c 2146     		mov	r1, r4
 1685 002e 4046     		mov	r0, r8
 1686 0030 FFF7FEFF 		bl	gfx_drawLine
 1687              	.LVL157:
 739:ssd1306.c     ****     gfx_drawLine( x+w-1, y, x+w-1, y+h-1, color );
 1688              		.loc 1 739 0
 1689 0034 0097     		str	r7, [sp]
 1690 0036 2346     		mov	r3, r4
 1691 0038 4246     		mov	r2, r8
 1692 003a 3146     		mov	r1, r6
 1693 003c 4046     		mov	r0, r8
 1694 003e FFF7FEFF 		bl	gfx_drawLine
 1695              	.LVL158:
 740:ssd1306.c     **** }
 1696              		.loc 1 740 0
 1697 0042 0097     		str	r7, [sp]
 1698 0044 2346     		mov	r3, r4
 1699 0046 2A46     		mov	r2, r5
 1700 0048 3146     		mov	r1, r6
 1701 004a 2846     		mov	r0, r5
 1702 004c FFF7FEFF 		bl	gfx_drawLine
 1703              	.LVL159:
 741:ssd1306.c     **** /***********************************************************************
 1704              		.loc 1 741 0
 1705 0050 02B0     		add	sp, sp, #8
 1706              		.cfi_def_cfa_offset 24
 1707              		@ sp needed
 1708 0052 BDE8F081 		pop	{r4, r5, r6, r7, r8, pc}
 1709              		.cfi_endproc
 1710              	.LFE25:
ARM GAS  C:\Users\Besitzer\AppData\Local\Temp\cczB0neC.s 			page 50


 1711              		.size	gfx_drawRect, .-gfx_drawRect
 1712 0056 00BF     		.section	.text.gfx_fillRect,"ax",%progbits
 1713              		.align	2
 1714              		.global	gfx_fillRect
 1715              		.thumb
 1716              		.thumb_func
 1717              		.type	gfx_fillRect, %function
 1718              	gfx_fillRect:
 1719              	.LFB26:
 753:ssd1306.c     ****     int16_t i = 0;
 1720              		.loc 1 753 0
 1721              		.cfi_startproc
 1722              		@ args = 4, pretend = 0, frame = 0
 1723              		@ frame_needed = 0, uses_anonymous_args = 0
 1724              	.LVL160:
 1725 0000 2DE9F043 		push	{r4, r5, r6, r7, r8, r9, lr}
 1726              		.cfi_def_cfa_offset 28
 1727              		.cfi_offset 4, -28
 1728              		.cfi_offset 5, -24
 1729              		.cfi_offset 6, -20
 1730              		.cfi_offset 7, -16
 1731              		.cfi_offset 8, -12
 1732              		.cfi_offset 9, -8
 1733              		.cfi_offset 14, -4
 1734 0004 83B0     		sub	sp, sp, #12
 1735              		.cfi_def_cfa_offset 40
 1736 0006 0546     		mov	r5, r0
 1737 0008 0E46     		mov	r6, r1
 1738 000a 1746     		mov	r7, r2
 1739 000c 9846     		mov	r8, r3
 1740 000e BDF82890 		ldrh	r9, [sp, #40]
 1741              	.LVL161:
 755:ssd1306.c     ****         for( i = x ; i < x+w ; i++ ){
 1742              		.loc 1 755 0
 1743 0012 9342     		cmp	r3, r2
 1744 0014 0FDC     		bgt	.L167
 1745 0016 0C46     		mov	r4, r1
 1746 0018 1EE0     		b	.L163
 1747              	.LVL162:
 1748              	.L164:
 757:ssd1306.c     ****         }
 1749              		.loc 1 757 0 discriminator 3
 1750 001a 06EB0803 		add	r3, r6, r8
 1751 001e 013B     		subs	r3, r3, #1
 1752 0020 CDF80090 		str	r9, [sp]
 1753 0024 1BB2     		sxth	r3, r3
 1754 0026 2246     		mov	r2, r4
 1755 0028 3146     		mov	r1, r6
 1756 002a 2046     		mov	r0, r4
 1757 002c FFF7FEFF 		bl	gfx_drawLine
 1758              	.LVL163:
 756:ssd1306.c     ****             gfx_drawLine( i, y, i, y+h-1, color );
 1759              		.loc 1 756 0 discriminator 3
 1760 0030 0134     		adds	r4, r4, #1
 1761              	.LVL164:
 1762 0032 24B2     		sxth	r4, r4
 1763              	.LVL165:
ARM GAS  C:\Users\Besitzer\AppData\Local\Temp\cczB0neC.s 			page 51


 1764 0034 00E0     		b	.L162
 1765              	.LVL166:
 1766              	.L167:
 1767 0036 0446     		mov	r4, r0
 1768              	.LVL167:
 1769              	.L162:
 756:ssd1306.c     ****             gfx_drawLine( i, y, i, y+h-1, color );
 1770              		.loc 1 756 0 is_stmt 0 discriminator 1
 1771 0038 EB19     		adds	r3, r5, r7
 1772 003a 9C42     		cmp	r4, r3
 1773 003c EDDB     		blt	.L164
 1774 003e 0FE0     		b	.L161
 1775              	.L166:
 761:ssd1306.c     ****         }
 1776              		.loc 1 761 0 is_stmt 1 discriminator 3
 1777 0040 EA19     		adds	r2, r5, r7
 1778 0042 013A     		subs	r2, r2, #1
 1779 0044 CDF80090 		str	r9, [sp]
 1780 0048 2346     		mov	r3, r4
 1781 004a 12B2     		sxth	r2, r2
 1782 004c 2146     		mov	r1, r4
 1783 004e 2846     		mov	r0, r5
 1784 0050 FFF7FEFF 		bl	gfx_drawLine
 1785              	.LVL168:
 760:ssd1306.c     ****             gfx_drawLine( x, i, x+w-1, i, color );
 1786              		.loc 1 760 0 discriminator 3
 1787 0054 0134     		adds	r4, r4, #1
 1788              	.LVL169:
 1789 0056 24B2     		sxth	r4, r4
 1790              	.LVL170:
 1791              	.L163:
 760:ssd1306.c     ****             gfx_drawLine( x, i, x+w-1, i, color );
 1792              		.loc 1 760 0 is_stmt 0 discriminator 1
 1793 0058 06EB0803 		add	r3, r6, r8
 1794 005c 9C42     		cmp	r4, r3
 1795 005e EFDB     		blt	.L166
 1796              	.L161:
 764:ssd1306.c     **** 
 1797              		.loc 1 764 0 is_stmt 1
 1798 0060 03B0     		add	sp, sp, #12
 1799              		.cfi_def_cfa_offset 28
 1800              		@ sp needed
 1801 0062 BDE8F083 		pop	{r4, r5, r6, r7, r8, r9, pc}
 1802              		.cfi_endproc
 1803              	.LFE26:
 1804              		.size	gfx_fillRect, .-gfx_fillRect
 1805 0066 00BF     		.section	.text.gfx_drawCircle,"ax",%progbits
 1806              		.align	2
 1807              		.global	gfx_drawCircle
 1808              		.thumb
 1809              		.thumb_func
 1810              		.type	gfx_drawCircle, %function
 1811              	gfx_drawCircle:
 1812              	.LFB27:
 776:ssd1306.c     **** 
 1813              		.loc 1 776 0
 1814              		.cfi_startproc
ARM GAS  C:\Users\Besitzer\AppData\Local\Temp\cczB0neC.s 			page 52


 1815              		@ args = 0, pretend = 0, frame = 24
 1816              		@ frame_needed = 0, uses_anonymous_args = 0
 1817              	.LVL171:
 1818 0000 2DE9F04F 		push	{r4, r5, r6, r7, r8, r9, r10, fp, lr}
 1819              		.cfi_def_cfa_offset 36
 1820              		.cfi_offset 4, -36
 1821              		.cfi_offset 5, -32
 1822              		.cfi_offset 6, -28
 1823              		.cfi_offset 7, -24
 1824              		.cfi_offset 8, -20
 1825              		.cfi_offset 9, -16
 1826              		.cfi_offset 10, -12
 1827              		.cfi_offset 11, -8
 1828              		.cfi_offset 14, -4
 1829 0004 87B0     		sub	sp, sp, #28
 1830              		.cfi_def_cfa_offset 64
 1831 0006 8246     		mov	r10, r0
 1832 0008 0E46     		mov	r6, r1
 1833 000a 0292     		str	r2, [sp, #8]
 1834 000c 1F46     		mov	r7, r3
 1835 000e 0193     		str	r3, [sp, #4]
 778:ssd1306.c     ****     int16_t ddF_x = 1;
 1836              		.loc 1 778 0
 1837 0010 95B2     		uxth	r5, r2
 1838 0012 C5F10104 		rsb	r4, r5, #1
 1839 0016 24B2     		sxth	r4, r4
 1840              	.LVL172:
 780:ssd1306.c     ****     int16_t x = 0;
 1841              		.loc 1 780 0
 1842 0018 C5EBC532 		rsb	r2, r5, r5, lsl #15
 1843              	.LVL173:
 1844 001c 5300     		lsls	r3, r2, #1
 1845              	.LVL174:
 1846 001e 1AB2     		sxth	r2, r3
 1847 0020 0592     		str	r2, [sp, #20]
 1848              	.LVL175:
 783:ssd1306.c     ****     gfx_drawPixel( x0 , y0-r, color );
 1849              		.loc 1 783 0
 1850 0022 1FFA81FB 		uxth	fp, r1
 1851 0026 05EB0B01 		add	r1, r5, fp
 1852              	.LVL176:
 1853 002a 3A46     		mov	r2, r7
 1854 002c 09B2     		sxth	r1, r1
 1855 002e FFF7FEFF 		bl	gfx_drawPixel
 1856              	.LVL177:
 784:ssd1306.c     ****     gfx_drawPixel( x0+r, y0 , color );
 1857              		.loc 1 784 0
 1858 0032 C5EB0B01 		rsb	r1, r5, fp
 1859 0036 3A46     		mov	r2, r7
 1860 0038 09B2     		sxth	r1, r1
 1861 003a 5046     		mov	r0, r10
 1862 003c FFF7FEFF 		bl	gfx_drawPixel
 1863              	.LVL178:
 785:ssd1306.c     ****     gfx_drawPixel( x0-r, y0 , color );
 1864              		.loc 1 785 0
 1865 0040 1FFA8AFA 		uxth	r10, r10
 1866 0044 05EB0A00 		add	r0, r5, r10
ARM GAS  C:\Users\Besitzer\AppData\Local\Temp\cczB0neC.s 			page 53


 1867 0048 3A46     		mov	r2, r7
 1868 004a 3146     		mov	r1, r6
 1869 004c 00B2     		sxth	r0, r0
 1870 004e FFF7FEFF 		bl	gfx_drawPixel
 1871              	.LVL179:
 786:ssd1306.c     ****     while( x < y ){
 1872              		.loc 1 786 0
 1873 0052 C5EB0A00 		rsb	r0, r5, r10
 1874 0056 3A46     		mov	r2, r7
 1875 0058 3146     		mov	r1, r6
 1876 005a 00B2     		sxth	r0, r0
 1877 005c FFF7FEFF 		bl	gfx_drawPixel
 1878              	.LVL180:
 781:ssd1306.c     ****     int16_t y = r;
 1879              		.loc 1 781 0
 1880 0060 4FF00009 		mov	r9, #0
 779:ssd1306.c     ****     int16_t ddF_y = -2 * r;
 1881              		.loc 1 779 0
 1882 0064 0123     		movs	r3, #1
 1883 0066 0393     		str	r3, [sp, #12]
 787:ssd1306.c     ****         if( f >= 0 ){
 1884              		.loc 1 787 0
 1885 0068 60E0     		b	.L170
 1886              	.LVL181:
 1887              	.L172:
 788:ssd1306.c     ****             y--;
 1888              		.loc 1 788 0
 1889 006a 002C     		cmp	r4, #0
 1890 006c 0ADB     		blt	.L171
 789:ssd1306.c     ****             ddF_y += 2;
 1891              		.loc 1 789 0
 1892 006e 029B     		ldr	r3, [sp, #8]
 1893 0070 013B     		subs	r3, r3, #1
 1894 0072 1BB2     		sxth	r3, r3
 1895 0074 0293     		str	r3, [sp, #8]
 1896              	.LVL182:
 790:ssd1306.c     ****             f += ddF_y;
 1897              		.loc 1 790 0
 1898 0076 059B     		ldr	r3, [sp, #20]
 1899 0078 0233     		adds	r3, r3, #2
 1900 007a 9BB2     		uxth	r3, r3
 1901 007c 1AB2     		sxth	r2, r3
 1902 007e 0592     		str	r2, [sp, #20]
 1903              	.LVL183:
 791:ssd1306.c     ****         }
 1904              		.loc 1 791 0
 1905 0080 1C44     		add	r4, r4, r3
 1906              	.LVL184:
 1907 0082 24B2     		sxth	r4, r4
 1908              	.LVL185:
 1909              	.L171:
 793:ssd1306.c     ****         ddF_x += 2;
 1910              		.loc 1 793 0
 1911 0084 09F10105 		add	r5, r9, #1
 1912 0088 ADB2     		uxth	r5, r5
 1913 008a 0FFA85F9 		sxth	r9, r5
 1914              	.LVL186:
ARM GAS  C:\Users\Besitzer\AppData\Local\Temp\cczB0neC.s 			page 54


 794:ssd1306.c     ****         f += ddF_x;
 1915              		.loc 1 794 0
 1916 008e 039B     		ldr	r3, [sp, #12]
 1917 0090 0233     		adds	r3, r3, #2
 1918 0092 9BB2     		uxth	r3, r3
 1919 0094 1AB2     		sxth	r2, r3
 1920 0096 0392     		str	r2, [sp, #12]
 1921              	.LVL187:
 795:ssd1306.c     ****         gfx_drawPixel( x0 + x, y0 + y, color );
 1922              		.loc 1 795 0
 1923 0098 1C44     		add	r4, r4, r3
 1924              	.LVL188:
 1925 009a 24B2     		sxth	r4, r4
 1926              	.LVL189:
 796:ssd1306.c     ****         gfx_drawPixel( x0 - x, y0 + y, color );
 1927              		.loc 1 796 0
 1928 009c 0AEB0503 		add	r3, r10, r5
 1929 00a0 1BB2     		sxth	r3, r3
 1930 00a2 BDF80860 		ldrh	r6, [sp, #8]
 1931 00a6 0BEB0608 		add	r8, fp, r6
 1932 00aa 0FFA88F8 		sxth	r8, r8
 1933 00ae 019A     		ldr	r2, [sp, #4]
 1934 00b0 4146     		mov	r1, r8
 1935 00b2 0493     		str	r3, [sp, #16]
 1936 00b4 1846     		mov	r0, r3
 1937 00b6 FFF7FEFF 		bl	gfx_drawPixel
 1938              	.LVL190:
 797:ssd1306.c     ****         gfx_drawPixel( x0 + x, y0 - y, color );
 1939              		.loc 1 797 0
 1940 00ba C5EB0A07 		rsb	r7, r5, r10
 1941 00be 3FB2     		sxth	r7, r7
 1942 00c0 019A     		ldr	r2, [sp, #4]
 1943 00c2 4146     		mov	r1, r8
 1944 00c4 3846     		mov	r0, r7
 1945 00c6 FFF7FEFF 		bl	gfx_drawPixel
 1946              	.LVL191:
 798:ssd1306.c     ****         gfx_drawPixel( x0 - x, y0 - y, color );
 1947              		.loc 1 798 0
 1948 00ca C6EB0B08 		rsb	r8, r6, fp
 1949 00ce 0FFA88F8 		sxth	r8, r8
 1950 00d2 019A     		ldr	r2, [sp, #4]
 1951 00d4 4146     		mov	r1, r8
 1952 00d6 0498     		ldr	r0, [sp, #16]
 1953 00d8 FFF7FEFF 		bl	gfx_drawPixel
 1954              	.LVL192:
 799:ssd1306.c     ****         gfx_drawPixel( x0 + y, y0 + x, color );
 1955              		.loc 1 799 0
 1956 00dc 019A     		ldr	r2, [sp, #4]
 1957 00de 4146     		mov	r1, r8
 1958 00e0 3846     		mov	r0, r7
 1959 00e2 FFF7FEFF 		bl	gfx_drawPixel
 1960              	.LVL193:
 800:ssd1306.c     ****         gfx_drawPixel( x0 - y, y0 + x, color );
 1961              		.loc 1 800 0
 1962 00e6 0AEB0607 		add	r7, r10, r6
 1963 00ea 3FB2     		sxth	r7, r7
 1964 00ec 0BEB0508 		add	r8, fp, r5
ARM GAS  C:\Users\Besitzer\AppData\Local\Temp\cczB0neC.s 			page 55


 1965 00f0 0FFA88F8 		sxth	r8, r8
 1966 00f4 019A     		ldr	r2, [sp, #4]
 1967 00f6 4146     		mov	r1, r8
 1968 00f8 3846     		mov	r0, r7
 1969 00fa FFF7FEFF 		bl	gfx_drawPixel
 1970              	.LVL194:
 801:ssd1306.c     ****         gfx_drawPixel( x0 + y, y0 - x, color );
 1971              		.loc 1 801 0
 1972 00fe C6EB0A06 		rsb	r6, r6, r10
 1973 0102 36B2     		sxth	r6, r6
 1974 0104 019A     		ldr	r2, [sp, #4]
 1975 0106 4146     		mov	r1, r8
 1976 0108 3046     		mov	r0, r6
 1977 010a FFF7FEFF 		bl	gfx_drawPixel
 1978              	.LVL195:
 802:ssd1306.c     ****         gfx_drawPixel( x0 - y, y0 - x, color );
 1979              		.loc 1 802 0
 1980 010e C5EB0B05 		rsb	r5, r5, fp
 1981 0112 2DB2     		sxth	r5, r5
 1982 0114 DDF80480 		ldr	r8, [sp, #4]
 1983 0118 4246     		mov	r2, r8
 1984 011a 2946     		mov	r1, r5
 1985 011c 3846     		mov	r0, r7
 1986 011e FFF7FEFF 		bl	gfx_drawPixel
 1987              	.LVL196:
 803:ssd1306.c     ****     }
 1988              		.loc 1 803 0
 1989 0122 4246     		mov	r2, r8
 1990 0124 2946     		mov	r1, r5
 1991 0126 3046     		mov	r0, r6
 1992 0128 FFF7FEFF 		bl	gfx_drawPixel
 1993              	.LVL197:
 1994              	.L170:
 787:ssd1306.c     ****         if( f >= 0 ){
 1995              		.loc 1 787 0
 1996 012c 029B     		ldr	r3, [sp, #8]
 1997 012e 9945     		cmp	r9, r3
 1998 0130 9BDB     		blt	.L172
 805:ssd1306.c     **** /***********************************************************************
 1999              		.loc 1 805 0
 2000 0132 07B0     		add	sp, sp, #28
 2001              		.cfi_def_cfa_offset 36
 2002              		@ sp needed
 2003 0134 BDE8F08F 		pop	{r4, r5, r6, r7, r8, r9, r10, fp, pc}
 2004              		.cfi_endproc
 2005              	.LFE27:
 2006              		.size	gfx_drawCircle, .-gfx_drawCircle
 2007              		.section	.text.gfx_drawTriangle,"ax",%progbits
 2008              		.align	2
 2009              		.global	gfx_drawTriangle
 2010              		.thumb
 2011              		.thumb_func
 2012              		.type	gfx_drawTriangle, %function
 2013              	gfx_drawTriangle:
 2014              	.LFB28:
 816:ssd1306.c     ****     
 2015              		.loc 1 816 0
ARM GAS  C:\Users\Besitzer\AppData\Local\Temp\cczB0neC.s 			page 56


 2016              		.cfi_startproc
 2017              		@ args = 12, pretend = 0, frame = 0
 2018              		@ frame_needed = 0, uses_anonymous_args = 0
 2019              	.LVL198:
 2020 0000 2DE9F047 		push	{r4, r5, r6, r7, r8, r9, r10, lr}
 2021              		.cfi_def_cfa_offset 32
 2022              		.cfi_offset 4, -32
 2023              		.cfi_offset 5, -28
 2024              		.cfi_offset 6, -24
 2025              		.cfi_offset 7, -20
 2026              		.cfi_offset 8, -16
 2027              		.cfi_offset 9, -12
 2028              		.cfi_offset 10, -8
 2029              		.cfi_offset 14, -4
 2030 0004 82B0     		sub	sp, sp, #8
 2031              		.cfi_def_cfa_offset 40
 2032 0006 0746     		mov	r7, r0
 2033 0008 8846     		mov	r8, r1
 2034 000a 9146     		mov	r9, r2
 2035 000c 9A46     		mov	r10, r3
 2036 000e BDF92850 		ldrsh	r5, [sp, #40]
 2037 0012 BDF92C60 		ldrsh	r6, [sp, #44]
 2038 0016 BDF83040 		ldrh	r4, [sp, #48]
 818:ssd1306.c     ****     gfx_drawLine( x1, y1, x2, y2, color );
 2039              		.loc 1 818 0
 2040 001a 0094     		str	r4, [sp]
 2041 001c FFF7FEFF 		bl	gfx_drawLine
 2042              	.LVL199:
 819:ssd1306.c     ****     gfx_drawLine( x2, y2, x0, y0, color );
 2043              		.loc 1 819 0
 2044 0020 0094     		str	r4, [sp]
 2045 0022 3346     		mov	r3, r6
 2046 0024 2A46     		mov	r2, r5
 2047 0026 5146     		mov	r1, r10
 2048 0028 4846     		mov	r0, r9
 2049 002a FFF7FEFF 		bl	gfx_drawLine
 2050              	.LVL200:
 820:ssd1306.c     **** }
 2051              		.loc 1 820 0
 2052 002e 0094     		str	r4, [sp]
 2053 0030 4346     		mov	r3, r8
 2054 0032 3A46     		mov	r2, r7
 2055 0034 3146     		mov	r1, r6
 2056 0036 2846     		mov	r0, r5
 2057 0038 FFF7FEFF 		bl	gfx_drawLine
 2058              	.LVL201:
 821:ssd1306.c     **** 
 2059              		.loc 1 821 0
 2060 003c 02B0     		add	sp, sp, #8
 2061              		.cfi_def_cfa_offset 32
 2062              		@ sp needed
 2063 003e BDE8F087 		pop	{r4, r5, r6, r7, r8, r9, r10, pc}
 2064              		.cfi_endproc
 2065              	.LFE28:
 2066              		.size	gfx_drawTriangle, .-gfx_drawTriangle
 2067 0042 00BF     		.section	.text.gfx_drawChar,"ax",%progbits
 2068              		.align	2
ARM GAS  C:\Users\Besitzer\AppData\Local\Temp\cczB0neC.s 			page 57


 2069              		.global	gfx_drawChar
 2070              		.thumb
 2071              		.thumb_func
 2072              		.type	gfx_drawChar, %function
 2073              	gfx_drawChar:
 2074              	.LFB29:
 835:ssd1306.c     ****     if( (x >= _width) || // Clip right
 2075              		.loc 1 835 0
 2076              		.cfi_startproc
 2077              		@ args = 8, pretend = 0, frame = 8
 2078              		@ frame_needed = 0, uses_anonymous_args = 0
 2079              	.LVL202:
 2080 0000 2DE9F04F 		push	{r4, r5, r6, r7, r8, r9, r10, fp, lr}
 2081              		.cfi_def_cfa_offset 36
 2082              		.cfi_offset 4, -36
 2083              		.cfi_offset 5, -32
 2084              		.cfi_offset 6, -28
 2085              		.cfi_offset 7, -24
 2086              		.cfi_offset 8, -20
 2087              		.cfi_offset 9, -16
 2088              		.cfi_offset 10, -12
 2089              		.cfi_offset 11, -8
 2090              		.cfi_offset 14, -4
 2091 0004 85B0     		sub	sp, sp, #20
 2092              		.cfi_def_cfa_offset 56
 2093 0006 BDF838B0 		ldrh	fp, [sp, #56]
 2094 000a 9DF83C60 		ldrb	r6, [sp, #60]	@ zero_extendqisi2
 836:ssd1306.c     ****         (y >= _height) || // Clip bottom
 2095              		.loc 1 836 0
 2096 000e 354C     		ldr	r4, .L189
 2097 0010 B4F90240 		ldrsh	r4, [r4, #2]
 2098 0014 8442     		cmp	r4, r0
 2099 0016 61DD     		ble	.L176
 837:ssd1306.c     ****         ((x + 6 * size - 1) < 0) || // Clip left
 2100              		.loc 1 837 0 discriminator 1
 2101 0018 324C     		ldr	r4, .L189
 2102 001a B4F90440 		ldrsh	r4, [r4, #4]
 836:ssd1306.c     ****         (y >= _height) || // Clip bottom
 2103              		.loc 1 836 0 discriminator 1
 2104 001e 8C42     		cmp	r4, r1
 2105 0020 5CDD     		ble	.L176
 838:ssd1306.c     ****         ((y + 8 * size - 1) < 0)) // Clip top
 2106              		.loc 1 838 0
 2107 0022 06EB4605 		add	r5, r6, r6, lsl #1
 2108 0026 6C00     		lsls	r4, r5, #1
 2109 0028 0444     		add	r4, r4, r0
 837:ssd1306.c     ****         ((x + 6 * size - 1) < 0) || // Clip left
 2110              		.loc 1 837 0
 2111 002a 012C     		cmp	r4, #1
 2112 002c 56D4     		bmi	.L176
 839:ssd1306.c     ****         return;
 2113              		.loc 1 839 0
 2114 002e 01EBC604 		add	r4, r1, r6, lsl #3
 838:ssd1306.c     ****         ((y + 8 * size - 1) < 0)) // Clip top
 2115              		.loc 1 838 0
 2116 0032 012C     		cmp	r4, #1
 2117 0034 52D4     		bmi	.L176
ARM GAS  C:\Users\Besitzer\AppData\Local\Temp\cczB0neC.s 			page 58


 2118 0036 9846     		mov	r8, r3
 2119 0038 0392     		str	r2, [sp, #12]
 2120 003a 8A46     		mov	r10, r1
 2121 003c 8146     		mov	r9, r0
 2122 003e 0027     		movs	r7, #0
 2123 0040 4AE0     		b	.L178
 2124              	.LVL203:
 2125              	.L186:
 2126              	.LBB7:
 845:ssd1306.c     ****             line = 0x0;
 2127              		.loc 1 845 0
 2128 0042 052F     		cmp	r7, #5
 2129 0044 06D0     		beq	.L187
 848:ssd1306.c     ****         int8_t j = 0;
 2130              		.loc 1 848 0
 2131 0046 039B     		ldr	r3, [sp, #12]
 2132 0048 03EB8303 		add	r3, r3, r3, lsl #2
 2133 004c 3B44     		add	r3, r3, r7
 2134 004e 264A     		ldr	r2, .L189+4
 2135 0050 D55C     		ldrb	r5, [r2, r3]	@ zero_extendqisi2
 2136              	.LVL204:
 2137 0052 00E0     		b	.L179
 2138              	.LVL205:
 2139              	.L187:
 846:ssd1306.c     ****         else
 2140              		.loc 1 846 0
 2141 0054 0025     		movs	r5, #0
 2142              	.L179:
 846:ssd1306.c     ****         else
 2143              		.loc 1 846 0 is_stmt 0 discriminator 1
 2144 0056 0024     		movs	r4, #0
 2145 0058 3AE0     		b	.L180
 2146              	.LVL206:
 2147              	.L185:
 851:ssd1306.c     ****                 if( size == 1 ) // default size
 2148              		.loc 1 851 0 is_stmt 1
 2149 005a 15F0010F 		tst	r5, #1
 2150 005e 19D0     		beq	.L181
 852:ssd1306.c     ****                     gfx_drawPixel( x+i, y+j, color );
 2151              		.loc 1 852 0
 2152 0060 012E     		cmp	r6, #1
 2153 0062 09D1     		bne	.L182
 853:ssd1306.c     ****                 else { // big size
 2154              		.loc 1 853 0
 2155 0064 04EB0A01 		add	r1, r4, r10
 2156 0068 07EB0900 		add	r0, r7, r9
 2157 006c 4246     		mov	r2, r8
 2158 006e 09B2     		sxth	r1, r1
 2159 0070 00B2     		sxth	r0, r0
 2160 0072 FFF7FEFF 		bl	gfx_drawPixel
 2161              	.LVL207:
 2162 0076 28E0     		b	.L183
 2163              	.L182:
 855:ssd1306.c     ****                 }
 2164              		.loc 1 855 0
 2165 0078 B0B2     		uxth	r0, r6
 2166 007a 32B2     		sxth	r2, r6
ARM GAS  C:\Users\Besitzer\AppData\Local\Temp\cczB0neC.s 			page 59


 2167 007c 04FB00A1 		mla	r1, r4, r0, r10
 2168 0080 07FB0090 		mla	r0, r7, r0, r9
 2169 0084 CDF80080 		str	r8, [sp]
 2170 0088 1346     		mov	r3, r2
 2171 008a 09B2     		sxth	r1, r1
 2172 008c 00B2     		sxth	r0, r0
 2173 008e FFF7FEFF 		bl	gfx_fillRect
 2174              	.LVL208:
 2175 0092 1AE0     		b	.L183
 2176              	.L181:
 857:ssd1306.c     ****                 if( size == 1 ) // default size
 2177              		.loc 1 857 0
 2178 0094 D845     		cmp	r8, fp
 2179 0096 18D0     		beq	.L183
 858:ssd1306.c     ****                     gfx_drawPixel( x+i, y+j, bg );
 2180              		.loc 1 858 0
 2181 0098 012E     		cmp	r6, #1
 2182 009a 09D1     		bne	.L184
 859:ssd1306.c     ****                 else { // big size
 2183              		.loc 1 859 0
 2184 009c 04EB0A01 		add	r1, r4, r10
 2185 00a0 07EB0900 		add	r0, r7, r9
 2186 00a4 5A46     		mov	r2, fp
 2187 00a6 09B2     		sxth	r1, r1
 2188 00a8 00B2     		sxth	r0, r0
 2189 00aa FFF7FEFF 		bl	gfx_drawPixel
 2190              	.LVL209:
 2191 00ae 0CE0     		b	.L183
 2192              	.L184:
 861:ssd1306.c     ****                 }
 2193              		.loc 1 861 0
 2194 00b0 B0B2     		uxth	r0, r6
 2195 00b2 32B2     		sxth	r2, r6
 2196 00b4 04FB00A1 		mla	r1, r4, r0, r10
 2197 00b8 07FB0090 		mla	r0, r7, r0, r9
 2198 00bc CDF800B0 		str	fp, [sp]
 2199 00c0 1346     		mov	r3, r2
 2200 00c2 09B2     		sxth	r1, r1
 2201 00c4 00B2     		sxth	r0, r0
 2202 00c6 FFF7FEFF 		bl	gfx_fillRect
 2203              	.LVL210:
 2204              	.L183:
 864:ssd1306.c     ****         }
 2205              		.loc 1 864 0 discriminator 2
 2206 00ca 6D08     		lsrs	r5, r5, #1
 2207              	.LVL211:
 850:ssd1306.c     ****             if( line & 0x1 ){
 2208              		.loc 1 850 0 discriminator 2
 2209 00cc 0134     		adds	r4, r4, #1
 2210              	.LVL212:
 2211 00ce 64B2     		sxtb	r4, r4
 2212              	.LVL213:
 2213              	.L180:
 850:ssd1306.c     ****             if( line & 0x1 ){
 2214              		.loc 1 850 0 is_stmt 0 discriminator 1
 2215 00d0 072C     		cmp	r4, #7
 2216 00d2 C2DD     		ble	.L185
ARM GAS  C:\Users\Besitzer\AppData\Local\Temp\cczB0neC.s 			page 60


 2217              	.LBE7:
 843:ssd1306.c     ****         uint8_t line;
 2218              		.loc 1 843 0 is_stmt 1 discriminator 2
 2219 00d4 0137     		adds	r7, r7, #1
 2220              	.LVL214:
 2221 00d6 7FB2     		sxtb	r7, r7
 2222              	.LVL215:
 2223              	.L178:
 843:ssd1306.c     ****         uint8_t line;
 2224              		.loc 1 843 0 is_stmt 0 discriminator 1
 2225 00d8 052F     		cmp	r7, #5
 2226 00da B2DD     		ble	.L186
 2227              	.LVL216:
 2228              	.L176:
 867:ssd1306.c     **** /***********************************************************************
 2229              		.loc 1 867 0 is_stmt 1
 2230 00dc 05B0     		add	sp, sp, #20
 2231              		.cfi_def_cfa_offset 36
 2232              		@ sp needed
 2233 00de BDE8F08F 		pop	{r4, r5, r6, r7, r8, r9, r10, fp, pc}
 2234              	.LVL217:
 2235              	.L190:
 2236 00e2 00BF     		.align	2
 2237              	.L189:
 2238 00e4 00000000 		.word	.LANCHOR1
 2239 00e8 00000000 		.word	.LANCHOR2
 2240              		.cfi_endproc
 2241              	.LFE29:
 2242              		.size	gfx_drawChar, .-gfx_drawChar
 2243              		.section	.text.gfx_write,"ax",%progbits
 2244              		.align	2
 2245              		.global	gfx_write
 2246              		.thumb
 2247              		.thumb_func
 2248              		.type	gfx_write, %function
 2249              	gfx_write:
 2250              	.LFB30:
 875:ssd1306.c     ****     if( ch == '\n' ){
 2251              		.loc 1 875 0
 2252              		.cfi_startproc
 2253              		@ args = 0, pretend = 0, frame = 0
 2254              		@ frame_needed = 0, uses_anonymous_args = 0
 2255              	.LVL218:
 876:ssd1306.c     ****         cursor_y += textsize*8;
 2256              		.loc 1 876 0
 2257 0000 0A28     		cmp	r0, #10
 2258 0002 08D1     		bne	.L192
 877:ssd1306.c     ****         cursor_x = 0;
 2259              		.loc 1 877 0
 2260 0004 1A4B     		ldr	r3, .L196
 2261 0006 997A     		ldrb	r1, [r3, #10]	@ zero_extendqisi2
 2262 0008 1A89     		ldrh	r2, [r3, #8]
 2263 000a 02EBC102 		add	r2, r2, r1, lsl #3
 2264 000e 1A81     		strh	r2, [r3, #8]	@ movhi
 878:ssd1306.c     ****     }else if( ch == '\r' ){
 2265              		.loc 1 878 0
 2266 0010 0022     		movs	r2, #0
ARM GAS  C:\Users\Besitzer\AppData\Local\Temp\cczB0neC.s 			page 61


 2267 0012 DA80     		strh	r2, [r3, #6]	@ movhi
 2268              	.L195:
 2269 0014 7047     		bx	lr
 2270              	.L192:
 879:ssd1306.c     ****         // skip em
 2271              		.loc 1 879 0
 2272 0016 0D28     		cmp	r0, #13
 2273 0018 FCD0     		beq	.L195
 875:ssd1306.c     ****     if( ch == '\n' ){
 2274              		.loc 1 875 0
 2275 001a 30B5     		push	{r4, r5, lr}
 2276              		.cfi_def_cfa_offset 12
 2277              		.cfi_offset 4, -12
 2278              		.cfi_offset 5, -8
 2279              		.cfi_offset 14, -4
 2280 001c 83B0     		sub	sp, sp, #12
 2281              		.cfi_def_cfa_offset 24
 2282 001e 0246     		mov	r2, r0
 882:ssd1306.c     ****         cursor_x += textsize*6;
 2283              		.loc 1 882 0
 2284 0020 134C     		ldr	r4, .L196
 2285 0022 E389     		ldrh	r3, [r4, #14]
 2286 0024 B4F90810 		ldrsh	r1, [r4, #8]
 2287 0028 B4F90600 		ldrsh	r0, [r4, #6]
 2288              	.LVL219:
 2289 002c A57A     		ldrb	r5, [r4, #10]	@ zero_extendqisi2
 2290 002e 0195     		str	r5, [sp, #4]
 2291 0030 A589     		ldrh	r5, [r4, #12]
 2292 0032 0095     		str	r5, [sp]
 2293 0034 FFF7FEFF 		bl	gfx_drawChar
 2294              	.LVL220:
 883:ssd1306.c     ****         if( wrap && (cursor_x > (_width - textsize*6)) ){
 2295              		.loc 1 883 0
 2296 0038 A27A     		ldrb	r2, [r4, #10]	@ zero_extendqisi2
 2297 003a 91B2     		uxth	r1, r2
 2298 003c 01EB4103 		add	r3, r1, r1, lsl #1
 2299 0040 5800     		lsls	r0, r3, #1
 2300 0042 E388     		ldrh	r3, [r4, #6]
 2301 0044 0344     		add	r3, r3, r0
 2302 0046 1BB2     		sxth	r3, r3
 2303 0048 E380     		strh	r3, [r4, #6]	@ movhi
 884:ssd1306.c     ****             cursor_y += textsize*8;
 2304              		.loc 1 884 0
 2305 004a 0A48     		ldr	r0, .L196+4
 2306 004c 0078     		ldrb	r0, [r0]	@ zero_extendqisi2
 2307 004e 68B1     		cbz	r0, .L191
 884:ssd1306.c     ****             cursor_y += textsize*8;
 2308              		.loc 1 884 0 is_stmt 0 discriminator 1
 2309 0050 A2EB8202 		sub	r2, r2, r2, lsl #2
 2310 0054 5000     		lsls	r0, r2, #1
 2311 0056 B4F90220 		ldrsh	r2, [r4, #2]
 2312 005a 1044     		add	r0, r0, r2
 2313 005c 8342     		cmp	r3, r0
 2314 005e 05DD     		ble	.L191
 885:ssd1306.c     ****             cursor_x = 0;
 2315              		.loc 1 885 0 is_stmt 1
 2316 0060 2289     		ldrh	r2, [r4, #8]
ARM GAS  C:\Users\Besitzer\AppData\Local\Temp\cczB0neC.s 			page 62


 2317 0062 02EBC101 		add	r1, r2, r1, lsl #3
 2318 0066 2181     		strh	r1, [r4, #8]	@ movhi
 886:ssd1306.c     ****         }
 2319              		.loc 1 886 0
 2320 0068 0022     		movs	r2, #0
 2321 006a E280     		strh	r2, [r4, #6]	@ movhi
 2322              	.L191:
 889:ssd1306.c     **** /***********************************************************************
 2323              		.loc 1 889 0
 2324 006c 03B0     		add	sp, sp, #12
 2325              		.cfi_def_cfa_offset 12
 2326              		@ sp needed
 2327 006e 30BD     		pop	{r4, r5, pc}
 2328              	.L197:
 2329              		.align	2
 2330              	.L196:
 2331 0070 00000000 		.word	.LANCHOR1
 2332 0074 00000000 		.word	wrap
 2333              		.cfi_endproc
 2334              	.LFE30:
 2335              		.size	gfx_write, .-gfx_write
 2336              		.section	.text.gfx_print,"ax",%progbits
 2337              		.align	2
 2338              		.global	gfx_print
 2339              		.thumb
 2340              		.thumb_func
 2341              		.type	gfx_print, %function
 2342              	gfx_print:
 2343              	.LFB31:
 897:ssd1306.c     ****     
 2344              		.loc 1 897 0
 2345              		.cfi_startproc
 2346              		@ args = 0, pretend = 0, frame = 0
 2347              		@ frame_needed = 0, uses_anonymous_args = 0
 2348              	.LVL221:
 2349 0000 70B5     		push	{r4, r5, r6, lr}
 2350              		.cfi_def_cfa_offset 16
 2351              		.cfi_offset 4, -16
 2352              		.cfi_offset 5, -12
 2353              		.cfi_offset 6, -8
 2354              		.cfi_offset 14, -4
 2355 0002 0646     		mov	r6, r0
 899:ssd1306.c     ****     unsigned int i = 0; 
 2356              		.loc 1 899 0
 2357 0004 FFF7FEFF 		bl	strlen
 2358              	.LVL222:
 2359 0008 0546     		mov	r5, r0
 2360              	.LVL223:
 901:ssd1306.c     ****         gfx_write( s[i] );
 2361              		.loc 1 901 0
 2362 000a 0024     		movs	r4, #0
 2363 000c 03E0     		b	.L199
 2364              	.LVL224:
 2365              	.L200:
 902:ssd1306.c     ****     }
 2366              		.loc 1 902 0 discriminator 3
 2367 000e 305D     		ldrb	r0, [r6, r4]	@ zero_extendqisi2
ARM GAS  C:\Users\Besitzer\AppData\Local\Temp\cczB0neC.s 			page 63


 2368 0010 FFF7FEFF 		bl	gfx_write
 2369              	.LVL225:
 901:ssd1306.c     ****         gfx_write( s[i] );
 2370              		.loc 1 901 0 discriminator 3
 2371 0014 0134     		adds	r4, r4, #1
 2372              	.LVL226:
 2373              	.L199:
 901:ssd1306.c     ****         gfx_write( s[i] );
 2374              		.loc 1 901 0 is_stmt 0 discriminator 1
 2375 0016 AC42     		cmp	r4, r5
 2376 0018 F9D3     		bcc	.L200
 904:ssd1306.c     **** /***********************************************************************
 2377              		.loc 1 904 0 is_stmt 1
 2378 001a 70BD     		pop	{r4, r5, r6, pc}
 2379              		.cfi_endproc
 2380              	.LFE31:
 2381              		.size	gfx_print, .-gfx_print
 2382              		.section	.text.gfx_println,"ax",%progbits
 2383              		.align	2
 2384              		.global	gfx_println
 2385              		.thumb
 2386              		.thumb_func
 2387              		.type	gfx_println, %function
 2388              	gfx_println:
 2389              	.LFB32:
 912:ssd1306.c     ****     gfx_print( s ); 
 2390              		.loc 1 912 0
 2391              		.cfi_startproc
 2392              		@ args = 0, pretend = 0, frame = 0
 2393              		@ frame_needed = 0, uses_anonymous_args = 0
 2394              	.LVL227:
 2395 0000 08B5     		push	{r3, lr}
 2396              		.cfi_def_cfa_offset 8
 2397              		.cfi_offset 3, -8
 2398              		.cfi_offset 14, -4
 913:ssd1306.c     ****     gfx_write( '\n' );
 2399              		.loc 1 913 0
 2400 0002 FFF7FEFF 		bl	gfx_print
 2401              	.LVL228:
 914:ssd1306.c     **** }
 2402              		.loc 1 914 0
 2403 0006 0A20     		movs	r0, #10
 2404 0008 FFF7FEFF 		bl	gfx_write
 2405              	.LVL229:
 2406 000c 08BD     		pop	{r3, pc}
 2407              		.cfi_endproc
 2408              	.LFE32:
 2409              		.size	gfx_println, .-gfx_println
 2410 000e 00BF     		.section	.text.SSD1306_HAL_Reset,"ax",%progbits
 2411              		.align	2
 2412              		.global	SSD1306_HAL_Reset
 2413              		.thumb
 2414              		.thumb_func
 2415              		.type	SSD1306_HAL_Reset, %function
 2416              	SSD1306_HAL_Reset:
 2417              	.LFB34:
 963:ssd1306.c     **** 
ARM GAS  C:\Users\Besitzer\AppData\Local\Temp\cczB0neC.s 			page 64


 964:ssd1306.c     **** /***********************************************************************
 965:ssd1306.c     **** *! \fn			void SSD1306_HAL_Reset(bool reset)
 966:ssd1306.c     **** *  \brief		reset the SSD1306
 967:ssd1306.c     **** *  \param		bool reset -  1 = Reset, 0 = active
 968:ssd1306.c     **** *  \exception	none
 969:ssd1306.c     **** *  \return		none
 970:ssd1306.c     **** ***********************************************************************/
 971:ssd1306.c     **** void SSD1306_HAL_Reset(bool reset){
 2418              		.loc 1 971 0
 2419              		.cfi_startproc
 2420              		@ args = 0, pretend = 0, frame = 0
 2421              		@ frame_needed = 0, uses_anonymous_args = 0
 2422              	.LVL230:
 2423 0000 08B5     		push	{r3, lr}
 2424              		.cfi_def_cfa_offset 8
 2425              		.cfi_offset 3, -8
 2426              		.cfi_offset 14, -4
 972:ssd1306.c     **** 	
 973:ssd1306.c     **** 	if(reset)
 2427              		.loc 1 973 0
 2428 0002 18B1     		cbz	r0, .L205
 974:ssd1306.c     **** 		SSD1306_Reset_Write(0);
 2429              		.loc 1 974 0
 2430 0004 0020     		movs	r0, #0
 2431              	.LVL231:
 2432 0006 FFF7FEFF 		bl	SSD1306_Reset_Write
 2433              	.LVL232:
 2434 000a 08BD     		pop	{r3, pc}
 2435              	.LVL233:
 2436              	.L205:
 975:ssd1306.c     **** 	else
 976:ssd1306.c     **** 		SSD1306_Reset_Write(1);
 2437              		.loc 1 976 0
 2438 000c 0120     		movs	r0, #1
 2439              	.LVL234:
 2440 000e FFF7FEFF 		bl	SSD1306_Reset_Write
 2441              	.LVL235:
 2442 0012 08BD     		pop	{r3, pc}
 2443              		.cfi_endproc
 2444              	.LFE34:
 2445              		.size	SSD1306_HAL_Reset, .-SSD1306_HAL_Reset
 2446              		.section	.text.SSD1306_Init,"ax",%progbits
 2447              		.align	2
 2448              		.global	SSD1306_Init
 2449              		.thumb
 2450              		.thumb_func
 2451              		.type	SSD1306_Init, %function
 2452              	SSD1306_Init:
 2453              	.LFB0:
 155:ssd1306.c     ****     
 2454              		.loc 1 155 0
 2455              		.cfi_startproc
 2456              		@ args = 0, pretend = 0, frame = 32
 2457              		@ frame_needed = 0, uses_anonymous_args = 0
 2458              	.LVL236:
 2459 0000 30B5     		push	{r4, r5, lr}
 2460              		.cfi_def_cfa_offset 12
ARM GAS  C:\Users\Besitzer\AppData\Local\Temp\cczB0neC.s 			page 65


 2461              		.cfi_offset 4, -12
 2462              		.cfi_offset 5, -8
 2463              		.cfi_offset 14, -4
 2464 0002 89B0     		sub	sp, sp, #36
 2465              		.cfi_def_cfa_offset 48
 2466 0004 0446     		mov	r4, r0
 157:ssd1306.c     ****     I2C_1_Start();
 2467              		.loc 1 157 0
 2468 0006 FFF7FEFF 		bl	I2C_1_Enable
 2469              	.LVL237:
 158:ssd1306.c     **** 
 2470              		.loc 1 158 0
 2471 000a FFF7FEFF 		bl	I2C_1_Start
 2472              	.LVL238:
 160:ssd1306.c     ****     gfx_init( DISPLAYWIDTH, DISPLAYHEIGHT );
 2473              		.loc 1 160 0
 2474 000e 134B     		ldr	r3, .L210
 2475 0010 1C70     		strb	r4, [r3]
 161:ssd1306.c     ****     
 2476              		.loc 1 161 0
 2477 0012 4021     		movs	r1, #64
 2478 0014 8020     		movs	r0, #128
 2479 0016 FFF7FEFF 		bl	gfx_init
 2480              	.LVL239:
 163:ssd1306.c     **** 	CyDelay(500);
 2481              		.loc 1 163 0
 2482 001a 0120     		movs	r0, #1
 2483 001c FFF7FEFF 		bl	SSD1306_HAL_Reset
 2484              	.LVL240:
 164:ssd1306.c     **** 	SSD1306_HAL_Reset(0);
 2485              		.loc 1 164 0
 2486 0020 4FF4FA70 		mov	r0, #500
 2487 0024 FFF7FEFF 		bl	CyDelay
 2488              	.LVL241:
 165:ssd1306.c     **** 	CyDelay(800);
 2489              		.loc 1 165 0
 2490 0028 0020     		movs	r0, #0
 2491 002a FFF7FEFF 		bl	SSD1306_HAL_Reset
 2492              	.LVL242:
 166:ssd1306.c     **** 
 2493              		.loc 1 166 0
 2494 002e 4FF44870 		mov	r0, #800
 2495 0032 FFF7FEFF 		bl	CyDelay
 2496              	.LVL243:
 168:ssd1306.c     ****         0x00,
 2497              		.loc 1 168 0
 2498 0036 6C46     		mov	r4, sp
 2499 0038 094D     		ldr	r5, .L210+4
 2500 003a 2868     		ldr	r0, [r5]	@ unaligned
 2501 003c 6968     		ldr	r1, [r5, #4]	@ unaligned
 2502 003e AA68     		ldr	r2, [r5, #8]	@ unaligned
 2503 0040 EB68     		ldr	r3, [r5, #12]	@ unaligned
 2504 0042 0FC4     		stmia	r4!, {r0, r1, r2, r3}
 2505 0044 2869     		ldr	r0, [r5, #16]	@ unaligned
 2506 0046 6969     		ldr	r1, [r5, #20]	@ unaligned
 2507 0048 AA69     		ldr	r2, [r5, #24]	@ unaligned
 2508 004a EB69     		ldr	r3, [r5, #28]	@ unaligned
ARM GAS  C:\Users\Besitzer\AppData\Local\Temp\cczB0neC.s 			page 66


 2509 004c 0FC4     		stmia	r4!, {r0, r1, r2, r3}
 216:ssd1306.c     **** 
 2510              		.loc 1 216 0
 2511 004e 2021     		movs	r1, #32
 2512 0050 6846     		mov	r0, sp
 2513 0052 FFF7FEFF 		bl	display_write_buf
 2514              	.LVL244:
 218:ssd1306.c     **** /***********************************************************************
 2515              		.loc 1 218 0
 2516 0056 09B0     		add	sp, sp, #36
 2517              		.cfi_def_cfa_offset 12
 2518              		@ sp needed
 2519 0058 30BD     		pop	{r4, r5, pc}
 2520              	.L211:
 2521 005a 00BF     		.align	2
 2522              	.L210:
 2523 005c 00000000 		.word	.LANCHOR1
 2524 0060 FC040000 		.word	.LANCHOR2+1276
 2525              		.cfi_endproc
 2526              	.LFE0:
 2527              		.size	SSD1306_Init, .-SSD1306_Init
 2528              		.section	.text.SSD1306_HAL_CS,"ax",%progbits
 2529              		.align	2
 2530              		.global	SSD1306_HAL_CS
 2531              		.thumb
 2532              		.thumb_func
 2533              		.type	SSD1306_HAL_CS, %function
 2534              	SSD1306_HAL_CS:
 2535              	.LFB35:
 977:ssd1306.c     **** }
 978:ssd1306.c     **** 
 979:ssd1306.c     **** /***********************************************************************
 980:ssd1306.c     **** *! \fn			void SSD1306_HAL_CS(bool cs)
 981:ssd1306.c     **** *  \brief		control the SSD1306 cs pn
 982:ssd1306.c     **** *  \param		bool cs -  1 = enable, 0 = disable
 983:ssd1306.c     **** *  \exception	none
 984:ssd1306.c     **** *  \return		none
 985:ssd1306.c     **** ***********************************************************************/
 986:ssd1306.c     **** void SSD1306_HAL_CS(bool cs){
 2536              		.loc 1 986 0
 2537              		.cfi_startproc
 2538              		@ args = 0, pretend = 0, frame = 0
 2539              		@ frame_needed = 0, uses_anonymous_args = 0
 2540              		@ link register save eliminated.
 2541              	.LVL245:
 2542 0000 7047     		bx	lr
 2543              		.cfi_endproc
 2544              	.LFE35:
 2545              		.size	SSD1306_HAL_CS, .-SSD1306_HAL_CS
 2546 0002 00BF     		.section	.text.SSD1306_HAL_DC,"ax",%progbits
 2547              		.align	2
 2548              		.global	SSD1306_HAL_DC
 2549              		.thumb
 2550              		.thumb_func
 2551              		.type	SSD1306_HAL_DC, %function
 2552              	SSD1306_HAL_DC:
 2553              	.LFB36:
ARM GAS  C:\Users\Besitzer\AppData\Local\Temp\cczB0neC.s 			page 67


 987:ssd1306.c     **** #ifdef _Interface_SPI_
 988:ssd1306.c     **** 	if(cs)
 989:ssd1306.c     **** 		SSD1306_CS_Write(0);
 990:ssd1306.c     **** 	else
 991:ssd1306.c     **** 		SSD1306_CS_Write(1);
 992:ssd1306.c     **** #endif
 993:ssd1306.c     **** }
 994:ssd1306.c     **** 
 995:ssd1306.c     **** /***********************************************************************
 996:ssd1306.c     **** *! \fn			void SSD1306_HAL_DC(bool dc)
 997:ssd1306.c     **** *  \brief		control the SSD1306 dc pn
 998:ssd1306.c     **** *  \param		bool dc -  0 = Command, 1 = Data
 999:ssd1306.c     **** *  \exception	none
1000:ssd1306.c     **** *  \return		none
1001:ssd1306.c     **** ***********************************************************************/
1002:ssd1306.c     **** void SSD1306_HAL_DC(bool dc){
 2554              		.loc 1 1002 0
 2555              		.cfi_startproc
 2556              		@ args = 0, pretend = 0, frame = 0
 2557              		@ frame_needed = 0, uses_anonymous_args = 0
 2558              		@ link register save eliminated.
 2559              	.LVL246:
 2560 0000 7047     		bx	lr
 2561              		.cfi_endproc
 2562              	.LFE36:
 2563              		.size	SSD1306_HAL_DC, .-SSD1306_HAL_DC
 2564              		.comm	wrap,1,1
 2565              		.comm	rotation,1,1
 2566              		.comm	HEIGHT,2,2
 2567              		.comm	WIDTH,2,2
 2568 0002 00BF     		.section	.rodata
 2569              		.align	2
 2570              		.set	.LANCHOR2,. + 0
 2571              		.type	font, %object
 2572              		.size	font, 1275
 2573              	font:
 2574 0000 00       		.byte	0
 2575 0001 00       		.byte	0
 2576 0002 00       		.byte	0
 2577 0003 00       		.byte	0
 2578 0004 00       		.byte	0
 2579 0005 3E       		.byte	62
 2580 0006 5B       		.byte	91
 2581 0007 4F       		.byte	79
 2582 0008 5B       		.byte	91
 2583 0009 3E       		.byte	62
 2584 000a 3E       		.byte	62
 2585 000b 6B       		.byte	107
 2586 000c 4F       		.byte	79
 2587 000d 6B       		.byte	107
 2588 000e 3E       		.byte	62
 2589 000f 1C       		.byte	28
 2590 0010 3E       		.byte	62
 2591 0011 7C       		.byte	124
 2592 0012 3E       		.byte	62
 2593 0013 1C       		.byte	28
 2594 0014 18       		.byte	24
ARM GAS  C:\Users\Besitzer\AppData\Local\Temp\cczB0neC.s 			page 68


 2595 0015 3C       		.byte	60
 2596 0016 7E       		.byte	126
 2597 0017 3C       		.byte	60
 2598 0018 18       		.byte	24
 2599 0019 1C       		.byte	28
 2600 001a 57       		.byte	87
 2601 001b 7D       		.byte	125
 2602 001c 57       		.byte	87
 2603 001d 1C       		.byte	28
 2604 001e 1C       		.byte	28
 2605 001f 5E       		.byte	94
 2606 0020 7F       		.byte	127
 2607 0021 5E       		.byte	94
 2608 0022 1C       		.byte	28
 2609 0023 00       		.byte	0
 2610 0024 18       		.byte	24
 2611 0025 3C       		.byte	60
 2612 0026 18       		.byte	24
 2613 0027 00       		.byte	0
 2614 0028 FF       		.byte	-1
 2615 0029 E7       		.byte	-25
 2616 002a C3       		.byte	-61
 2617 002b E7       		.byte	-25
 2618 002c FF       		.byte	-1
 2619 002d 00       		.byte	0
 2620 002e 18       		.byte	24
 2621 002f 24       		.byte	36
 2622 0030 18       		.byte	24
 2623 0031 00       		.byte	0
 2624 0032 FF       		.byte	-1
 2625 0033 E7       		.byte	-25
 2626 0034 DB       		.byte	-37
 2627 0035 E7       		.byte	-25
 2628 0036 FF       		.byte	-1
 2629 0037 30       		.byte	48
 2630 0038 48       		.byte	72
 2631 0039 3A       		.byte	58
 2632 003a 06       		.byte	6
 2633 003b 0E       		.byte	14
 2634 003c 26       		.byte	38
 2635 003d 29       		.byte	41
 2636 003e 79       		.byte	121
 2637 003f 29       		.byte	41
 2638 0040 26       		.byte	38
 2639 0041 40       		.byte	64
 2640 0042 7F       		.byte	127
 2641 0043 05       		.byte	5
 2642 0044 05       		.byte	5
 2643 0045 07       		.byte	7
 2644 0046 40       		.byte	64
 2645 0047 7F       		.byte	127
 2646 0048 05       		.byte	5
 2647 0049 25       		.byte	37
 2648 004a 3F       		.byte	63
 2649 004b 5A       		.byte	90
 2650 004c 3C       		.byte	60
 2651 004d E7       		.byte	-25
ARM GAS  C:\Users\Besitzer\AppData\Local\Temp\cczB0neC.s 			page 69


 2652 004e 3C       		.byte	60
 2653 004f 5A       		.byte	90
 2654 0050 7F       		.byte	127
 2655 0051 3E       		.byte	62
 2656 0052 1C       		.byte	28
 2657 0053 1C       		.byte	28
 2658 0054 08       		.byte	8
 2659 0055 08       		.byte	8
 2660 0056 1C       		.byte	28
 2661 0057 1C       		.byte	28
 2662 0058 3E       		.byte	62
 2663 0059 7F       		.byte	127
 2664 005a 14       		.byte	20
 2665 005b 22       		.byte	34
 2666 005c 7F       		.byte	127
 2667 005d 22       		.byte	34
 2668 005e 14       		.byte	20
 2669 005f 5F       		.byte	95
 2670 0060 5F       		.byte	95
 2671 0061 00       		.byte	0
 2672 0062 5F       		.byte	95
 2673 0063 5F       		.byte	95
 2674 0064 06       		.byte	6
 2675 0065 09       		.byte	9
 2676 0066 7F       		.byte	127
 2677 0067 01       		.byte	1
 2678 0068 7F       		.byte	127
 2679 0069 00       		.byte	0
 2680 006a 66       		.byte	102
 2681 006b 89       		.byte	-119
 2682 006c 95       		.byte	-107
 2683 006d 6A       		.byte	106
 2684 006e 60       		.byte	96
 2685 006f 60       		.byte	96
 2686 0070 60       		.byte	96
 2687 0071 60       		.byte	96
 2688 0072 60       		.byte	96
 2689 0073 94       		.byte	-108
 2690 0074 A2       		.byte	-94
 2691 0075 FF       		.byte	-1
 2692 0076 A2       		.byte	-94
 2693 0077 94       		.byte	-108
 2694 0078 08       		.byte	8
 2695 0079 04       		.byte	4
 2696 007a 7E       		.byte	126
 2697 007b 04       		.byte	4
 2698 007c 08       		.byte	8
 2699 007d 10       		.byte	16
 2700 007e 20       		.byte	32
 2701 007f 7E       		.byte	126
 2702 0080 20       		.byte	32
 2703 0081 10       		.byte	16
 2704 0082 08       		.byte	8
 2705 0083 08       		.byte	8
 2706 0084 2A       		.byte	42
 2707 0085 1C       		.byte	28
 2708 0086 08       		.byte	8
ARM GAS  C:\Users\Besitzer\AppData\Local\Temp\cczB0neC.s 			page 70


 2709 0087 08       		.byte	8
 2710 0088 1C       		.byte	28
 2711 0089 2A       		.byte	42
 2712 008a 08       		.byte	8
 2713 008b 08       		.byte	8
 2714 008c 1E       		.byte	30
 2715 008d 10       		.byte	16
 2716 008e 10       		.byte	16
 2717 008f 10       		.byte	16
 2718 0090 10       		.byte	16
 2719 0091 0C       		.byte	12
 2720 0092 1E       		.byte	30
 2721 0093 0C       		.byte	12
 2722 0094 1E       		.byte	30
 2723 0095 0C       		.byte	12
 2724 0096 30       		.byte	48
 2725 0097 38       		.byte	56
 2726 0098 3E       		.byte	62
 2727 0099 38       		.byte	56
 2728 009a 30       		.byte	48
 2729 009b 06       		.byte	6
 2730 009c 0E       		.byte	14
 2731 009d 3E       		.byte	62
 2732 009e 0E       		.byte	14
 2733 009f 06       		.byte	6
 2734 00a0 00       		.byte	0
 2735 00a1 00       		.byte	0
 2736 00a2 00       		.byte	0
 2737 00a3 00       		.byte	0
 2738 00a4 00       		.byte	0
 2739 00a5 00       		.byte	0
 2740 00a6 00       		.byte	0
 2741 00a7 5F       		.byte	95
 2742 00a8 00       		.byte	0
 2743 00a9 00       		.byte	0
 2744 00aa 00       		.byte	0
 2745 00ab 07       		.byte	7
 2746 00ac 00       		.byte	0
 2747 00ad 07       		.byte	7
 2748 00ae 00       		.byte	0
 2749 00af 14       		.byte	20
 2750 00b0 7F       		.byte	127
 2751 00b1 14       		.byte	20
 2752 00b2 7F       		.byte	127
 2753 00b3 14       		.byte	20
 2754 00b4 24       		.byte	36
 2755 00b5 2A       		.byte	42
 2756 00b6 7F       		.byte	127
 2757 00b7 2A       		.byte	42
 2758 00b8 12       		.byte	18
 2759 00b9 23       		.byte	35
 2760 00ba 13       		.byte	19
 2761 00bb 08       		.byte	8
 2762 00bc 64       		.byte	100
 2763 00bd 62       		.byte	98
 2764 00be 36       		.byte	54
 2765 00bf 49       		.byte	73
ARM GAS  C:\Users\Besitzer\AppData\Local\Temp\cczB0neC.s 			page 71


 2766 00c0 56       		.byte	86
 2767 00c1 20       		.byte	32
 2768 00c2 50       		.byte	80
 2769 00c3 00       		.byte	0
 2770 00c4 08       		.byte	8
 2771 00c5 07       		.byte	7
 2772 00c6 03       		.byte	3
 2773 00c7 00       		.byte	0
 2774 00c8 00       		.byte	0
 2775 00c9 1C       		.byte	28
 2776 00ca 22       		.byte	34
 2777 00cb 41       		.byte	65
 2778 00cc 00       		.byte	0
 2779 00cd 00       		.byte	0
 2780 00ce 41       		.byte	65
 2781 00cf 22       		.byte	34
 2782 00d0 1C       		.byte	28
 2783 00d1 00       		.byte	0
 2784 00d2 2A       		.byte	42
 2785 00d3 1C       		.byte	28
 2786 00d4 7F       		.byte	127
 2787 00d5 1C       		.byte	28
 2788 00d6 2A       		.byte	42
 2789 00d7 08       		.byte	8
 2790 00d8 08       		.byte	8
 2791 00d9 3E       		.byte	62
 2792 00da 08       		.byte	8
 2793 00db 08       		.byte	8
 2794 00dc 00       		.byte	0
 2795 00dd 80       		.byte	-128
 2796 00de 70       		.byte	112
 2797 00df 30       		.byte	48
 2798 00e0 00       		.byte	0
 2799 00e1 08       		.byte	8
 2800 00e2 08       		.byte	8
 2801 00e3 08       		.byte	8
 2802 00e4 08       		.byte	8
 2803 00e5 08       		.byte	8
 2804 00e6 00       		.byte	0
 2805 00e7 00       		.byte	0
 2806 00e8 60       		.byte	96
 2807 00e9 60       		.byte	96
 2808 00ea 00       		.byte	0
 2809 00eb 20       		.byte	32
 2810 00ec 10       		.byte	16
 2811 00ed 08       		.byte	8
 2812 00ee 04       		.byte	4
 2813 00ef 02       		.byte	2
 2814 00f0 3E       		.byte	62
 2815 00f1 51       		.byte	81
 2816 00f2 49       		.byte	73
 2817 00f3 45       		.byte	69
 2818 00f4 3E       		.byte	62
 2819 00f5 00       		.byte	0
 2820 00f6 42       		.byte	66
 2821 00f7 7F       		.byte	127
 2822 00f8 40       		.byte	64
ARM GAS  C:\Users\Besitzer\AppData\Local\Temp\cczB0neC.s 			page 72


 2823 00f9 00       		.byte	0
 2824 00fa 72       		.byte	114
 2825 00fb 49       		.byte	73
 2826 00fc 49       		.byte	73
 2827 00fd 49       		.byte	73
 2828 00fe 46       		.byte	70
 2829 00ff 21       		.byte	33
 2830 0100 41       		.byte	65
 2831 0101 49       		.byte	73
 2832 0102 4D       		.byte	77
 2833 0103 33       		.byte	51
 2834 0104 18       		.byte	24
 2835 0105 14       		.byte	20
 2836 0106 12       		.byte	18
 2837 0107 7F       		.byte	127
 2838 0108 10       		.byte	16
 2839 0109 27       		.byte	39
 2840 010a 45       		.byte	69
 2841 010b 45       		.byte	69
 2842 010c 45       		.byte	69
 2843 010d 39       		.byte	57
 2844 010e 3C       		.byte	60
 2845 010f 4A       		.byte	74
 2846 0110 49       		.byte	73
 2847 0111 49       		.byte	73
 2848 0112 31       		.byte	49
 2849 0113 41       		.byte	65
 2850 0114 21       		.byte	33
 2851 0115 11       		.byte	17
 2852 0116 09       		.byte	9
 2853 0117 07       		.byte	7
 2854 0118 36       		.byte	54
 2855 0119 49       		.byte	73
 2856 011a 49       		.byte	73
 2857 011b 49       		.byte	73
 2858 011c 36       		.byte	54
 2859 011d 46       		.byte	70
 2860 011e 49       		.byte	73
 2861 011f 49       		.byte	73
 2862 0120 29       		.byte	41
 2863 0121 1E       		.byte	30
 2864 0122 00       		.byte	0
 2865 0123 00       		.byte	0
 2866 0124 14       		.byte	20
 2867 0125 00       		.byte	0
 2868 0126 00       		.byte	0
 2869 0127 00       		.byte	0
 2870 0128 40       		.byte	64
 2871 0129 34       		.byte	52
 2872 012a 00       		.byte	0
 2873 012b 00       		.byte	0
 2874 012c 00       		.byte	0
 2875 012d 08       		.byte	8
 2876 012e 14       		.byte	20
 2877 012f 22       		.byte	34
 2878 0130 41       		.byte	65
 2879 0131 14       		.byte	20
ARM GAS  C:\Users\Besitzer\AppData\Local\Temp\cczB0neC.s 			page 73


 2880 0132 14       		.byte	20
 2881 0133 14       		.byte	20
 2882 0134 14       		.byte	20
 2883 0135 14       		.byte	20
 2884 0136 00       		.byte	0
 2885 0137 41       		.byte	65
 2886 0138 22       		.byte	34
 2887 0139 14       		.byte	20
 2888 013a 08       		.byte	8
 2889 013b 02       		.byte	2
 2890 013c 01       		.byte	1
 2891 013d 59       		.byte	89
 2892 013e 09       		.byte	9
 2893 013f 06       		.byte	6
 2894 0140 3E       		.byte	62
 2895 0141 41       		.byte	65
 2896 0142 5D       		.byte	93
 2897 0143 59       		.byte	89
 2898 0144 4E       		.byte	78
 2899 0145 7C       		.byte	124
 2900 0146 12       		.byte	18
 2901 0147 11       		.byte	17
 2902 0148 12       		.byte	18
 2903 0149 7C       		.byte	124
 2904 014a 7F       		.byte	127
 2905 014b 49       		.byte	73
 2906 014c 49       		.byte	73
 2907 014d 49       		.byte	73
 2908 014e 36       		.byte	54
 2909 014f 3E       		.byte	62
 2910 0150 41       		.byte	65
 2911 0151 41       		.byte	65
 2912 0152 41       		.byte	65
 2913 0153 22       		.byte	34
 2914 0154 7F       		.byte	127
 2915 0155 41       		.byte	65
 2916 0156 41       		.byte	65
 2917 0157 41       		.byte	65
 2918 0158 3E       		.byte	62
 2919 0159 7F       		.byte	127
 2920 015a 49       		.byte	73
 2921 015b 49       		.byte	73
 2922 015c 49       		.byte	73
 2923 015d 41       		.byte	65
 2924 015e 7F       		.byte	127
 2925 015f 09       		.byte	9
 2926 0160 09       		.byte	9
 2927 0161 09       		.byte	9
 2928 0162 01       		.byte	1
 2929 0163 3E       		.byte	62
 2930 0164 41       		.byte	65
 2931 0165 41       		.byte	65
 2932 0166 51       		.byte	81
 2933 0167 73       		.byte	115
 2934 0168 7F       		.byte	127
 2935 0169 08       		.byte	8
 2936 016a 08       		.byte	8
ARM GAS  C:\Users\Besitzer\AppData\Local\Temp\cczB0neC.s 			page 74


 2937 016b 08       		.byte	8
 2938 016c 7F       		.byte	127
 2939 016d 00       		.byte	0
 2940 016e 41       		.byte	65
 2941 016f 7F       		.byte	127
 2942 0170 41       		.byte	65
 2943 0171 00       		.byte	0
 2944 0172 20       		.byte	32
 2945 0173 40       		.byte	64
 2946 0174 41       		.byte	65
 2947 0175 3F       		.byte	63
 2948 0176 01       		.byte	1
 2949 0177 7F       		.byte	127
 2950 0178 08       		.byte	8
 2951 0179 14       		.byte	20
 2952 017a 22       		.byte	34
 2953 017b 41       		.byte	65
 2954 017c 7F       		.byte	127
 2955 017d 40       		.byte	64
 2956 017e 40       		.byte	64
 2957 017f 40       		.byte	64
 2958 0180 40       		.byte	64
 2959 0181 7F       		.byte	127
 2960 0182 02       		.byte	2
 2961 0183 1C       		.byte	28
 2962 0184 02       		.byte	2
 2963 0185 7F       		.byte	127
 2964 0186 7F       		.byte	127
 2965 0187 04       		.byte	4
 2966 0188 08       		.byte	8
 2967 0189 10       		.byte	16
 2968 018a 7F       		.byte	127
 2969 018b 3E       		.byte	62
 2970 018c 41       		.byte	65
 2971 018d 41       		.byte	65
 2972 018e 41       		.byte	65
 2973 018f 3E       		.byte	62
 2974 0190 7F       		.byte	127
 2975 0191 09       		.byte	9
 2976 0192 09       		.byte	9
 2977 0193 09       		.byte	9
 2978 0194 06       		.byte	6
 2979 0195 3E       		.byte	62
 2980 0196 41       		.byte	65
 2981 0197 51       		.byte	81
 2982 0198 21       		.byte	33
 2983 0199 5E       		.byte	94
 2984 019a 7F       		.byte	127
 2985 019b 09       		.byte	9
 2986 019c 19       		.byte	25
 2987 019d 29       		.byte	41
 2988 019e 46       		.byte	70
 2989 019f 26       		.byte	38
 2990 01a0 49       		.byte	73
 2991 01a1 49       		.byte	73
 2992 01a2 49       		.byte	73
 2993 01a3 32       		.byte	50
ARM GAS  C:\Users\Besitzer\AppData\Local\Temp\cczB0neC.s 			page 75


 2994 01a4 03       		.byte	3
 2995 01a5 01       		.byte	1
 2996 01a6 7F       		.byte	127
 2997 01a7 01       		.byte	1
 2998 01a8 03       		.byte	3
 2999 01a9 3F       		.byte	63
 3000 01aa 40       		.byte	64
 3001 01ab 40       		.byte	64
 3002 01ac 40       		.byte	64
 3003 01ad 3F       		.byte	63
 3004 01ae 1F       		.byte	31
 3005 01af 20       		.byte	32
 3006 01b0 40       		.byte	64
 3007 01b1 20       		.byte	32
 3008 01b2 1F       		.byte	31
 3009 01b3 3F       		.byte	63
 3010 01b4 40       		.byte	64
 3011 01b5 38       		.byte	56
 3012 01b6 40       		.byte	64
 3013 01b7 3F       		.byte	63
 3014 01b8 63       		.byte	99
 3015 01b9 14       		.byte	20
 3016 01ba 08       		.byte	8
 3017 01bb 14       		.byte	20
 3018 01bc 63       		.byte	99
 3019 01bd 03       		.byte	3
 3020 01be 04       		.byte	4
 3021 01bf 78       		.byte	120
 3022 01c0 04       		.byte	4
 3023 01c1 03       		.byte	3
 3024 01c2 61       		.byte	97
 3025 01c3 59       		.byte	89
 3026 01c4 49       		.byte	73
 3027 01c5 4D       		.byte	77
 3028 01c6 43       		.byte	67
 3029 01c7 00       		.byte	0
 3030 01c8 7F       		.byte	127
 3031 01c9 41       		.byte	65
 3032 01ca 41       		.byte	65
 3033 01cb 41       		.byte	65
 3034 01cc 02       		.byte	2
 3035 01cd 04       		.byte	4
 3036 01ce 08       		.byte	8
 3037 01cf 10       		.byte	16
 3038 01d0 20       		.byte	32
 3039 01d1 00       		.byte	0
 3040 01d2 41       		.byte	65
 3041 01d3 41       		.byte	65
 3042 01d4 41       		.byte	65
 3043 01d5 7F       		.byte	127
 3044 01d6 04       		.byte	4
 3045 01d7 02       		.byte	2
 3046 01d8 01       		.byte	1
 3047 01d9 02       		.byte	2
 3048 01da 04       		.byte	4
 3049 01db 40       		.byte	64
 3050 01dc 40       		.byte	64
ARM GAS  C:\Users\Besitzer\AppData\Local\Temp\cczB0neC.s 			page 76


 3051 01dd 40       		.byte	64
 3052 01de 40       		.byte	64
 3053 01df 40       		.byte	64
 3054 01e0 00       		.byte	0
 3055 01e1 03       		.byte	3
 3056 01e2 07       		.byte	7
 3057 01e3 08       		.byte	8
 3058 01e4 00       		.byte	0
 3059 01e5 20       		.byte	32
 3060 01e6 54       		.byte	84
 3061 01e7 54       		.byte	84
 3062 01e8 78       		.byte	120
 3063 01e9 40       		.byte	64
 3064 01ea 7F       		.byte	127
 3065 01eb 28       		.byte	40
 3066 01ec 44       		.byte	68
 3067 01ed 44       		.byte	68
 3068 01ee 38       		.byte	56
 3069 01ef 38       		.byte	56
 3070 01f0 44       		.byte	68
 3071 01f1 44       		.byte	68
 3072 01f2 44       		.byte	68
 3073 01f3 28       		.byte	40
 3074 01f4 38       		.byte	56
 3075 01f5 44       		.byte	68
 3076 01f6 44       		.byte	68
 3077 01f7 28       		.byte	40
 3078 01f8 7F       		.byte	127
 3079 01f9 38       		.byte	56
 3080 01fa 54       		.byte	84
 3081 01fb 54       		.byte	84
 3082 01fc 54       		.byte	84
 3083 01fd 18       		.byte	24
 3084 01fe 00       		.byte	0
 3085 01ff 08       		.byte	8
 3086 0200 7E       		.byte	126
 3087 0201 09       		.byte	9
 3088 0202 02       		.byte	2
 3089 0203 18       		.byte	24
 3090 0204 A4       		.byte	-92
 3091 0205 A4       		.byte	-92
 3092 0206 9C       		.byte	-100
 3093 0207 78       		.byte	120
 3094 0208 7F       		.byte	127
 3095 0209 08       		.byte	8
 3096 020a 04       		.byte	4
 3097 020b 04       		.byte	4
 3098 020c 78       		.byte	120
 3099 020d 00       		.byte	0
 3100 020e 44       		.byte	68
 3101 020f 7D       		.byte	125
 3102 0210 40       		.byte	64
 3103 0211 00       		.byte	0
 3104 0212 20       		.byte	32
 3105 0213 40       		.byte	64
 3106 0214 40       		.byte	64
 3107 0215 3D       		.byte	61
ARM GAS  C:\Users\Besitzer\AppData\Local\Temp\cczB0neC.s 			page 77


 3108 0216 00       		.byte	0
 3109 0217 7F       		.byte	127
 3110 0218 10       		.byte	16
 3111 0219 28       		.byte	40
 3112 021a 44       		.byte	68
 3113 021b 00       		.byte	0
 3114 021c 00       		.byte	0
 3115 021d 41       		.byte	65
 3116 021e 7F       		.byte	127
 3117 021f 40       		.byte	64
 3118 0220 00       		.byte	0
 3119 0221 7C       		.byte	124
 3120 0222 04       		.byte	4
 3121 0223 78       		.byte	120
 3122 0224 04       		.byte	4
 3123 0225 78       		.byte	120
 3124 0226 7C       		.byte	124
 3125 0227 08       		.byte	8
 3126 0228 04       		.byte	4
 3127 0229 04       		.byte	4
 3128 022a 78       		.byte	120
 3129 022b 38       		.byte	56
 3130 022c 44       		.byte	68
 3131 022d 44       		.byte	68
 3132 022e 44       		.byte	68
 3133 022f 38       		.byte	56
 3134 0230 FC       		.byte	-4
 3135 0231 18       		.byte	24
 3136 0232 24       		.byte	36
 3137 0233 24       		.byte	36
 3138 0234 18       		.byte	24
 3139 0235 18       		.byte	24
 3140 0236 24       		.byte	36
 3141 0237 24       		.byte	36
 3142 0238 18       		.byte	24
 3143 0239 FC       		.byte	-4
 3144 023a 7C       		.byte	124
 3145 023b 08       		.byte	8
 3146 023c 04       		.byte	4
 3147 023d 04       		.byte	4
 3148 023e 08       		.byte	8
 3149 023f 48       		.byte	72
 3150 0240 54       		.byte	84
 3151 0241 54       		.byte	84
 3152 0242 54       		.byte	84
 3153 0243 24       		.byte	36
 3154 0244 04       		.byte	4
 3155 0245 04       		.byte	4
 3156 0246 3F       		.byte	63
 3157 0247 44       		.byte	68
 3158 0248 24       		.byte	36
 3159 0249 3C       		.byte	60
 3160 024a 40       		.byte	64
 3161 024b 40       		.byte	64
 3162 024c 20       		.byte	32
 3163 024d 7C       		.byte	124
 3164 024e 1C       		.byte	28
ARM GAS  C:\Users\Besitzer\AppData\Local\Temp\cczB0neC.s 			page 78


 3165 024f 20       		.byte	32
 3166 0250 40       		.byte	64
 3167 0251 20       		.byte	32
 3168 0252 1C       		.byte	28
 3169 0253 3C       		.byte	60
 3170 0254 40       		.byte	64
 3171 0255 30       		.byte	48
 3172 0256 40       		.byte	64
 3173 0257 3C       		.byte	60
 3174 0258 44       		.byte	68
 3175 0259 28       		.byte	40
 3176 025a 10       		.byte	16
 3177 025b 28       		.byte	40
 3178 025c 44       		.byte	68
 3179 025d 4C       		.byte	76
 3180 025e 90       		.byte	-112
 3181 025f 90       		.byte	-112
 3182 0260 90       		.byte	-112
 3183 0261 7C       		.byte	124
 3184 0262 44       		.byte	68
 3185 0263 64       		.byte	100
 3186 0264 54       		.byte	84
 3187 0265 4C       		.byte	76
 3188 0266 44       		.byte	68
 3189 0267 00       		.byte	0
 3190 0268 08       		.byte	8
 3191 0269 36       		.byte	54
 3192 026a 41       		.byte	65
 3193 026b 00       		.byte	0
 3194 026c 00       		.byte	0
 3195 026d 00       		.byte	0
 3196 026e 77       		.byte	119
 3197 026f 00       		.byte	0
 3198 0270 00       		.byte	0
 3199 0271 00       		.byte	0
 3200 0272 41       		.byte	65
 3201 0273 36       		.byte	54
 3202 0274 08       		.byte	8
 3203 0275 00       		.byte	0
 3204 0276 02       		.byte	2
 3205 0277 01       		.byte	1
 3206 0278 02       		.byte	2
 3207 0279 04       		.byte	4
 3208 027a 02       		.byte	2
 3209 027b 3C       		.byte	60
 3210 027c 26       		.byte	38
 3211 027d 23       		.byte	35
 3212 027e 26       		.byte	38
 3213 027f 3C       		.byte	60
 3214 0280 1E       		.byte	30
 3215 0281 A1       		.byte	-95
 3216 0282 A1       		.byte	-95
 3217 0283 61       		.byte	97
 3218 0284 12       		.byte	18
 3219 0285 3A       		.byte	58
 3220 0286 40       		.byte	64
 3221 0287 40       		.byte	64
ARM GAS  C:\Users\Besitzer\AppData\Local\Temp\cczB0neC.s 			page 79


 3222 0288 20       		.byte	32
 3223 0289 7A       		.byte	122
 3224 028a 38       		.byte	56
 3225 028b 54       		.byte	84
 3226 028c 54       		.byte	84
 3227 028d 55       		.byte	85
 3228 028e 59       		.byte	89
 3229 028f 21       		.byte	33
 3230 0290 55       		.byte	85
 3231 0291 55       		.byte	85
 3232 0292 79       		.byte	121
 3233 0293 41       		.byte	65
 3234 0294 22       		.byte	34
 3235 0295 54       		.byte	84
 3236 0296 54       		.byte	84
 3237 0297 78       		.byte	120
 3238 0298 42       		.byte	66
 3239 0299 21       		.byte	33
 3240 029a 55       		.byte	85
 3241 029b 54       		.byte	84
 3242 029c 78       		.byte	120
 3243 029d 40       		.byte	64
 3244 029e 20       		.byte	32
 3245 029f 54       		.byte	84
 3246 02a0 55       		.byte	85
 3247 02a1 79       		.byte	121
 3248 02a2 40       		.byte	64
 3249 02a3 0C       		.byte	12
 3250 02a4 1E       		.byte	30
 3251 02a5 52       		.byte	82
 3252 02a6 72       		.byte	114
 3253 02a7 12       		.byte	18
 3254 02a8 39       		.byte	57
 3255 02a9 55       		.byte	85
 3256 02aa 55       		.byte	85
 3257 02ab 55       		.byte	85
 3258 02ac 59       		.byte	89
 3259 02ad 39       		.byte	57
 3260 02ae 54       		.byte	84
 3261 02af 54       		.byte	84
 3262 02b0 54       		.byte	84
 3263 02b1 59       		.byte	89
 3264 02b2 39       		.byte	57
 3265 02b3 55       		.byte	85
 3266 02b4 54       		.byte	84
 3267 02b5 54       		.byte	84
 3268 02b6 58       		.byte	88
 3269 02b7 00       		.byte	0
 3270 02b8 00       		.byte	0
 3271 02b9 45       		.byte	69
 3272 02ba 7C       		.byte	124
 3273 02bb 41       		.byte	65
 3274 02bc 00       		.byte	0
 3275 02bd 02       		.byte	2
 3276 02be 45       		.byte	69
 3277 02bf 7D       		.byte	125
 3278 02c0 42       		.byte	66
ARM GAS  C:\Users\Besitzer\AppData\Local\Temp\cczB0neC.s 			page 80


 3279 02c1 00       		.byte	0
 3280 02c2 01       		.byte	1
 3281 02c3 45       		.byte	69
 3282 02c4 7C       		.byte	124
 3283 02c5 40       		.byte	64
 3284 02c6 7D       		.byte	125
 3285 02c7 12       		.byte	18
 3286 02c8 11       		.byte	17
 3287 02c9 12       		.byte	18
 3288 02ca 7D       		.byte	125
 3289 02cb F0       		.byte	-16
 3290 02cc 28       		.byte	40
 3291 02cd 25       		.byte	37
 3292 02ce 28       		.byte	40
 3293 02cf F0       		.byte	-16
 3294 02d0 7C       		.byte	124
 3295 02d1 54       		.byte	84
 3296 02d2 55       		.byte	85
 3297 02d3 45       		.byte	69
 3298 02d4 00       		.byte	0
 3299 02d5 20       		.byte	32
 3300 02d6 54       		.byte	84
 3301 02d7 54       		.byte	84
 3302 02d8 7C       		.byte	124
 3303 02d9 54       		.byte	84
 3304 02da 7C       		.byte	124
 3305 02db 0A       		.byte	10
 3306 02dc 09       		.byte	9
 3307 02dd 7F       		.byte	127
 3308 02de 49       		.byte	73
 3309 02df 32       		.byte	50
 3310 02e0 49       		.byte	73
 3311 02e1 49       		.byte	73
 3312 02e2 49       		.byte	73
 3313 02e3 32       		.byte	50
 3314 02e4 3A       		.byte	58
 3315 02e5 44       		.byte	68
 3316 02e6 44       		.byte	68
 3317 02e7 44       		.byte	68
 3318 02e8 3A       		.byte	58
 3319 02e9 32       		.byte	50
 3320 02ea 4A       		.byte	74
 3321 02eb 48       		.byte	72
 3322 02ec 48       		.byte	72
 3323 02ed 30       		.byte	48
 3324 02ee 3A       		.byte	58
 3325 02ef 41       		.byte	65
 3326 02f0 41       		.byte	65
 3327 02f1 21       		.byte	33
 3328 02f2 7A       		.byte	122
 3329 02f3 3A       		.byte	58
 3330 02f4 42       		.byte	66
 3331 02f5 40       		.byte	64
 3332 02f6 20       		.byte	32
 3333 02f7 78       		.byte	120
 3334 02f8 00       		.byte	0
 3335 02f9 9D       		.byte	-99
ARM GAS  C:\Users\Besitzer\AppData\Local\Temp\cczB0neC.s 			page 81


 3336 02fa A0       		.byte	-96
 3337 02fb A0       		.byte	-96
 3338 02fc 7D       		.byte	125
 3339 02fd 3D       		.byte	61
 3340 02fe 42       		.byte	66
 3341 02ff 42       		.byte	66
 3342 0300 42       		.byte	66
 3343 0301 3D       		.byte	61
 3344 0302 3D       		.byte	61
 3345 0303 40       		.byte	64
 3346 0304 40       		.byte	64
 3347 0305 40       		.byte	64
 3348 0306 3D       		.byte	61
 3349 0307 3C       		.byte	60
 3350 0308 24       		.byte	36
 3351 0309 FF       		.byte	-1
 3352 030a 24       		.byte	36
 3353 030b 24       		.byte	36
 3354 030c 48       		.byte	72
 3355 030d 7E       		.byte	126
 3356 030e 49       		.byte	73
 3357 030f 43       		.byte	67
 3358 0310 66       		.byte	102
 3359 0311 2B       		.byte	43
 3360 0312 2F       		.byte	47
 3361 0313 FC       		.byte	-4
 3362 0314 2F       		.byte	47
 3363 0315 2B       		.byte	43
 3364 0316 FF       		.byte	-1
 3365 0317 09       		.byte	9
 3366 0318 29       		.byte	41
 3367 0319 F6       		.byte	-10
 3368 031a 20       		.byte	32
 3369 031b C0       		.byte	-64
 3370 031c 88       		.byte	-120
 3371 031d 7E       		.byte	126
 3372 031e 09       		.byte	9
 3373 031f 03       		.byte	3
 3374 0320 20       		.byte	32
 3375 0321 54       		.byte	84
 3376 0322 54       		.byte	84
 3377 0323 79       		.byte	121
 3378 0324 41       		.byte	65
 3379 0325 00       		.byte	0
 3380 0326 00       		.byte	0
 3381 0327 44       		.byte	68
 3382 0328 7D       		.byte	125
 3383 0329 41       		.byte	65
 3384 032a 30       		.byte	48
 3385 032b 48       		.byte	72
 3386 032c 48       		.byte	72
 3387 032d 4A       		.byte	74
 3388 032e 32       		.byte	50
 3389 032f 38       		.byte	56
 3390 0330 40       		.byte	64
 3391 0331 40       		.byte	64
 3392 0332 22       		.byte	34
ARM GAS  C:\Users\Besitzer\AppData\Local\Temp\cczB0neC.s 			page 82


 3393 0333 7A       		.byte	122
 3394 0334 00       		.byte	0
 3395 0335 7A       		.byte	122
 3396 0336 0A       		.byte	10
 3397 0337 0A       		.byte	10
 3398 0338 72       		.byte	114
 3399 0339 7D       		.byte	125
 3400 033a 0D       		.byte	13
 3401 033b 19       		.byte	25
 3402 033c 31       		.byte	49
 3403 033d 7D       		.byte	125
 3404 033e 26       		.byte	38
 3405 033f 29       		.byte	41
 3406 0340 29       		.byte	41
 3407 0341 2F       		.byte	47
 3408 0342 28       		.byte	40
 3409 0343 26       		.byte	38
 3410 0344 29       		.byte	41
 3411 0345 29       		.byte	41
 3412 0346 29       		.byte	41
 3413 0347 26       		.byte	38
 3414 0348 30       		.byte	48
 3415 0349 48       		.byte	72
 3416 034a 4D       		.byte	77
 3417 034b 40       		.byte	64
 3418 034c 20       		.byte	32
 3419 034d 38       		.byte	56
 3420 034e 08       		.byte	8
 3421 034f 08       		.byte	8
 3422 0350 08       		.byte	8
 3423 0351 08       		.byte	8
 3424 0352 08       		.byte	8
 3425 0353 08       		.byte	8
 3426 0354 08       		.byte	8
 3427 0355 08       		.byte	8
 3428 0356 38       		.byte	56
 3429 0357 2F       		.byte	47
 3430 0358 10       		.byte	16
 3431 0359 C8       		.byte	-56
 3432 035a AC       		.byte	-84
 3433 035b BA       		.byte	-70
 3434 035c 2F       		.byte	47
 3435 035d 10       		.byte	16
 3436 035e 28       		.byte	40
 3437 035f 34       		.byte	52
 3438 0360 FA       		.byte	-6
 3439 0361 00       		.byte	0
 3440 0362 00       		.byte	0
 3441 0363 7B       		.byte	123
 3442 0364 00       		.byte	0
 3443 0365 00       		.byte	0
 3444 0366 08       		.byte	8
 3445 0367 14       		.byte	20
 3446 0368 2A       		.byte	42
 3447 0369 14       		.byte	20
 3448 036a 22       		.byte	34
 3449 036b 22       		.byte	34
ARM GAS  C:\Users\Besitzer\AppData\Local\Temp\cczB0neC.s 			page 83


 3450 036c 14       		.byte	20
 3451 036d 2A       		.byte	42
 3452 036e 14       		.byte	20
 3453 036f 08       		.byte	8
 3454 0370 AA       		.byte	-86
 3455 0371 00       		.byte	0
 3456 0372 55       		.byte	85
 3457 0373 00       		.byte	0
 3458 0374 AA       		.byte	-86
 3459 0375 AA       		.byte	-86
 3460 0376 55       		.byte	85
 3461 0377 AA       		.byte	-86
 3462 0378 55       		.byte	85
 3463 0379 AA       		.byte	-86
 3464 037a 00       		.byte	0
 3465 037b 00       		.byte	0
 3466 037c 00       		.byte	0
 3467 037d FF       		.byte	-1
 3468 037e 00       		.byte	0
 3469 037f 10       		.byte	16
 3470 0380 10       		.byte	16
 3471 0381 10       		.byte	16
 3472 0382 FF       		.byte	-1
 3473 0383 00       		.byte	0
 3474 0384 14       		.byte	20
 3475 0385 14       		.byte	20
 3476 0386 14       		.byte	20
 3477 0387 FF       		.byte	-1
 3478 0388 00       		.byte	0
 3479 0389 10       		.byte	16
 3480 038a 10       		.byte	16
 3481 038b FF       		.byte	-1
 3482 038c 00       		.byte	0
 3483 038d FF       		.byte	-1
 3484 038e 10       		.byte	16
 3485 038f 10       		.byte	16
 3486 0390 F0       		.byte	-16
 3487 0391 10       		.byte	16
 3488 0392 F0       		.byte	-16
 3489 0393 14       		.byte	20
 3490 0394 14       		.byte	20
 3491 0395 14       		.byte	20
 3492 0396 FC       		.byte	-4
 3493 0397 00       		.byte	0
 3494 0398 14       		.byte	20
 3495 0399 14       		.byte	20
 3496 039a F7       		.byte	-9
 3497 039b 00       		.byte	0
 3498 039c FF       		.byte	-1
 3499 039d 00       		.byte	0
 3500 039e 00       		.byte	0
 3501 039f FF       		.byte	-1
 3502 03a0 00       		.byte	0
 3503 03a1 FF       		.byte	-1
 3504 03a2 14       		.byte	20
 3505 03a3 14       		.byte	20
 3506 03a4 F4       		.byte	-12
ARM GAS  C:\Users\Besitzer\AppData\Local\Temp\cczB0neC.s 			page 84


 3507 03a5 04       		.byte	4
 3508 03a6 FC       		.byte	-4
 3509 03a7 14       		.byte	20
 3510 03a8 14       		.byte	20
 3511 03a9 17       		.byte	23
 3512 03aa 10       		.byte	16
 3513 03ab 1F       		.byte	31
 3514 03ac 10       		.byte	16
 3515 03ad 10       		.byte	16
 3516 03ae 1F       		.byte	31
 3517 03af 10       		.byte	16
 3518 03b0 1F       		.byte	31
 3519 03b1 14       		.byte	20
 3520 03b2 14       		.byte	20
 3521 03b3 14       		.byte	20
 3522 03b4 1F       		.byte	31
 3523 03b5 00       		.byte	0
 3524 03b6 10       		.byte	16
 3525 03b7 10       		.byte	16
 3526 03b8 10       		.byte	16
 3527 03b9 F0       		.byte	-16
 3528 03ba 00       		.byte	0
 3529 03bb 00       		.byte	0
 3530 03bc 00       		.byte	0
 3531 03bd 00       		.byte	0
 3532 03be 1F       		.byte	31
 3533 03bf 10       		.byte	16
 3534 03c0 10       		.byte	16
 3535 03c1 10       		.byte	16
 3536 03c2 10       		.byte	16
 3537 03c3 1F       		.byte	31
 3538 03c4 10       		.byte	16
 3539 03c5 10       		.byte	16
 3540 03c6 10       		.byte	16
 3541 03c7 10       		.byte	16
 3542 03c8 F0       		.byte	-16
 3543 03c9 10       		.byte	16
 3544 03ca 00       		.byte	0
 3545 03cb 00       		.byte	0
 3546 03cc 00       		.byte	0
 3547 03cd FF       		.byte	-1
 3548 03ce 10       		.byte	16
 3549 03cf 10       		.byte	16
 3550 03d0 10       		.byte	16
 3551 03d1 10       		.byte	16
 3552 03d2 10       		.byte	16
 3553 03d3 10       		.byte	16
 3554 03d4 10       		.byte	16
 3555 03d5 10       		.byte	16
 3556 03d6 10       		.byte	16
 3557 03d7 FF       		.byte	-1
 3558 03d8 10       		.byte	16
 3559 03d9 00       		.byte	0
 3560 03da 00       		.byte	0
 3561 03db 00       		.byte	0
 3562 03dc FF       		.byte	-1
 3563 03dd 14       		.byte	20
ARM GAS  C:\Users\Besitzer\AppData\Local\Temp\cczB0neC.s 			page 85


 3564 03de 00       		.byte	0
 3565 03df 00       		.byte	0
 3566 03e0 FF       		.byte	-1
 3567 03e1 00       		.byte	0
 3568 03e2 FF       		.byte	-1
 3569 03e3 00       		.byte	0
 3570 03e4 00       		.byte	0
 3571 03e5 1F       		.byte	31
 3572 03e6 10       		.byte	16
 3573 03e7 17       		.byte	23
 3574 03e8 00       		.byte	0
 3575 03e9 00       		.byte	0
 3576 03ea FC       		.byte	-4
 3577 03eb 04       		.byte	4
 3578 03ec F4       		.byte	-12
 3579 03ed 14       		.byte	20
 3580 03ee 14       		.byte	20
 3581 03ef 17       		.byte	23
 3582 03f0 10       		.byte	16
 3583 03f1 17       		.byte	23
 3584 03f2 14       		.byte	20
 3585 03f3 14       		.byte	20
 3586 03f4 F4       		.byte	-12
 3587 03f5 04       		.byte	4
 3588 03f6 F4       		.byte	-12
 3589 03f7 00       		.byte	0
 3590 03f8 00       		.byte	0
 3591 03f9 FF       		.byte	-1
 3592 03fa 00       		.byte	0
 3593 03fb F7       		.byte	-9
 3594 03fc 14       		.byte	20
 3595 03fd 14       		.byte	20
 3596 03fe 14       		.byte	20
 3597 03ff 14       		.byte	20
 3598 0400 14       		.byte	20
 3599 0401 14       		.byte	20
 3600 0402 14       		.byte	20
 3601 0403 F7       		.byte	-9
 3602 0404 00       		.byte	0
 3603 0405 F7       		.byte	-9
 3604 0406 14       		.byte	20
 3605 0407 14       		.byte	20
 3606 0408 14       		.byte	20
 3607 0409 17       		.byte	23
 3608 040a 14       		.byte	20
 3609 040b 10       		.byte	16
 3610 040c 10       		.byte	16
 3611 040d 1F       		.byte	31
 3612 040e 10       		.byte	16
 3613 040f 1F       		.byte	31
 3614 0410 14       		.byte	20
 3615 0411 14       		.byte	20
 3616 0412 14       		.byte	20
 3617 0413 F4       		.byte	-12
 3618 0414 14       		.byte	20
 3619 0415 10       		.byte	16
 3620 0416 10       		.byte	16
ARM GAS  C:\Users\Besitzer\AppData\Local\Temp\cczB0neC.s 			page 86


 3621 0417 F0       		.byte	-16
 3622 0418 10       		.byte	16
 3623 0419 F0       		.byte	-16
 3624 041a 00       		.byte	0
 3625 041b 00       		.byte	0
 3626 041c 1F       		.byte	31
 3627 041d 10       		.byte	16
 3628 041e 1F       		.byte	31
 3629 041f 00       		.byte	0
 3630 0420 00       		.byte	0
 3631 0421 00       		.byte	0
 3632 0422 1F       		.byte	31
 3633 0423 14       		.byte	20
 3634 0424 00       		.byte	0
 3635 0425 00       		.byte	0
 3636 0426 00       		.byte	0
 3637 0427 FC       		.byte	-4
 3638 0428 14       		.byte	20
 3639 0429 00       		.byte	0
 3640 042a 00       		.byte	0
 3641 042b F0       		.byte	-16
 3642 042c 10       		.byte	16
 3643 042d F0       		.byte	-16
 3644 042e 10       		.byte	16
 3645 042f 10       		.byte	16
 3646 0430 FF       		.byte	-1
 3647 0431 10       		.byte	16
 3648 0432 FF       		.byte	-1
 3649 0433 14       		.byte	20
 3650 0434 14       		.byte	20
 3651 0435 14       		.byte	20
 3652 0436 FF       		.byte	-1
 3653 0437 14       		.byte	20
 3654 0438 10       		.byte	16
 3655 0439 10       		.byte	16
 3656 043a 10       		.byte	16
 3657 043b 1F       		.byte	31
 3658 043c 00       		.byte	0
 3659 043d 00       		.byte	0
 3660 043e 00       		.byte	0
 3661 043f 00       		.byte	0
 3662 0440 F0       		.byte	-16
 3663 0441 10       		.byte	16
 3664 0442 FF       		.byte	-1
 3665 0443 FF       		.byte	-1
 3666 0444 FF       		.byte	-1
 3667 0445 FF       		.byte	-1
 3668 0446 FF       		.byte	-1
 3669 0447 F0       		.byte	-16
 3670 0448 F0       		.byte	-16
 3671 0449 F0       		.byte	-16
 3672 044a F0       		.byte	-16
 3673 044b F0       		.byte	-16
 3674 044c FF       		.byte	-1
 3675 044d FF       		.byte	-1
 3676 044e FF       		.byte	-1
 3677 044f 00       		.byte	0
ARM GAS  C:\Users\Besitzer\AppData\Local\Temp\cczB0neC.s 			page 87


 3678 0450 00       		.byte	0
 3679 0451 00       		.byte	0
 3680 0452 00       		.byte	0
 3681 0453 00       		.byte	0
 3682 0454 FF       		.byte	-1
 3683 0455 FF       		.byte	-1
 3684 0456 0F       		.byte	15
 3685 0457 0F       		.byte	15
 3686 0458 0F       		.byte	15
 3687 0459 0F       		.byte	15
 3688 045a 0F       		.byte	15
 3689 045b 38       		.byte	56
 3690 045c 44       		.byte	68
 3691 045d 44       		.byte	68
 3692 045e 38       		.byte	56
 3693 045f 44       		.byte	68
 3694 0460 FC       		.byte	-4
 3695 0461 4A       		.byte	74
 3696 0462 4A       		.byte	74
 3697 0463 4A       		.byte	74
 3698 0464 34       		.byte	52
 3699 0465 7E       		.byte	126
 3700 0466 02       		.byte	2
 3701 0467 02       		.byte	2
 3702 0468 06       		.byte	6
 3703 0469 06       		.byte	6
 3704 046a 02       		.byte	2
 3705 046b 7E       		.byte	126
 3706 046c 02       		.byte	2
 3707 046d 7E       		.byte	126
 3708 046e 02       		.byte	2
 3709 046f 63       		.byte	99
 3710 0470 55       		.byte	85
 3711 0471 49       		.byte	73
 3712 0472 41       		.byte	65
 3713 0473 63       		.byte	99
 3714 0474 38       		.byte	56
 3715 0475 44       		.byte	68
 3716 0476 44       		.byte	68
 3717 0477 3C       		.byte	60
 3718 0478 04       		.byte	4
 3719 0479 40       		.byte	64
 3720 047a 7E       		.byte	126
 3721 047b 20       		.byte	32
 3722 047c 1E       		.byte	30
 3723 047d 20       		.byte	32
 3724 047e 06       		.byte	6
 3725 047f 02       		.byte	2
 3726 0480 7E       		.byte	126
 3727 0481 02       		.byte	2
 3728 0482 02       		.byte	2
 3729 0483 99       		.byte	-103
 3730 0484 A5       		.byte	-91
 3731 0485 E7       		.byte	-25
 3732 0486 A5       		.byte	-91
 3733 0487 99       		.byte	-103
 3734 0488 1C       		.byte	28
ARM GAS  C:\Users\Besitzer\AppData\Local\Temp\cczB0neC.s 			page 88


 3735 0489 2A       		.byte	42
 3736 048a 49       		.byte	73
 3737 048b 2A       		.byte	42
 3738 048c 1C       		.byte	28
 3739 048d 4C       		.byte	76
 3740 048e 72       		.byte	114
 3741 048f 01       		.byte	1
 3742 0490 72       		.byte	114
 3743 0491 4C       		.byte	76
 3744 0492 30       		.byte	48
 3745 0493 4A       		.byte	74
 3746 0494 4D       		.byte	77
 3747 0495 4D       		.byte	77
 3748 0496 30       		.byte	48
 3749 0497 30       		.byte	48
 3750 0498 48       		.byte	72
 3751 0499 78       		.byte	120
 3752 049a 48       		.byte	72
 3753 049b 30       		.byte	48
 3754 049c BC       		.byte	-68
 3755 049d 62       		.byte	98
 3756 049e 5A       		.byte	90
 3757 049f 46       		.byte	70
 3758 04a0 3D       		.byte	61
 3759 04a1 3E       		.byte	62
 3760 04a2 49       		.byte	73
 3761 04a3 49       		.byte	73
 3762 04a4 49       		.byte	73
 3763 04a5 00       		.byte	0
 3764 04a6 7E       		.byte	126
 3765 04a7 01       		.byte	1
 3766 04a8 01       		.byte	1
 3767 04a9 01       		.byte	1
 3768 04aa 7E       		.byte	126
 3769 04ab 2A       		.byte	42
 3770 04ac 2A       		.byte	42
 3771 04ad 2A       		.byte	42
 3772 04ae 2A       		.byte	42
 3773 04af 2A       		.byte	42
 3774 04b0 44       		.byte	68
 3775 04b1 44       		.byte	68
 3776 04b2 5F       		.byte	95
 3777 04b3 44       		.byte	68
 3778 04b4 44       		.byte	68
 3779 04b5 40       		.byte	64
 3780 04b6 51       		.byte	81
 3781 04b7 4A       		.byte	74
 3782 04b8 44       		.byte	68
 3783 04b9 40       		.byte	64
 3784 04ba 40       		.byte	64
 3785 04bb 44       		.byte	68
 3786 04bc 4A       		.byte	74
 3787 04bd 51       		.byte	81
 3788 04be 40       		.byte	64
 3789 04bf 00       		.byte	0
 3790 04c0 00       		.byte	0
 3791 04c1 FF       		.byte	-1
ARM GAS  C:\Users\Besitzer\AppData\Local\Temp\cczB0neC.s 			page 89


 3792 04c2 01       		.byte	1
 3793 04c3 03       		.byte	3
 3794 04c4 E0       		.byte	-32
 3795 04c5 80       		.byte	-128
 3796 04c6 FF       		.byte	-1
 3797 04c7 00       		.byte	0
 3798 04c8 00       		.byte	0
 3799 04c9 08       		.byte	8
 3800 04ca 08       		.byte	8
 3801 04cb 6B       		.byte	107
 3802 04cc 6B       		.byte	107
 3803 04cd 08       		.byte	8
 3804 04ce 36       		.byte	54
 3805 04cf 12       		.byte	18
 3806 04d0 36       		.byte	54
 3807 04d1 24       		.byte	36
 3808 04d2 36       		.byte	54
 3809 04d3 06       		.byte	6
 3810 04d4 0F       		.byte	15
 3811 04d5 09       		.byte	9
 3812 04d6 0F       		.byte	15
 3813 04d7 06       		.byte	6
 3814 04d8 00       		.byte	0
 3815 04d9 00       		.byte	0
 3816 04da 18       		.byte	24
 3817 04db 18       		.byte	24
 3818 04dc 00       		.byte	0
 3819 04dd 00       		.byte	0
 3820 04de 00       		.byte	0
 3821 04df 10       		.byte	16
 3822 04e0 10       		.byte	16
 3823 04e1 00       		.byte	0
 3824 04e2 30       		.byte	48
 3825 04e3 40       		.byte	64
 3826 04e4 FF       		.byte	-1
 3827 04e5 01       		.byte	1
 3828 04e6 01       		.byte	1
 3829 04e7 00       		.byte	0
 3830 04e8 1F       		.byte	31
 3831 04e9 01       		.byte	1
 3832 04ea 01       		.byte	1
 3833 04eb 1E       		.byte	30
 3834 04ec 00       		.byte	0
 3835 04ed 19       		.byte	25
 3836 04ee 1D       		.byte	29
 3837 04ef 17       		.byte	23
 3838 04f0 12       		.byte	18
 3839 04f1 00       		.byte	0
 3840 04f2 3C       		.byte	60
 3841 04f3 3C       		.byte	60
 3842 04f4 3C       		.byte	60
 3843 04f5 3C       		.byte	60
 3844 04f6 00       		.byte	0
 3845 04f7 00       		.byte	0
 3846 04f8 00       		.byte	0
 3847 04f9 00       		.byte	0
 3848 04fa 00       		.byte	0
ARM GAS  C:\Users\Besitzer\AppData\Local\Temp\cczB0neC.s 			page 90


 3849 04fb 00       		.space	1
 3850              	.LC0:
 3851 04fc 00       		.byte	0
 3852 04fd AE       		.byte	-82
 3853 04fe D5       		.byte	-43
 3854 04ff 80       		.byte	-128
 3855 0500 A8       		.byte	-88
 3856 0501 3F       		.byte	63
 3857 0502 D3       		.byte	-45
 3858 0503 00       		.byte	0
 3859 0504 40       		.byte	64
 3860 0505 21       		.byte	33
 3861 0506 00       		.byte	0
 3862 0507 7F       		.byte	127
 3863 0508 22       		.byte	34
 3864 0509 00       		.byte	0
 3865 050a 07       		.byte	7
 3866 050b 8D       		.byte	-115
 3867 050c 14       		.byte	20
 3868 050d DA       		.byte	-38
 3869 050e 12       		.byte	18
 3870 050f 81       		.byte	-127
 3871 0510 7F       		.byte	127
 3872 0511 D9       		.byte	-39
 3873 0512 F1       		.byte	-15
 3874 0513 DB       		.byte	-37
 3875 0514 40       		.byte	64
 3876 0515 A4       		.byte	-92
 3877 0516 A6       		.byte	-90
 3878 0517 AF       		.byte	-81
 3879 0518 20       		.byte	32
 3880 0519 00       		.byte	0
 3881 051a A1       		.byte	-95
 3882 051b C8       		.byte	-56
 3883              		.data
 3884              		.align	2
 3885              		.set	.LANCHOR0,. + 0
 3886              		.type	SSD1306_buffer, %object
 3887              		.size	SSD1306_buffer, 1025
 3888              	SSD1306_buffer:
 3889 0000 40       		.byte	64
 3890 0001 00000000 		.space	1024
 3890      00000000 
 3890      00000000 
 3890      00000000 
 3890      00000000 
 3891              		.bss
 3892              		.align	1
 3893              		.set	.LANCHOR1,. + 0
 3894              		.type	_i2caddr, %object
 3895              		.size	_i2caddr, 1
 3896              	_i2caddr:
 3897 0000 00       		.space	1
 3898 0001 00       		.space	1
 3899              		.type	_width, %object
 3900              		.size	_width, 2
 3901              	_width:
ARM GAS  C:\Users\Besitzer\AppData\Local\Temp\cczB0neC.s 			page 91


 3902 0002 0000     		.space	2
 3903              		.type	_height, %object
 3904              		.size	_height, 2
 3905              	_height:
 3906 0004 0000     		.space	2
 3907              		.type	cursor_x, %object
 3908              		.size	cursor_x, 2
 3909              	cursor_x:
 3910 0006 0000     		.space	2
 3911              		.type	cursor_y, %object
 3912              		.size	cursor_y, 2
 3913              	cursor_y:
 3914 0008 0000     		.space	2
 3915              		.type	textsize, %object
 3916              		.size	textsize, 1
 3917              	textsize:
 3918 000a 00       		.space	1
 3919 000b 00       		.space	1
 3920              		.type	textbgcolor, %object
 3921              		.size	textbgcolor, 2
 3922              	textbgcolor:
 3923 000c 0000     		.space	2
 3924              		.type	textcolor, %object
 3925              		.size	textcolor, 2
 3926              	textcolor:
 3927 000e 0000     		.space	2
 3928              		.text
 3929              	.Letext0:
 3930              		.file 2 "c:\\program files (x86)\\cypress\\psoc creator\\4.4\\psoc creator\\import\\gnu\\arm\\5.4.
 3931              		.file 3 "c:\\program files (x86)\\cypress\\psoc creator\\4.4\\psoc creator\\import\\gnu\\arm\\5.4.
 3932              		.file 4 "ssd1306.h"
 3933              		.file 5 "Generated_Source\\PSoC5/cytypes.h"
 3934              		.file 6 "font.h"
 3935              		.file 7 "Generated_Source\\PSoC5/I2C_1.h"
 3936              		.file 8 "c:\\program files (x86)\\cypress\\psoc creator\\4.4\\psoc creator\\import\\gnu\\arm\\5.4.
 3937              		.file 9 "Generated_Source\\PSoC5/SSD1306_Reset.h"
 3938              		.file 10 "Generated_Source\\PSoC5/CyLib.h"