ARM GAS  C:\Users\Besitzer\AppData\Local\Temp\cczB0neC.s 			page 1


   1              		.syntax unified
   2              		.cpu cortex-m3
   3              		.fpu softvfp
   4              		.eabi_attribute 20, 1
   5              		.eabi_attribute 21, 1
   6              		.eabi_attribute 23, 3
   7              		.eabi_attribute 24, 1
   8              		.eabi_attribute 25, 1
   9              		.eabi_attribute 26, 1
  10              		.eabi_attribute 30, 1
  11              		.eabi_attribute 34, 1
  12              		.eabi_attribute 18, 4
  13              		.thumb
  14              		.syntax unified
  15              		.file	"ssd1306.c"
  16              		.text
  17              	.Ltext0:
  18              		.cfi_sections	.debug_frame
  19              		.section	.text.display_setPixel,"ax",%progbits
  20              		.align	2
  21              		.thumb
  22              		.thumb_func
  23              		.type	display_setPixel, %function
  24              	display_setPixel:
  25              	.LFB1:
  26              		.file 1 "ssd1306.c"
   1:ssd1306.c     **** /***********************************************************************
   2:ssd1306.c     **** *! \file:                   SSD1306.c
   3:ssd1306.c     **** *  \projekt:                JmBadge Bicycle
   4:ssd1306.c     **** *  \created on:             Apr 19, 2019
   5:ssd1306.c     **** *  \author:                 R. Gräber
   6:ssd1306.c     **** *  \version:                0
   7:ssd1306.c     **** *  \history:                -
   8:ssd1306.c     **** *  \brief					±1.5g - 6g Three Axis Low-g Micromachined 
   9:ssd1306.c     **** *  AccelerometerThe MMA7260QT low cost capacitive micromachined 
  10:ssd1306.c     **** *  accelerometer features signal conditioning, a 1-pole low pass filter, 
  11:ssd1306.c     **** *  temperature compensation and g-Select which allows for the selection 
  12:ssd1306.c     **** *  among 4 sensitivities. Zero-g offset full scale span and filter 
  13:ssd1306.c     **** *  cut-off are factory set and require no external devices. Includes 
  14:ssd1306.c     **** *  a Sleep Mode that makes it ideal for handheld battery powered 
  15:ssd1306.c     **** *  electronics
  16:ssd1306.c     **** ***********************************************************************/
  17:ssd1306.c     **** 
  18:ssd1306.c     **** /***********************************************************************
  19:ssd1306.c     **** * Includes
  20:ssd1306.c     **** ***********************************************************************/
  21:ssd1306.c     **** #include <stdlib.h>
  22:ssd1306.c     **** #include "ssd1306.h"
  23:ssd1306.c     **** #include "SSD1306_Reset.h"
  24:ssd1306.c     **** #include "I2C_1.h"
  25:ssd1306.c     **** #include "font.h"
  26:ssd1306.c     **** /***********************************************************************
  27:ssd1306.c     **** * Informations
  28:ssd1306.c     **** ***********************************************************************/
  29:ssd1306.c     **** //https://www.nxp.com/files-static/sensors/doc/data_sheet/MMA7260QT.pdf
  30:ssd1306.c     **** //https://www.mikrocontroller.net/topic/415651
  31:ssd1306.c     **** /***********************************************************************
ARM GAS  C:\Users\Besitzer\AppData\Local\Temp\cczB0neC.s 			page 2


  32:ssd1306.c     **** * Global Variable
  33:ssd1306.c     **** ***********************************************************************/
  34:ssd1306.c     **** 
  35:ssd1306.c     **** /***********************************************************************
  36:ssd1306.c     **** * Constant and Definitions
  37:ssd1306.c     **** ***********************************************************************/
  38:ssd1306.c     **** 
  39:ssd1306.c     **** #define SSD1306_CMD_REG         		                    0x00
  40:ssd1306.c     **** #define SSD1306_DATA_REG        		                    0x40
  41:ssd1306.c     **** 
  42:ssd1306.c     **** #define DISPLAYWIDTH                                        128
  43:ssd1306.c     **** #define DISPLAYHEIGHT                                       64
  44:ssd1306.c     **** #define DISPLAYPAGES                                        8                      
  45:ssd1306.c     ****     
  46:ssd1306.c     **** #define SSD1306_SETCONTRAST                                 0x81
  47:ssd1306.c     **** #define SSD1306_DISPLAYALLON_RESUME                         0xA4
  48:ssd1306.c     **** #define SSD1306_DISPLAYALLON                                0xA5
  49:ssd1306.c     **** #define SSD1306_NORMALDISPLAY                               0xA6
  50:ssd1306.c     **** #define SSD1306_INVERTDISPLAY                               0xA7
  51:ssd1306.c     **** #define SSD1306_DISPLAYOFF                                  0xAE
  52:ssd1306.c     **** #define SSD1306_DISPLAYON                                   0xAF
  53:ssd1306.c     **** #define SSD1306_SETDISPLAYOFFSET                            0xD3
  54:ssd1306.c     **** #define SSD1306_SETCOMPINS                                  0xDA
  55:ssd1306.c     **** #define SSD1306_SETVCOMDETECT                               0xDB
  56:ssd1306.c     **** #define SSD1306_SETDISPLAYCLOCKDIV                          0xD5
  57:ssd1306.c     **** #define SSD1306_SETPRECHARGE                                0xD9
  58:ssd1306.c     **** #define SSD1306_SETMULTIPLEX                                0xA8
  59:ssd1306.c     **** #define SSD1306_SETLOWCOLUMN                                0x00
  60:ssd1306.c     **** #define SSD1306_SETHIGHCOLUMN                               0x10
  61:ssd1306.c     **** #define SSD1306_SETSTARTLINE                                0x40
  62:ssd1306.c     **** #define SSD1306_MEMORYMODE                                  0x20
  63:ssd1306.c     **** #define SSD1306_COLUMNADDR                                  0x21
  64:ssd1306.c     **** #define SSD1306_PAGEADDR                                    0x22
  65:ssd1306.c     **** #define SSD1306_COMSCANINC                                  0xC0
  66:ssd1306.c     **** #define SSD1306_COMSCANDEC                                  0xC8
  67:ssd1306.c     **** #define SSD1306_SEGREMAP                                    0xA0
  68:ssd1306.c     **** #define SSD1306_CHARGEPUMP                                  0x8D
  69:ssd1306.c     **** #define SSD1306_EXTERNALVCC                                 0x1
  70:ssd1306.c     **** #define SSD1306_SWITCHCAPVCC                                0x2
  71:ssd1306.c     **** #define SSD1306_ACTIVATE_SCROLL                             0x2F
  72:ssd1306.c     **** #define SSD1306_DEACTIVATE_SCROLL                           0x2E
  73:ssd1306.c     **** #define SSD1306_SET_VERTICAL_SCROLL_AREA 				    0xA3
  74:ssd1306.c     **** #define SSD1306_RIGHT_HORIZONTAL_SCROLL 				    0x26
  75:ssd1306.c     **** #define SSD1306_LEFT_HORIZONTAL_SCROLL 					    0x27
  76:ssd1306.c     **** #define SSD1306_VERTICAL_AND_RIGHT_HORIZONTAL_SCROLL 	    0x29
  77:ssd1306.c     **** #define SSD1306_VERTICAL_AND_LEFT_HORIZONTAL_SCROLL 	    0x2A
  78:ssd1306.c     **** 
  79:ssd1306.c     **** // I2C result status
  80:ssd1306.c     **** #define TRANSFER_CMPLT    (0x00u)
  81:ssd1306.c     **** #define TRANSFER_ERROR    (0xFFu)
  82:ssd1306.c     **** 
  83:ssd1306.c     **** #define SSD1306_PIXEL_BLACK  		  	                    0 /* 0 is a black pixel */
  84:ssd1306.c     **** #define SSD1306_PIXEL_WHITE  		  	                    1 /* 1 is a color/white pixel */
  85:ssd1306.c     **** #define SSD1306_COLOR_PIXEL_SET      	                    SSD1306_PIXEL_WHITE /* color for a pixel 
  86:ssd1306.c     **** #define SSD1306_COLOR_PIXEL_CLR      	                    SSD1306_PIXEL_BLACK /* color for a pixel 
  87:ssd1306.c     **** 
  88:ssd1306.c     **** #define SSD1306_COLOR_BLACK          	                    SSD1306_PIXEL_BLACK
ARM GAS  C:\Users\Besitzer\AppData\Local\Temp\cczB0neC.s 			page 3


  89:ssd1306.c     **** #define SSD1306_COLOR_WHITE          	                    SSD1306_PIXEL_WHITE
  90:ssd1306.c     **** #define SSD1306_COLOR_RED            	                    SSD1306_PIXEL_WHITE
  91:ssd1306.c     **** #define SSD1306_COLOR_BRIGHT_RED     	                    SSD1306_COLOR_WHITE
  92:ssd1306.c     **** #define SSD1306_COLOR_DARK_RED       	                    SSD1306_PIXEL_WHITE
  93:ssd1306.c     **** #define SSD1306_COLOR_GREEN          	                    SSD1306_PIXEL_WHITE
  94:ssd1306.c     **** #define SSD1306_COLOR_BRIGHT_GREEN   	                    SSD1306_PIXEL_WHITE
  95:ssd1306.c     **** #define SSD1306_COLOR_DARK_GREEN     	                    SSD1306_PIXEL_WHITE
  96:ssd1306.c     **** #define SSD1306_COLOR_BLUE           	                    SSD1306_PIXEL_WHITE
  97:ssd1306.c     **** #define SSD1306_COLOR_BRIGHT_BLUE    	                    SSD1306_PIXEL_WHITE
  98:ssd1306.c     **** #define SSD1306_COLOR_DARK_BLUE      	                    SSD1306_PIXEL_WHITE
  99:ssd1306.c     **** #define SSD1306_COLOR_YELLOW         	                    SSD1306_PIXEL_WHITE
 100:ssd1306.c     **** #define SSD1306_COLOR_BRIGHT_YELLOW  	                    SSD1306_PIXEL_WHITE
 101:ssd1306.c     **** #define SSD1306_COLOR_ORANGE         	                    SSD1306_PIXEL_WHITE
 102:ssd1306.c     **** #define SSD1306_COLOR_GREY           	                    SSD1306_PIXEL_WHITE
 103:ssd1306.c     **** #define SSD1306_COLOR_BRIGHT_GREY    	                    SSD1306_PIXEL_WHITE
 104:ssd1306.c     **** 
 105:ssd1306.c     **** #define SSD1306_PIXEL_ON  			  	                    SSD1306_COLOR_WHITE /* value of a pixel if it i
 106:ssd1306.c     **** #define SSD1306_PIXEL_OFF 			 	                    SSD1306_COLOR_BLACK /* value of a pixel if it is
 107:ssd1306.c     **** 
 108:ssd1306.c     **** 
 109:ssd1306.c     **** // see data sheet page 25 for Graphic Display Data RAM organization
 110:ssd1306.c     **** // 8 pages, each page a row of DISPLAYWIDTH bytes
 111:ssd1306.c     **** // start address of of row: y/8*DISPLAYWIDTH
 112:ssd1306.c     **** // x pos in row: == x 
 113:ssd1306.c     **** #define GDDRAM_ADDRESS(X,Y) ((_displaybuf)+((Y)/8)*(DISPLAYWIDTH)+(X))
 114:ssd1306.c     **** 
 115:ssd1306.c     **** // lower 3 bit of y determine vertical pixel position (pos 0...7) in GDDRAM byte
 116:ssd1306.c     **** // (y&0x07) == position of pixel on row (page). LSB is top, MSB bottom
 117:ssd1306.c     **** #define GDDRAM_PIXMASK(Y) (1 << ((Y)&0x07))
 118:ssd1306.c     **** 
 119:ssd1306.c     **** #define PIXEL_ON(X,Y) (*GDDRAM_ADDRESS(x,y) |= GDDRAM_PIXMASK(y))
 120:ssd1306.c     **** #define PIXEL_OFF(X,Y) (*GDDRAM_ADDRESS(x,y) &= ~GDDRAM_PIXMASK(y))
 121:ssd1306.c     **** #define PIXEL_TOGGLE(X,Y) (*GDDRAM_ADDRESS(x,y) ^= GDDRAM_PIXMASK(y)) 
 122:ssd1306.c     **** /***********************************************************************
 123:ssd1306.c     **** * Local Funtions
 124:ssd1306.c     **** ***********************************************************************/
 125:ssd1306.c     **** static uint32 display_write_buf( uint8_t* buf, uint16_t size );
 126:ssd1306.c     **** void gfx_init( int16_t width, int16_t height );
 127:ssd1306.c     **** // display memory buffer ( === MUST INCLUDE === the preceding I2C 0x40 control byte for the display
 128:ssd1306.c     **** static uint8_t SSD1306_buffer[DISPLAYHEIGHT * DISPLAYWIDTH / 8 + 1] = { 0x40 };
 129:ssd1306.c     **** // pointer to actual display memory buffer
 130:ssd1306.c     **** static uint8_t* _displaybuf = SSD1306_buffer+1;
 131:ssd1306.c     **** static uint16_t _displaybuf_size = sizeof(SSD1306_buffer) - 1;
 132:ssd1306.c     **** void SSD1306_HAL_Reset(bool reset);
 133:ssd1306.c     **** void SSD1306_SetPageStartAddr(uint8_t page);
 134:ssd1306.c     **** static void SSD1306_SetColStartAddr(uint8_t col);
 135:ssd1306.c     **** /***********************************************************************
 136:ssd1306.c     **** * Local Variable
 137:ssd1306.c     **** ***********************************************************************/
 138:ssd1306.c     **** static uint8 _i2caddr;
 139:ssd1306.c     **** int16_t WIDTH, HEIGHT; // This is the 'raw' display w/h - never changes
 140:ssd1306.c     **** static int16_t _width, _height; // Display w/h as modified by current rotation
 141:ssd1306.c     **** static int16_t cursor_x, cursor_y;
 142:ssd1306.c     **** static uint16_t textcolor, textbgcolor;
 143:ssd1306.c     **** static uint8_t textsize;
 144:ssd1306.c     **** uint8_t rotation;
 145:ssd1306.c     **** uint8_t wrap; // If set, 'wrap' text at right edge of display
ARM GAS  C:\Users\Besitzer\AppData\Local\Temp\cczB0neC.s 			page 4


 146:ssd1306.c     **** static uint8_t actCol = 0;
 147:ssd1306.c     **** static uint8_t actPage = 0;
 148:ssd1306.c     **** /***********************************************************************
 149:ssd1306.c     **** *! \fn			void SSD1306_Init(uint8_t i2caddr)
 150:ssd1306.c     **** *  \brief		Display driver initialization
 151:ssd1306.c     **** *  \param		uint8_t i2caddr - Adress of SSD106
 152:ssd1306.c     **** *  \exception	none
 153:ssd1306.c     **** *  \return		none
 154:ssd1306.c     **** ***********************************************************************/
 155:ssd1306.c     **** void SSD1306_Init(uint8_t i2caddr){
 156:ssd1306.c     ****     
 157:ssd1306.c     ****     I2C_1_Enable();
 158:ssd1306.c     ****     I2C_1_Start();
 159:ssd1306.c     **** 
 160:ssd1306.c     ****     _i2caddr = i2caddr;
 161:ssd1306.c     ****     gfx_init( DISPLAYWIDTH, DISPLAYHEIGHT );
 162:ssd1306.c     ****     
 163:ssd1306.c     **** 	SSD1306_HAL_Reset(1);
 164:ssd1306.c     **** 	CyDelay(500);
 165:ssd1306.c     **** 	SSD1306_HAL_Reset(0);
 166:ssd1306.c     **** 	CyDelay(800);
 167:ssd1306.c     **** 
 168:ssd1306.c     ****     uint8_t cmdbuf[] = {
 169:ssd1306.c     ****         0x00,
 170:ssd1306.c     ****         
 171:ssd1306.c     ****         SSD1306_DISPLAYOFF,                         /* turn off display */       
 172:ssd1306.c     ****         SSD1306_SETDISPLAYCLOCKDIV,                 /* set display clock divide ratio/oscillator fr
 173:ssd1306.c     ****         0x80,                                       /* the suggested ratio 0x80 */
 174:ssd1306.c     ****         
 175:ssd1306.c     ****         SSD1306_SETMULTIPLEX,                       /* set multiplex ratio(1 to 64) */
 176:ssd1306.c     ****         DISPLAYHEIGHT-1,                            /* multiplex depending on number of rows */
 177:ssd1306.c     ****         
 178:ssd1306.c     ****         SSD1306_SETDISPLAYOFFSET,                   /* set display offset */
 179:ssd1306.c     ****         0x00,                                       /* no offset */
 180:ssd1306.c     ****         SSD1306_SETSTARTLINE | 0x0,                 /* set start line address */
 181:ssd1306.c     ****         
 182:ssd1306.c     ****         SSD1306_COLUMNADDR,                         /* set start and end address of the columns */
 183:ssd1306.c     ****         0,
 184:ssd1306.c     ****         DISPLAYWIDTH-1,
 185:ssd1306.c     ****         
 186:ssd1306.c     ****         SSD1306_PAGEADDR,                           /* set start and end address of the pages */
 187:ssd1306.c     ****         0,
 188:ssd1306.c     ****         DISPLAYPAGES-1,
 189:ssd1306.c     ****         
 190:ssd1306.c     ****         SSD1306_CHARGEPUMP,                         /* set charge pump enable/disable */
 191:ssd1306.c     ****         0x14,
 192:ssd1306.c     ****         
 193:ssd1306.c     ****         SSD1306_SETCOMPINS,                         /* set COM pins hardware configuration */
 194:ssd1306.c     ****         0x12,
 195:ssd1306.c     ****         
 196:ssd1306.c     ****         SSD1306_SETCONTRAST,                        /* set contrast control register */
 197:ssd1306.c     ****         0x7f,
 198:ssd1306.c     ****         
 199:ssd1306.c     ****         SSD1306_SETPRECHARGE,                       /* set pre-charge period */
 200:ssd1306.c     ****         0xf1,
 201:ssd1306.c     ****         
 202:ssd1306.c     ****         SSD1306_SETVCOMDETECT,                      /* set vcomh */
ARM GAS  C:\Users\Besitzer\AppData\Local\Temp\cczB0neC.s 			page 5


 203:ssd1306.c     ****         0x40,
 204:ssd1306.c     ****         
 205:ssd1306.c     ****         SSD1306_DISPLAYALLON_RESUME,                /* disable entire display on */
 206:ssd1306.c     ****         SSD1306_NORMALDISPLAY,                      /* set normal display */
 207:ssd1306.c     ****         //SSD1306_DEACTIVATE_SCROLL,                /* Deactivate scrolling */
 208:ssd1306.c     ****         SSD1306_DISPLAYON,                          /* turn on oled panel */
 209:ssd1306.c     ****         
 210:ssd1306.c     ****         SSD1306_MEMORYMODE,                         /* set memory mode */
 211:ssd1306.c     ****         0x00,                                       /* 00b: horizontal addressing mode mode */
 212:ssd1306.c     ****         SSD1306_SEGREMAP | 0x1,                     /* set segment re-map 128 to 0 */
 213:ssd1306.c     ****         SSD1306_COMSCANDEC                         /* set COM output scan direction 64 to 0 */
 214:ssd1306.c     ****     };
 215:ssd1306.c     ****     
 216:ssd1306.c     ****     display_write_buf( cmdbuf, sizeof(cmdbuf) ); 
 217:ssd1306.c     **** 
 218:ssd1306.c     **** }
 219:ssd1306.c     **** /***********************************************************************
 220:ssd1306.c     **** *! \fn			static void display_setPixel( int16_t x, int16_t y, uint16_t color )
 221:ssd1306.c     **** *  \brief		used by gfx_ functions. Needs to be implemented by display_
 222:ssd1306.c     **** *  \param		int16_t x
 223:ssd1306.c     **** *  \param		int16_t y
 224:ssd1306.c     **** *  \param		uint16_t color
 225:ssd1306.c     **** *  \exception	none
 226:ssd1306.c     **** *  \return		none
 227:ssd1306.c     **** ***********************************************************************/
 228:ssd1306.c     **** static void display_setPixel( int16_t x, int16_t y, uint16_t color ){
  27              		.loc 1 228 0
  28              		.cfi_startproc
  29              		@ args = 0, pretend = 0, frame = 0
  30              		@ frame_needed = 0, uses_anonymous_args = 0
  31              		@ link register save eliminated.
  32              	.LVL0:
 229:ssd1306.c     ****     
 230:ssd1306.c     ****     if( (x < 0) || (x >= DISPLAYWIDTH) || (y < 0) || (y >= DISPLAYHEIGHT) )
  33              		.loc 1 230 0
  34 0000 83B2     		uxth	r3, r0
  35 0002 7F2B     		cmp	r3, #127
  36 0004 3CD8     		bhi	.L1
  37              		.loc 1 230 0 is_stmt 0 discriminator 1
  38 0006 0029     		cmp	r1, #0
  39 0008 3ADB     		blt	.L1
  40              		.loc 1 230 0 discriminator 2
  41 000a 3F29     		cmp	r1, #63
  42 000c 38DC     		bgt	.L1
 231:ssd1306.c     ****         return;
 232:ssd1306.c     **** 
 233:ssd1306.c     ****     switch( color ){
  43              		.loc 1 233 0 is_stmt 1
  44 000e 012A     		cmp	r2, #1
  45 0010 03D0     		beq	.L3
  46 0012 9AB1     		cbz	r2, .L4
  47 0014 022A     		cmp	r2, #2
  48 0016 23D0     		beq	.L5
  49 0018 7047     		bx	lr
  50              	.L3:
 234:ssd1306.c     ****         case WHITE: 
 235:ssd1306.c     ****             PIXEL_ON(x,y);
ARM GAS  C:\Users\Besitzer\AppData\Local\Temp\cczB0neC.s 			page 6


  51              		.loc 1 235 0
  52 001a 1A4A     		ldr	r2, .L9
  53              	.LVL1:
  54 001c 0B46     		mov	r3, r1
  55 001e 0029     		cmp	r1, #0
  56 0020 00DA     		bge	.L6
  57 0022 CB1D     		adds	r3, r1, #7
  58              	.L6:
  59 0024 DB10     		asrs	r3, r3, #3
  60 0026 00EBC310 		add	r0, r0, r3, lsl #7
  61              	.LVL2:
  62 002a 01F00701 		and	r1, r1, #7
  63              	.LVL3:
  64 002e 0123     		movs	r3, #1
  65 0030 03FA01F1 		lsl	r1, r3, r1
  66 0034 135C     		ldrb	r3, [r2, r0]	@ zero_extendqisi2
  67 0036 1943     		orrs	r1, r1, r3
  68 0038 1154     		strb	r1, [r2, r0]
 236:ssd1306.c     ****             break;
  69              		.loc 1 236 0
  70 003a 7047     		bx	lr
  71              	.LVL4:
  72              	.L4:
 237:ssd1306.c     ****         case BLACK:
 238:ssd1306.c     ****             PIXEL_OFF(x,y);
  73              		.loc 1 238 0
  74 003c 114A     		ldr	r2, .L9
  75              	.LVL5:
  76 003e 0B46     		mov	r3, r1
  77 0040 0029     		cmp	r1, #0
  78 0042 00DA     		bge	.L7
  79 0044 CB1D     		adds	r3, r1, #7
  80              	.L7:
  81 0046 DB10     		asrs	r3, r3, #3
  82 0048 00EBC310 		add	r0, r0, r3, lsl #7
  83              	.LVL6:
  84 004c 01F00701 		and	r1, r1, #7
  85              	.LVL7:
  86 0050 0123     		movs	r3, #1
  87 0052 03FA01F1 		lsl	r1, r3, r1
  88 0056 135C     		ldrb	r3, [r2, r0]	@ zero_extendqisi2
  89 0058 23EA0101 		bic	r1, r3, r1
  90 005c 1154     		strb	r1, [r2, r0]
 239:ssd1306.c     ****             break;
  91              		.loc 1 239 0
  92 005e 7047     		bx	lr
  93              	.LVL8:
  94              	.L5:
 240:ssd1306.c     ****         case INVERSE: 
 241:ssd1306.c     ****             PIXEL_TOGGLE(x,y);
  95              		.loc 1 241 0
  96 0060 084A     		ldr	r2, .L9
  97              	.LVL9:
  98 0062 0B46     		mov	r3, r1
  99 0064 0029     		cmp	r1, #0
 100 0066 00DA     		bge	.L8
 101 0068 CB1D     		adds	r3, r1, #7
ARM GAS  C:\Users\Besitzer\AppData\Local\Temp\cczB0neC.s 			page 7


 102              	.L8:
 103 006a DB10     		asrs	r3, r3, #3
 104 006c 00EBC310 		add	r0, r0, r3, lsl #7
 105              	.LVL10:
 106 0070 01F00701 		and	r1, r1, #7
 107              	.LVL11:
 108 0074 0123     		movs	r3, #1
 109 0076 03FA01F1 		lsl	r1, r3, r1
 110 007a 135C     		ldrb	r3, [r2, r0]	@ zero_extendqisi2
 111 007c 5940     		eors	r1, r1, r3
 112 007e 1154     		strb	r1, [r2, r0]
 113              	.L1:
 114 0080 7047     		bx	lr
 115              	.L10:
 116 0082 00BF     		.align	2
 117              	.L9:
 118 0084 01000000 		.word	.LANCHOR0+1
 119              		.cfi_endproc
 120              	.LFE1:
 121              		.size	display_setPixel, .-display_setPixel
 122              		.section	.text.display_line,"ax",%progbits
 123              		.align	2
 124              		.thumb
 125              		.thumb_func
 126              		.type	display_line, %function
 127              	display_line:
 128              	.LFB8:
 242:ssd1306.c     ****             break;
 243:ssd1306.c     ****     }
 244:ssd1306.c     **** }
 245:ssd1306.c     **** /***********************************************************************
 246:ssd1306.c     **** *! \fn			void display_clear(void)
 247:ssd1306.c     **** *  \brief		clear display buffer
 248:ssd1306.c     **** *  \param		none
 249:ssd1306.c     **** *  \exception	none
 250:ssd1306.c     **** *  \return		none
 251:ssd1306.c     **** ***********************************************************************/
 252:ssd1306.c     **** void display_clear(void){
 253:ssd1306.c     ****     memset( _displaybuf, 0, _displaybuf_size );
 254:ssd1306.c     ****     SSD1306_buffer[0] = 0x40; // to be sure its there
 255:ssd1306.c     **** }
 256:ssd1306.c     **** /***********************************************************************
 257:ssd1306.c     **** *! \fn			void display_contrast( uint8_t contrast )
 258:ssd1306.c     **** *  \brief		contrast: 0 ...255
 259:ssd1306.c     **** *  \param		uint8_t contrast
 260:ssd1306.c     **** *  \exception	none
 261:ssd1306.c     **** *  \return		none
 262:ssd1306.c     **** ***********************************************************************/
 263:ssd1306.c     **** void display_contrast( uint8_t contrast ){
 264:ssd1306.c     ****         
 265:ssd1306.c     ****     uint8 cmdbuf[] = {
 266:ssd1306.c     ****         0x00,  
 267:ssd1306.c     ****         SSD1306_SETCONTRAST,
 268:ssd1306.c     ****         contrast
 269:ssd1306.c     ****     };
 270:ssd1306.c     ****     display_write_buf( cmdbuf, sizeof(cmdbuf) ); 
 271:ssd1306.c     **** }
ARM GAS  C:\Users\Besitzer\AppData\Local\Temp\cczB0neC.s 			page 8


 272:ssd1306.c     **** /***********************************************************************
 273:ssd1306.c     **** *! \fn			void display_invert( uint8_t invert )
 274:ssd1306.c     **** *  \brief		invert <> 0 for inverse display, invert == 0 for normal display
 275:ssd1306.c     **** *  \param		uint8_t invert
 276:ssd1306.c     **** *  \exception	none
 277:ssd1306.c     **** *  \return		none
 278:ssd1306.c     **** ***********************************************************************/
 279:ssd1306.c     **** void display_invert( uint8_t invert ){
 280:ssd1306.c     **** 
 281:ssd1306.c     ****     uint8 cmdbuf[] = {
 282:ssd1306.c     ****         0x00,  
 283:ssd1306.c     ****         0
 284:ssd1306.c     ****     };
 285:ssd1306.c     ****     cmdbuf[1] = invert ? SSD1306_INVERTDISPLAY : SSD1306_NORMALDISPLAY;
 286:ssd1306.c     ****     display_write_buf( cmdbuf, sizeof(cmdbuf) ); 
 287:ssd1306.c     **** }
 288:ssd1306.c     **** /***********************************************************************
 289:ssd1306.c     **** *! \fn			void display_update(void) 
 290:ssd1306.c     **** *  \brief		send display buffer
 291:ssd1306.c     **** *  \param		none
 292:ssd1306.c     **** *  \exception	none
 293:ssd1306.c     **** *  \return		none
 294:ssd1306.c     **** ***********************************************************************/
 295:ssd1306.c     **** void display_update(void) {
 296:ssd1306.c     ****       
 297:ssd1306.c     **** 
 298:ssd1306.c     ****     SSD1306_SetPageStartAddr(0);
 299:ssd1306.c     **** 	SSD1306_SetColStartAddr(0);
 300:ssd1306.c     ****     display_write_buf( SSD1306_buffer, sizeof(SSD1306_buffer) );
 301:ssd1306.c     **** }
 302:ssd1306.c     **** /***********************************************************************
 303:ssd1306.c     **** *! \fn			void SSD1306_SetPageStartAddr(uint8_t page) 
 304:ssd1306.c     **** *  \brief		set the Adress from the page
 305:ssd1306.c     **** *  \param		uint8_t page -> Set Page
 306:ssd1306.c     **** *  \exception	none
 307:ssd1306.c     **** *  \return		Page Address
 308:ssd1306.c     **** ***********************************************************************/
 309:ssd1306.c     **** void SSD1306_SetPageStartAddr(uint8_t page) {
 310:ssd1306.c     **** 	
 311:ssd1306.c     **** 	actPage = page;
 312:ssd1306.c     **** 	if(actPage>=DISPLAYPAGES ) {
 313:ssd1306.c     **** 		return;
 314:ssd1306.c     **** 	}
 315:ssd1306.c     ****     uint8 cmdbuf[] = {
 316:ssd1306.c     ****         0x00,
 317:ssd1306.c     ****         0xB0 | actPage          //set Page Address
 318:ssd1306.c     ****     };
 319:ssd1306.c     **** 	display_write_buf( cmdbuf, sizeof(cmdbuf) );
 320:ssd1306.c     **** }
 321:ssd1306.c     **** /***********************************************************************
 322:ssd1306.c     **** *! \fn			static void SSD1306_SetColStartAddr(uint8_t col)
 323:ssd1306.c     **** *  \brief		set the Adress from the Colum
 324:ssd1306.c     **** *  \param		uint8_t col
 325:ssd1306.c     **** *  \exception	none
 326:ssd1306.c     **** *  \return		none
 327:ssd1306.c     **** ***********************************************************************/
 328:ssd1306.c     **** static void SSD1306_SetColStartAddr(uint8_t col){
ARM GAS  C:\Users\Besitzer\AppData\Local\Temp\cczB0neC.s 			page 9


 329:ssd1306.c     **** 	
 330:ssd1306.c     **** 	actCol = col;
 331:ssd1306.c     **** 	if(actCol>=DISPLAYWIDTH) {
 332:ssd1306.c     **** 		return;
 333:ssd1306.c     **** 	}
 334:ssd1306.c     ****     uint8 cmdbuf[] = {
 335:ssd1306.c     ****         0x00,
 336:ssd1306.c     ****         (0x10 | (actCol>>4)),         //set Collum Address
 337:ssd1306.c     ****         actCol & 0x0F
 338:ssd1306.c     ****     };
 339:ssd1306.c     **** 	display_write_buf( cmdbuf, sizeof(cmdbuf));
 340:ssd1306.c     **** }
 341:ssd1306.c     **** /***********************************************************************
 342:ssd1306.c     **** *! \fn			static void display_line( int16_t x1, int16_t y1, int16_t x2, int16_t y2, uint16_t color )
 343:ssd1306.c     **** *  \brief		draws horizontal or vertical line
 344:ssd1306.c     **** *               Note: no check for valid coords, this needs to be done by caller
 345:ssd1306.c     **** *               should only be called from gfx_hvline which is doing all validity checking
 346:ssd1306.c     **** *  \param		int16_t x1
 347:ssd1306.c     **** *  \param		int16_t y1
 348:ssd1306.c     **** *  \param		int16_t x2
 349:ssd1306.c     **** *  \param		int16_t y2
 350:ssd1306.c     **** *  \param		uint16_t color
 351:ssd1306.c     **** *  \exception	none
 352:ssd1306.c     **** *  \return		none
 353:ssd1306.c     **** ***********************************************************************/
 354:ssd1306.c     **** static void display_line( int16_t x1, int16_t y1, int16_t x2, int16_t y2, uint16_t color ){
 129              		.loc 1 354 0
 130              		.cfi_startproc
 131              		@ args = 4, pretend = 0, frame = 0
 132              		@ frame_needed = 0, uses_anonymous_args = 0
 133              	.LVL12:
 134 0000 F0B5     		push	{r4, r5, r6, r7, lr}
 135              		.cfi_def_cfa_offset 20
 136              		.cfi_offset 4, -20
 137              		.cfi_offset 5, -16
 138              		.cfi_offset 6, -12
 139              		.cfi_offset 7, -8
 140              		.cfi_offset 14, -4
 141 0002 BDF81440 		ldrh	r4, [sp, #20]
 355:ssd1306.c     **** 
 356:ssd1306.c     ****     if( x1 == x2 ){
 142              		.loc 1 356 0
 143 0006 9042     		cmp	r0, r2
 144 0008 67D1     		bne	.L12
 145              	.LBB2:
 357:ssd1306.c     ****         // vertical
 358:ssd1306.c     ****         uint8_t* pstart = GDDRAM_ADDRESS(x1,y1);
 146              		.loc 1 358 0
 147 000a 0D46     		mov	r5, r1
 148 000c 0029     		cmp	r1, #0
 149 000e 00DA     		bge	.L13
 150 0010 CD1D     		adds	r5, r1, #7
 151              	.L13:
 152 0012 ED10     		asrs	r5, r5, #3
 153 0014 00EBC510 		add	r0, r0, r5, lsl #7
 154              	.LVL13:
 155 0018 444F     		ldr	r7, .L41
ARM GAS  C:\Users\Besitzer\AppData\Local\Temp\cczB0neC.s 			page 10


 156 001a 0744     		add	r7, r7, r0
 157              	.LVL14:
 359:ssd1306.c     ****         uint8_t* pend = GDDRAM_ADDRESS(x2,y2);       
 158              		.loc 1 359 0
 159 001c 1846     		mov	r0, r3
 160 001e 002B     		cmp	r3, #0
 161 0020 00DA     		bge	.L14
 162 0022 D81D     		adds	r0, r3, #7
 163              	.L14:
 164 0024 C010     		asrs	r0, r0, #3
 165 0026 02EBC012 		add	r2, r2, r0, lsl #7
 166              	.LVL15:
 167 002a 4048     		ldr	r0, .L41
 168 002c 1044     		add	r0, r0, r2
 169              	.LVL16:
 360:ssd1306.c     ****         uint8_t* ptr = pstart;             
 170              		.loc 1 360 0
 171 002e 3A46     		mov	r2, r7
 361:ssd1306.c     ****         
 362:ssd1306.c     ****         while( ptr <= pend ){
 172              		.loc 1 362 0
 173 0030 50E0     		b	.L15
 174              	.LVL17:
 175              	.L30:
 176              	.LBB3:
 363:ssd1306.c     ****             
 364:ssd1306.c     ****             uint8_t mask;
 365:ssd1306.c     ****             if( ptr == pstart ){
 177              		.loc 1 365 0
 178 0032 BA42     		cmp	r2, r7
 179 0034 18D1     		bne	.L16
 180              	.LBB4:
 366:ssd1306.c     ****                 // top
 367:ssd1306.c     ****                 uint8_t lbit = y1 % 8;
 181              		.loc 1 367 0
 182 0036 3E4D     		ldr	r5, .L41+4
 183 0038 0D40     		ands	r5, r1, r5
 184 003a 03D5     		bpl	.L17
 185 003c 013D     		subs	r5, r5, #1
 186 003e 65F00705 		orn	r5, r5, #7
 187 0042 0135     		adds	r5, r5, #1
 188              	.L17:
 189 0044 EEB2     		uxtb	r6, r5
 190              	.LVL18:
 368:ssd1306.c     ****                 // bottom (line can be very short, all inside this one byte)
 369:ssd1306.c     ****                 uint8_t ubit = lbit + y2 - y1;
 191              		.loc 1 369 0
 192 0046 F518     		adds	r5, r6, r3
 193 0048 6D1A     		subs	r5, r5, r1
 194 004a EDB2     		uxtb	r5, r5
 195              	.LVL19:
 370:ssd1306.c     ****                 if( ubit >= 7 )
 196              		.loc 1 370 0
 197 004c 062D     		cmp	r5, #6
 198 004e 00D9     		bls	.L18
 371:ssd1306.c     ****                     ubit = 7;
 199              		.loc 1 371 0
ARM GAS  C:\Users\Besitzer\AppData\Local\Temp\cczB0neC.s 			page 11


 200 0050 0725     		movs	r5, #7
 201              	.LVL20:
 202              	.L18:
 372:ssd1306.c     ****                 mask = ((1 << (ubit-lbit+1)) - 1) << lbit;    
 203              		.loc 1 372 0
 204 0052 AD1B     		subs	r5, r5, r6
 205              	.LVL21:
 206 0054 0135     		adds	r5, r5, #1
 207 0056 4FF0010E 		mov	lr, #1
 208 005a 0EFA05F5 		lsl	r5, lr, r5
 209 005e 013D     		subs	r5, r5, #1
 210 0060 05FA06F6 		lsl	r6, r5, r6
 211              	.LVL22:
 212 0064 F6B2     		uxtb	r6, r6
 213              	.LVL23:
 214              	.LBE4:
 215 0066 0EE0     		b	.L19
 216              	.L16:
 373:ssd1306.c     ****             }else if( ptr == pend ){
 217              		.loc 1 373 0
 218 0068 8242     		cmp	r2, r0
 219 006a 0CD1     		bne	.L19
 374:ssd1306.c     ****                 // top is always bit 0, that makes it easy
 375:ssd1306.c     ****                 // bottom
 376:ssd1306.c     ****                 mask = (1 << (y2 % 8)) - 1;    
 220              		.loc 1 376 0
 221 006c 304D     		ldr	r5, .L41+4
 222 006e 1D40     		ands	r5, r3, r5
 223 0070 03D5     		bpl	.L20
 224 0072 013D     		subs	r5, r5, #1
 225 0074 65F00705 		orn	r5, r5, #7
 226 0078 0135     		adds	r5, r5, #1
 227              	.L20:
 228 007a 2DB2     		sxth	r5, r5
 229 007c 0126     		movs	r6, #1
 230              	.LVL24:
 231 007e 06FA05F5 		lsl	r5, r6, r5
 232 0082 6E1E     		subs	r6, r5, #1
 233 0084 F6B2     		uxtb	r6, r6
 234              	.LVL25:
 235              	.L19:
 377:ssd1306.c     ****             }
 378:ssd1306.c     **** 
 379:ssd1306.c     ****             if( ptr == pstart || ptr == pend ){
 236              		.loc 1 379 0
 237 0086 BA42     		cmp	r2, r7
 238 0088 01D0     		beq	.L21
 239              		.loc 1 379 0 is_stmt 0 discriminator 1
 240 008a 8242     		cmp	r2, r0
 241 008c 12D1     		bne	.L22
 242              	.L21:
 380:ssd1306.c     ****                 switch( color ){
 243              		.loc 1 380 0 is_stmt 1
 244 008e 012C     		cmp	r4, #1
 245 0090 03D0     		beq	.L24
 246 0092 34B1     		cbz	r4, .L25
 247 0094 022C     		cmp	r4, #2
ARM GAS  C:\Users\Besitzer\AppData\Local\Temp\cczB0neC.s 			page 12


 248 0096 09D0     		beq	.L26
 249 0098 1BE0     		b	.L23
 250              	.L24:
 381:ssd1306.c     ****                     case WHITE:     *ptr |= mask; break;
 251              		.loc 1 381 0
 252 009a 1578     		ldrb	r5, [r2]	@ zero_extendqisi2
 253 009c 3543     		orrs	r5, r5, r6
 254 009e 1570     		strb	r5, [r2]
 255 00a0 17E0     		b	.L23
 256              	.L25:
 382:ssd1306.c     ****                     case BLACK:     *ptr &= ~mask; break;
 257              		.loc 1 382 0
 258 00a2 1578     		ldrb	r5, [r2]	@ zero_extendqisi2
 259 00a4 25EA0605 		bic	r5, r5, r6
 260 00a8 1570     		strb	r5, [r2]
 261 00aa 12E0     		b	.L23
 262              	.L26:
 383:ssd1306.c     ****                     case INVERSE:   *ptr ^= mask; break;
 263              		.loc 1 383 0
 264 00ac 1578     		ldrb	r5, [r2]	@ zero_extendqisi2
 265 00ae 7540     		eors	r5, r5, r6
 266 00b0 1570     		strb	r5, [r2]
 267 00b2 0EE0     		b	.L23
 268              	.L22:
 384:ssd1306.c     ****                 };  
 385:ssd1306.c     ****             }else{
 386:ssd1306.c     ****                 switch( color ){
 269              		.loc 1 386 0
 270 00b4 012C     		cmp	r4, #1
 271 00b6 03D0     		beq	.L27
 272 00b8 2CB1     		cbz	r4, .L28
 273 00ba 022C     		cmp	r4, #2
 274 00bc 06D0     		beq	.L29
 275 00be 08E0     		b	.L23
 276              	.L27:
 387:ssd1306.c     ****                     case WHITE:     *ptr = 0xff; break;
 277              		.loc 1 387 0
 278 00c0 FF25     		movs	r5, #255
 279 00c2 1570     		strb	r5, [r2]
 280 00c4 05E0     		b	.L23
 281              	.L28:
 388:ssd1306.c     ****                     case BLACK:     *ptr = 0x00; break;
 282              		.loc 1 388 0
 283 00c6 0025     		movs	r5, #0
 284 00c8 1570     		strb	r5, [r2]
 285 00ca 02E0     		b	.L23
 286              	.L29:
 389:ssd1306.c     ****                     case INVERSE:   *ptr ^= 0xff; break;
 287              		.loc 1 389 0
 288 00cc 1578     		ldrb	r5, [r2]	@ zero_extendqisi2
 289 00ce ED43     		mvns	r5, r5
 290 00d0 1570     		strb	r5, [r2]
 291              	.L23:
 390:ssd1306.c     ****                 };  
 391:ssd1306.c     ****             }
 392:ssd1306.c     ****             
 393:ssd1306.c     ****             ptr += DISPLAYWIDTH;
ARM GAS  C:\Users\Besitzer\AppData\Local\Temp\cczB0neC.s 			page 13


 292              		.loc 1 393 0
 293 00d2 8032     		adds	r2, r2, #128
 294              	.LVL26:
 295              	.L15:
 296              	.LBE3:
 362:ssd1306.c     ****             
 297              		.loc 1 362 0
 298 00d4 8242     		cmp	r2, r0
 299 00d6 ACD9     		bls	.L30
 300 00d8 F0BD     		pop	{r4, r5, r6, r7, pc}
 301              	.LVL27:
 302              	.L12:
 303              	.LBE2:
 304              	.LBB5:
 394:ssd1306.c     ****         }
 395:ssd1306.c     ****     }else{
 396:ssd1306.c     ****         // horizontal
 397:ssd1306.c     ****         uint8_t* pstart = GDDRAM_ADDRESS(x1,y1);
 305              		.loc 1 397 0
 306 00da 0B46     		mov	r3, r1
 307              	.LVL28:
 308 00dc 0029     		cmp	r1, #0
 309 00de 00DA     		bge	.L32
 310 00e0 CB1D     		adds	r3, r1, #7
 311              	.L32:
 312 00e2 DB10     		asrs	r3, r3, #3
 313 00e4 00EBC313 		add	r3, r0, r3, lsl #7
 314 00e8 104D     		ldr	r5, .L41
 315 00ea 2B44     		add	r3, r3, r5
 316              	.LVL29:
 398:ssd1306.c     ****         uint8_t* pend = pstart + x2 - x1;
 317              		.loc 1 398 0
 318 00ec 121A     		subs	r2, r2, r0
 319              	.LVL30:
 320 00ee 1A44     		add	r2, r2, r3
 321              	.LVL31:
 399:ssd1306.c     ****         uint8_t pixmask = GDDRAM_PIXMASK(y1);    
 322              		.loc 1 399 0
 323 00f0 01F00701 		and	r1, r1, #7
 324              	.LVL32:
 325 00f4 0120     		movs	r0, #1
 326              	.LVL33:
 327 00f6 00FA01F1 		lsl	r1, r0, r1
 328 00fa CDB2     		uxtb	r5, r1
 329              	.LVL34:
 400:ssd1306.c     **** 
 401:ssd1306.c     ****         uint8_t* ptr = pstart;
 402:ssd1306.c     ****         while( ptr <= pend ){
 330              		.loc 1 402 0
 331 00fc 12E0     		b	.L33
 332              	.LVL35:
 333              	.L38:
 403:ssd1306.c     ****             switch( color ){
 334              		.loc 1 403 0
 335 00fe 012C     		cmp	r4, #1
 336 0100 03D0     		beq	.L35
 337 0102 34B1     		cbz	r4, .L36
ARM GAS  C:\Users\Besitzer\AppData\Local\Temp\cczB0neC.s 			page 14


 338 0104 022C     		cmp	r4, #2
 339 0106 09D0     		beq	.L37
 340 0108 0BE0     		b	.L34
 341              	.L35:
 404:ssd1306.c     ****                 case WHITE:     *ptr |= pixmask; break;
 342              		.loc 1 404 0
 343 010a 1878     		ldrb	r0, [r3]	@ zero_extendqisi2
 344 010c 2843     		orrs	r0, r0, r5
 345 010e 1870     		strb	r0, [r3]
 346 0110 07E0     		b	.L34
 347              	.L36:
 405:ssd1306.c     ****                 case BLACK:     *ptr &= ~pixmask; break;
 348              		.loc 1 405 0
 349 0112 1878     		ldrb	r0, [r3]	@ zero_extendqisi2
 350 0114 20EA0100 		bic	r0, r0, r1
 351 0118 1870     		strb	r0, [r3]
 352 011a 02E0     		b	.L34
 353              	.L37:
 406:ssd1306.c     ****                 case INVERSE:   *ptr ^= pixmask; break;
 354              		.loc 1 406 0
 355 011c 1878     		ldrb	r0, [r3]	@ zero_extendqisi2
 356 011e 6840     		eors	r0, r0, r5
 357 0120 1870     		strb	r0, [r3]
 358              	.L34:
 407:ssd1306.c     ****             };
 408:ssd1306.c     ****             ptr++;
 359              		.loc 1 408 0
 360 0122 0133     		adds	r3, r3, #1
 361              	.LVL36:
 362              	.L33:
 402:ssd1306.c     ****             switch( color ){
 363              		.loc 1 402 0
 364 0124 9342     		cmp	r3, r2
 365 0126 EAD9     		bls	.L38
 366 0128 F0BD     		pop	{r4, r5, r6, r7, pc}
 367              	.LVL37:
 368              	.L42:
 369 012a 00BF     		.align	2
 370              	.L41:
 371 012c 01000000 		.word	.LANCHOR0+1
 372 0130 07000080 		.word	-2147483641
 373              	.LBE5:
 374              		.cfi_endproc
 375              	.LFE8:
 376              		.size	display_line, .-display_line
 377              		.section	.text.gfx_rotation_adjust,"ax",%progbits
 378              		.align	2
 379              		.thumb
 380              		.thumb_func
 381              		.type	gfx_rotation_adjust, %function
 382              	gfx_rotation_adjust:
 383              	.LFB21:
 409:ssd1306.c     ****         }
 410:ssd1306.c     ****     }
 411:ssd1306.c     **** }
 412:ssd1306.c     **** /***********************************************************************
 413:ssd1306.c     **** *! \fn			void display_stopscroll(void)
ARM GAS  C:\Users\Besitzer\AppData\Local\Temp\cczB0neC.s 			page 15


 414:ssd1306.c     **** *  \brief		stop scrolling 
 415:ssd1306.c     **** *  \param		none
 416:ssd1306.c     **** *  \exception	none
 417:ssd1306.c     **** *  \return		none
 418:ssd1306.c     **** ***********************************************************************/
 419:ssd1306.c     **** void display_stopscroll(void){
 420:ssd1306.c     **** 
 421:ssd1306.c     ****     uint8 cmdbuf[] = {
 422:ssd1306.c     ****         0x00,
 423:ssd1306.c     ****         SSD1306_DEACTIVATE_SCROLL
 424:ssd1306.c     ****     };
 425:ssd1306.c     ****     display_write_buf( cmdbuf, sizeof(cmdbuf) ); 
 426:ssd1306.c     **** }
 427:ssd1306.c     **** /***********************************************************************
 428:ssd1306.c     **** *! \fn			void display_scroll( SCROLL_AREA start, SCROLL_AREA end, SCROLL_DIR dir, SCROLL_SPEED spee
 429:ssd1306.c     **** *  \brief		scrolling
 430:ssd1306.c     **** *  \param		SCROLL_AREA start
 431:ssd1306.c     **** *  \param		SCROLL_AREA end
 432:ssd1306.c     **** *  \param		SCROLL_DIR dir
 433:ssd1306.c     **** *  \param		SCROLL_SPEED speed
 434:ssd1306.c     **** *  \exception	none
 435:ssd1306.c     **** *  \return		none
 436:ssd1306.c     **** ***********************************************************************/
 437:ssd1306.c     **** void display_scroll( SCROLL_AREA start, SCROLL_AREA end, SCROLL_DIR dir, SCROLL_SPEED speed ){
 438:ssd1306.c     ****    
 439:ssd1306.c     ****     uint8 cmdbuf[] = {
 440:ssd1306.c     ****         0x00,
 441:ssd1306.c     ****         dir,                    // 0x26 or 0x2a
 442:ssd1306.c     ****         0x00,                   // dummy byte
 443:ssd1306.c     ****         start,                  // start page
 444:ssd1306.c     ****         speed,                  // scroll step interval in terms of frame frequency 
 445:ssd1306.c     ****         end,                    // end page
 446:ssd1306.c     ****         0x00,                   // dummy byte
 447:ssd1306.c     ****         0xFF,                   // dummy byte
 448:ssd1306.c     ****         SSD1306_ACTIVATE_SCROLL // 0x2F
 449:ssd1306.c     ****     };
 450:ssd1306.c     ****     display_write_buf( cmdbuf, sizeof(cmdbuf) ); 
 451:ssd1306.c     **** }
 452:ssd1306.c     **** //########################################### Graphic #############################################
 453:ssd1306.c     **** /***********************************************************************
 454:ssd1306.c     **** *! \fn			void gfx_init( int16_t width, int16_t height)
 455:ssd1306.c     **** *  \brief		start gfx
 456:ssd1306.c     **** *  \param		int16_t width
 457:ssd1306.c     **** *  \param		int16_t height
 458:ssd1306.c     **** *  \exception	none
 459:ssd1306.c     **** *  \return		none
 460:ssd1306.c     **** ***********************************************************************/
 461:ssd1306.c     **** void gfx_init( int16_t width, int16_t height ){
 462:ssd1306.c     ****     WIDTH = width;
 463:ssd1306.c     ****     HEIGHT = height;
 464:ssd1306.c     ****     _width = WIDTH;
 465:ssd1306.c     ****     _height = HEIGHT;
 466:ssd1306.c     ****     
 467:ssd1306.c     ****     rotation = 0;
 468:ssd1306.c     ****     cursor_y = cursor_x = 0;
 469:ssd1306.c     ****     textsize = 1;
 470:ssd1306.c     ****     textcolor = textbgcolor = 0xFFFF;
ARM GAS  C:\Users\Besitzer\AppData\Local\Temp\cczB0neC.s 			page 16


 471:ssd1306.c     ****     wrap = 1;
 472:ssd1306.c     **** }
 473:ssd1306.c     **** 
 474:ssd1306.c     **** /***********************************************************************
 475:ssd1306.c     **** *! \fn			int16_t gfx_width(void)
 476:ssd1306.c     **** *  \brief		Return the width of the display
 477:ssd1306.c     **** *  \param		none
 478:ssd1306.c     **** *  \exception	none
 479:ssd1306.c     **** *  \return		int16_t display width
 480:ssd1306.c     **** ***********************************************************************/
 481:ssd1306.c     **** int16_t gfx_width(void){
 482:ssd1306.c     ****     return _width;
 483:ssd1306.c     **** }
 484:ssd1306.c     **** /***********************************************************************
 485:ssd1306.c     **** *! \fn			int16_t gfx_height(void){
 486:ssd1306.c     **** *  \brief		Return the height of the display
 487:ssd1306.c     **** *  \param		none
 488:ssd1306.c     **** *  \exception	none
 489:ssd1306.c     **** *  \return		int16_t display heigth
 490:ssd1306.c     **** ***********************************************************************/
 491:ssd1306.c     **** int16_t gfx_height(void){
 492:ssd1306.c     ****     return _height;
 493:ssd1306.c     **** }
 494:ssd1306.c     **** /***********************************************************************
 495:ssd1306.c     **** *! \fn			uint8_t gfx_rotation(void)
 496:ssd1306.c     **** *  \brief		Return the size of the display (per current rotation
 497:ssd1306.c     **** *  \param		none
 498:ssd1306.c     **** *  \exception	none
 499:ssd1306.c     **** *  \return		uint8_t gfx_rotation
 500:ssd1306.c     **** ***********************************************************************/
 501:ssd1306.c     **** uint8_t gfx_rotation(void){
 502:ssd1306.c     ****     return rotation;
 503:ssd1306.c     **** }
 504:ssd1306.c     **** /***********************************************************************
 505:ssd1306.c     **** *! \fn			void gfx_setCursor( int16_t x, int16_t y )
 506:ssd1306.c     **** *  \brief		set the cusor at the display
 507:ssd1306.c     **** *  \param		int16_t x position
 508:ssd1306.c     **** *  \param		int16_t y position
 509:ssd1306.c     **** *  \exception	none
 510:ssd1306.c     **** *  \return		none
 511:ssd1306.c     **** ***********************************************************************/
 512:ssd1306.c     **** void gfx_setCursor( int16_t x, int16_t y ){
 513:ssd1306.c     ****     cursor_x = x;
 514:ssd1306.c     ****     cursor_y = y;
 515:ssd1306.c     **** }
 516:ssd1306.c     **** /***********************************************************************
 517:ssd1306.c     **** *! \fn			void gfx_setTextSize( uint8_t size )
 518:ssd1306.c     **** *  \brief		set text size
 519:ssd1306.c     **** *  \param		uint8_t size - set the text size
 520:ssd1306.c     **** *  \exception	none
 521:ssd1306.c     **** *  \return		none
 522:ssd1306.c     **** ***********************************************************************/
 523:ssd1306.c     **** void gfx_setTextSize( uint8_t size ){
 524:ssd1306.c     ****     textsize = (size > 0) ? size : 1;
 525:ssd1306.c     **** }
 526:ssd1306.c     **** 
 527:ssd1306.c     **** /***********************************************************************
ARM GAS  C:\Users\Besitzer\AppData\Local\Temp\cczB0neC.s 			page 17


 528:ssd1306.c     **** *! \fn			void gfx_setTextColor( uint16_t color )
 529:ssd1306.c     **** *  \brief		set text color
 530:ssd1306.c     **** *  \param		uint16_t color
 531:ssd1306.c     **** *  \exception	none
 532:ssd1306.c     **** *  \return		none
 533:ssd1306.c     **** ***********************************************************************/
 534:ssd1306.c     **** void gfx_setTextColor( uint16_t color ){
 535:ssd1306.c     ****     textcolor = textbgcolor = color;
 536:ssd1306.c     **** }
 537:ssd1306.c     **** 
 538:ssd1306.c     **** /***********************************************************************
 539:ssd1306.c     **** *! \fn			void gfx_setTextBg( uint16_t color )
 540:ssd1306.c     **** *  \brief		set text backgroundcolor
 541:ssd1306.c     **** *  \param		uint16_t color
 542:ssd1306.c     **** *  \exception	none
 543:ssd1306.c     **** *  \return		none
 544:ssd1306.c     **** ***********************************************************************/
 545:ssd1306.c     **** void gfx_setTextBg( uint16_t color ){
 546:ssd1306.c     ****     textbgcolor = color;
 547:ssd1306.c     **** }
 548:ssd1306.c     **** 
 549:ssd1306.c     **** /***********************************************************************
 550:ssd1306.c     **** *! \fn			void gfx_setTextWrap( uint8_t w )
 551:ssd1306.c     **** *  \brief		set text wrap
 552:ssd1306.c     **** *  \param		uint8_t w
 553:ssd1306.c     **** *  \exception	none
 554:ssd1306.c     **** *  \return		none
 555:ssd1306.c     **** ***********************************************************************/
 556:ssd1306.c     **** void gfx_setTextWrap( uint8_t w ){
 557:ssd1306.c     ****     wrap = w;
 558:ssd1306.c     **** }
 559:ssd1306.c     **** /***********************************************************************
 560:ssd1306.c     **** *! \fn			void gfx_setRotation( uint8_t x )
 561:ssd1306.c     **** *  \brief		set rotation
 562:ssd1306.c     **** *  \param		uint8_t x
 563:ssd1306.c     **** *  \exception	none
 564:ssd1306.c     **** *  \return		none
 565:ssd1306.c     **** ***********************************************************************/
 566:ssd1306.c     **** void gfx_setRotation( uint8_t x ){
 567:ssd1306.c     ****     
 568:ssd1306.c     ****     rotation = (x & 3);
 569:ssd1306.c     ****     switch( rotation ){
 570:ssd1306.c     ****         case 0:
 571:ssd1306.c     ****         case 2:
 572:ssd1306.c     ****             _width = WIDTH;
 573:ssd1306.c     ****             _height = HEIGHT;
 574:ssd1306.c     ****             break;
 575:ssd1306.c     ****         case 1:
 576:ssd1306.c     ****         case 3:
 577:ssd1306.c     ****             _width = HEIGHT;
 578:ssd1306.c     ****             _height = WIDTH;
 579:ssd1306.c     ****         break;
 580:ssd1306.c     ****     }
 581:ssd1306.c     **** }
 582:ssd1306.c     **** /***********************************************************************
 583:ssd1306.c     **** *! \fn			static void gfx_rotation_adjust( int16_t* px, int16_t* py )
 584:ssd1306.c     **** *  \brief		set rotation adjust
ARM GAS  C:\Users\Besitzer\AppData\Local\Temp\cczB0neC.s 			page 18


 585:ssd1306.c     **** *  \param		int16_t* px
 586:ssd1306.c     **** *  \param		int16_t* py
 587:ssd1306.c     **** *  \exception	none
 588:ssd1306.c     **** *  \return		none
 589:ssd1306.c     **** ***********************************************************************/
 590:ssd1306.c     **** static void gfx_rotation_adjust( int16_t* px, int16_t* py ){
 384              		.loc 1 590 0
 385              		.cfi_startproc
 386              		@ args = 0, pretend = 0, frame = 0
 387              		@ frame_needed = 0, uses_anonymous_args = 0
 388              		@ link register save eliminated.
 389              	.LVL38:
 591:ssd1306.c     **** 
 592:ssd1306.c     ****     int16_t y0 = *py;
 390              		.loc 1 592 0
 391 0000 B1F90020 		ldrsh	r2, [r1]
 392              	.LVL39:
 593:ssd1306.c     ****     
 594:ssd1306.c     ****     switch( rotation ){
 393              		.loc 1 594 0
 394 0004 154B     		ldr	r3, .L51
 395 0006 1B78     		ldrb	r3, [r3]	@ zero_extendqisi2
 396 0008 022B     		cmp	r3, #2
 397 000a 0CD0     		beq	.L45
 398 000c 032B     		cmp	r3, #3
 399 000e 19D0     		beq	.L46
 400 0010 012B     		cmp	r3, #1
 401 0012 21D1     		bne	.L50
 595:ssd1306.c     ****         case 1:
 596:ssd1306.c     ****             *py = *px;
 402              		.loc 1 596 0
 403 0014 B0F90030 		ldrsh	r3, [r0]
 404 0018 0B80     		strh	r3, [r1]	@ movhi
 597:ssd1306.c     ****             *px = WIDTH - y0 - 1;
 405              		.loc 1 597 0
 406 001a 114B     		ldr	r3, .L51+4
 407 001c 1B88     		ldrh	r3, [r3]
 408 001e 9A1A     		subs	r2, r3, r2
 409              	.LVL40:
 410 0020 013A     		subs	r2, r2, #1
 411 0022 0280     		strh	r2, [r0]	@ movhi
 412 0024 7047     		bx	lr
 413              	.LVL41:
 414              	.L45:
 598:ssd1306.c     ****             break;
 599:ssd1306.c     ****         case 2:
 600:ssd1306.c     ****             *px = WIDTH - *px - 1;
 415              		.loc 1 600 0
 416 0026 B0F90020 		ldrsh	r2, [r0]
 417              	.LVL42:
 418 002a 0D4B     		ldr	r3, .L51+4
 419 002c 1B88     		ldrh	r3, [r3]
 420 002e 9B1A     		subs	r3, r3, r2
 421 0030 013B     		subs	r3, r3, #1
 422 0032 0380     		strh	r3, [r0]	@ movhi
 423              	.LVL43:
 601:ssd1306.c     ****             *py = HEIGHT - *py - 1;
ARM GAS  C:\Users\Besitzer\AppData\Local\Temp\cczB0neC.s 			page 19


 424              		.loc 1 601 0
 425 0034 B1F90020 		ldrsh	r2, [r1]
 426 0038 0A4B     		ldr	r3, .L51+8
 427 003a 1B88     		ldrh	r3, [r3]
 428 003c 9B1A     		subs	r3, r3, r2
 429 003e 013B     		subs	r3, r3, #1
 430 0040 0B80     		strh	r3, [r1]	@ movhi
 602:ssd1306.c     ****             break;
 431              		.loc 1 602 0
 432 0042 7047     		bx	lr
 433              	.LVL44:
 434              	.L46:
 590:ssd1306.c     **** 
 435              		.loc 1 590 0
 436 0044 10B4     		push	{r4}
 437              		.cfi_def_cfa_offset 4
 438              		.cfi_offset 4, -4
 603:ssd1306.c     ****         case 3:
 604:ssd1306.c     ****             *py = HEIGHT - *px - 1;
 439              		.loc 1 604 0
 440 0046 B0F90040 		ldrsh	r4, [r0]
 441 004a 064B     		ldr	r3, .L51+8
 442 004c 1B88     		ldrh	r3, [r3]
 443 004e 1B1B     		subs	r3, r3, r4
 444 0050 013B     		subs	r3, r3, #1
 445 0052 0B80     		strh	r3, [r1]	@ movhi
 605:ssd1306.c     ****             *px = y0;
 446              		.loc 1 605 0
 447 0054 0280     		strh	r2, [r0]	@ movhi
 606:ssd1306.c     ****             break;
 607:ssd1306.c     ****     }
 608:ssd1306.c     **** }
 448              		.loc 1 608 0
 449 0056 10BC     		pop	{r4}
 450              		.cfi_restore 4
 451              		.cfi_def_cfa_offset 0
 452              	.L50:
 453 0058 7047     		bx	lr
 454              	.L52:
 455 005a 00BF     		.align	2
 456              	.L51:
 457 005c 00000000 		.word	rotation
 458 0060 00000000 		.word	WIDTH
 459 0064 00000000 		.word	HEIGHT
 460              		.cfi_endproc
 461              	.LFE21:
 462              		.size	gfx_rotation_adjust, .-gfx_rotation_adjust
 463              		.section	.text.gfx_hvLine,"ax",%progbits
 464              		.align	2
 465              		.thumb
 466              		.thumb_func
 467              		.type	gfx_hvLine, %function
 468              	gfx_hvLine:
 469              	.LFB23:
 609:ssd1306.c     **** /***********************************************************************
 610:ssd1306.c     **** *! \fn			void gfx_drawPixel( int16_t x, int16_t y, uint16_t color )
 611:ssd1306.c     **** *  \brief		draw pixel
ARM GAS  C:\Users\Besitzer\AppData\Local\Temp\cczB0neC.s 			page 20


 612:ssd1306.c     **** *  \param		int16_t x,
 613:ssd1306.c     **** *  \param		int16_t y
 614:ssd1306.c     **** *  \param		uint16_t color 
 615:ssd1306.c     **** *  \exception	none
 616:ssd1306.c     **** *  \return		none
 617:ssd1306.c     **** ***********************************************************************/
 618:ssd1306.c     **** void gfx_drawPixel( int16_t x, int16_t y, uint16_t color ){
 619:ssd1306.c     ****     
 620:ssd1306.c     ****     if( (x < 0) || (x >= _width) || (y < 0) || (y >= _height) )
 621:ssd1306.c     ****         return;
 622:ssd1306.c     ****     
 623:ssd1306.c     ****     gfx_rotation_adjust( &x, &y );
 624:ssd1306.c     **** 
 625:ssd1306.c     ****     display_setPixel(x,y,color);
 626:ssd1306.c     **** }
 627:ssd1306.c     **** 
 628:ssd1306.c     **** /***********************************************************************
 629:ssd1306.c     **** *! \fn			static void gfx_hvLine( int16_t x1, int16_t y1, int16_t x2, int16_t y2, uint16_t color )
 630:ssd1306.c     **** *  \brief		helper function for gfx_drawLine, handles special 
 631:ssd1306.c     **** *               cases of horizontal and vertical lines
 632:ssd1306.c     **** *  \param		int16_t x1
 633:ssd1306.c     **** *  \param		int16_t y1
 634:ssd1306.c     **** *  \param		int16_t x2,
 635:ssd1306.c     **** *  \param		int16_t y2
 636:ssd1306.c     **** *  \param		uint16_t color
 637:ssd1306.c     **** *  \exception	none
 638:ssd1306.c     **** *  \return		none
 639:ssd1306.c     **** ***********************************************************************/
 640:ssd1306.c     **** static void gfx_hvLine( int16_t x1, int16_t y1, int16_t x2, int16_t y2, uint16_t color ){
 470              		.loc 1 640 0
 471              		.cfi_startproc
 472              		@ args = 4, pretend = 0, frame = 8
 473              		@ frame_needed = 0, uses_anonymous_args = 0
 474              	.LVL45:
 475 0000 10B5     		push	{r4, lr}
 476              		.cfi_def_cfa_offset 8
 477              		.cfi_offset 4, -8
 478              		.cfi_offset 14, -4
 479 0002 84B0     		sub	sp, sp, #16
 480              		.cfi_def_cfa_offset 24
 481 0004 ADF80E00 		strh	r0, [sp, #14]	@ movhi
 482 0008 ADF80C10 		strh	r1, [sp, #12]	@ movhi
 483 000c ADF80A20 		strh	r2, [sp, #10]	@ movhi
 484 0010 ADF80830 		strh	r3, [sp, #8]	@ movhi
 641:ssd1306.c     ****     
 642:ssd1306.c     ****     if( x1 != x2 && y1 != y2 ){
 485              		.loc 1 642 0
 486 0014 9042     		cmp	r0, r2
 487 0016 03D0     		beq	.L54
 488              		.loc 1 642 0 is_stmt 0 discriminator 1
 489 0018 09B2     		sxth	r1, r1
 490              	.LVL46:
 491 001a 1BB2     		sxth	r3, r3
 492              	.LVL47:
 493 001c 9942     		cmp	r1, r3
 494 001e 71D1     		bne	.L53
 495              	.L54:
ARM GAS  C:\Users\Besitzer\AppData\Local\Temp\cczB0neC.s 			page 21


 643:ssd1306.c     ****         // neither vertical nor horizontal
 644:ssd1306.c     ****         return;
 645:ssd1306.c     ****     }    
 646:ssd1306.c     ****     
 647:ssd1306.c     ****     // bounds check
 648:ssd1306.c     ****     if( rotation == 1 || rotation == 3 ){
 496              		.loc 1 648 0 is_stmt 1
 497 0020 394B     		ldr	r3, .L63
 498 0022 1B78     		ldrb	r3, [r3]	@ zero_extendqisi2
 499 0024 012B     		cmp	r3, #1
 500 0026 01D0     		beq	.L56
 501              		.loc 1 648 0 is_stmt 0 discriminator 1
 502 0028 032B     		cmp	r3, #3
 503 002a 1AD1     		bne	.L57
 504              	.L56:
 649:ssd1306.c     ****         if( x1 < 0 || x1 >= HEIGHT || x2 < 0 || x2 >= HEIGHT )
 505              		.loc 1 649 0 is_stmt 1
 506 002c 0028     		cmp	r0, #0
 507 002e 69DB     		blt	.L53
 508              		.loc 1 649 0 is_stmt 0 discriminator 1
 509 0030 364B     		ldr	r3, .L63+4
 510 0032 B3F90030 		ldrsh	r3, [r3]
 511 0036 9842     		cmp	r0, r3
 512 0038 64DA     		bge	.L53
 513              		.loc 1 649 0 discriminator 2
 514 003a 002A     		cmp	r2, #0
 515 003c 62DB     		blt	.L53
 516              		.loc 1 649 0 discriminator 3
 517 003e 9A42     		cmp	r2, r3
 518 0040 60DA     		bge	.L53
 650:ssd1306.c     ****             return;
 651:ssd1306.c     ****         if( y1 < 0 || y1 >= WIDTH || y2 < 0 || y2 >= WIDTH )
 519              		.loc 1 651 0 is_stmt 1
 520 0042 BDF90C30 		ldrsh	r3, [sp, #12]
 521 0046 002B     		cmp	r3, #0
 522 0048 5CDB     		blt	.L53
 523              		.loc 1 651 0 is_stmt 0 discriminator 1
 524 004a 314A     		ldr	r2, .L63+8
 525              	.LVL48:
 526 004c B2F90020 		ldrsh	r2, [r2]
 527 0050 9342     		cmp	r3, r2
 528 0052 57DA     		bge	.L53
 529              		.loc 1 651 0 discriminator 2
 530 0054 BDF90830 		ldrsh	r3, [sp, #8]
 531 0058 002B     		cmp	r3, #0
 532 005a 53DB     		blt	.L53
 533              		.loc 1 651 0 discriminator 3
 534 005c 9A42     		cmp	r2, r3
 535 005e 1ADC     		bgt	.L58
 536 0060 50E0     		b	.L53
 537              	.LVL49:
 538              	.L57:
 652:ssd1306.c     ****             return;
 653:ssd1306.c     ****     }else{
 654:ssd1306.c     ****         if( y1 < 0 || y1 >= HEIGHT || y2 < 0 || y2 >= HEIGHT )
 539              		.loc 1 654 0 is_stmt 1
 540 0062 BDF90C30 		ldrsh	r3, [sp, #12]
ARM GAS  C:\Users\Besitzer\AppData\Local\Temp\cczB0neC.s 			page 22


 541 0066 002B     		cmp	r3, #0
 542 0068 4CDB     		blt	.L53
 543              		.loc 1 654 0 is_stmt 0 discriminator 1
 544 006a 2849     		ldr	r1, .L63+4
 545 006c B1F90010 		ldrsh	r1, [r1]
 546 0070 8B42     		cmp	r3, r1
 547 0072 47DA     		bge	.L53
 548              		.loc 1 654 0 discriminator 2
 549 0074 BDF90830 		ldrsh	r3, [sp, #8]
 550 0078 002B     		cmp	r3, #0
 551 007a 43DB     		blt	.L53
 552              		.loc 1 654 0 discriminator 3
 553 007c 9942     		cmp	r1, r3
 554 007e 41DD     		ble	.L53
 655:ssd1306.c     ****             return;
 656:ssd1306.c     ****         if( x1 < 0 || x1 >= WIDTH || x2 < 0 || x2 >= WIDTH )
 555              		.loc 1 656 0 is_stmt 1
 556 0080 0028     		cmp	r0, #0
 557 0082 3FDB     		blt	.L53
 558              		.loc 1 656 0 is_stmt 0 discriminator 1
 559 0084 224B     		ldr	r3, .L63+8
 560 0086 B3F90030 		ldrsh	r3, [r3]
 561 008a 9842     		cmp	r0, r3
 562 008c 3ADA     		bge	.L53
 563              		.loc 1 656 0 discriminator 2
 564 008e 002A     		cmp	r2, #0
 565 0090 38DB     		blt	.L53
 566              		.loc 1 656 0 discriminator 3
 567 0092 9A42     		cmp	r2, r3
 568 0094 36DA     		bge	.L53
 569              	.LVL50:
 570              	.L58:
 657:ssd1306.c     ****             return;
 658:ssd1306.c     ****     }
 659:ssd1306.c     ****     
 660:ssd1306.c     ****     gfx_rotation_adjust( &x1, &y1 );
 571              		.loc 1 660 0 is_stmt 1
 572 0096 03A9     		add	r1, sp, #12
 573              	.LVL51:
 574 0098 0DF10E00 		add	r0, sp, #14
 575              	.LVL52:
 576 009c FFF7FEFF 		bl	gfx_rotation_adjust
 577              	.LVL53:
 661:ssd1306.c     ****     gfx_rotation_adjust( &x2, &y2 );
 578              		.loc 1 661 0
 579 00a0 02A9     		add	r1, sp, #8
 580              	.LVL54:
 581 00a2 0DF10A00 		add	r0, sp, #10
 582              	.LVL55:
 583 00a6 FFF7FEFF 		bl	gfx_rotation_adjust
 584              	.LVL56:
 662:ssd1306.c     ****     
 663:ssd1306.c     ****     // ensure coords are from left to right and top to bottom
 664:ssd1306.c     ****     if( (x1 == x2 && y2 < y1) || (y1 == y2 && x2 < x1) ){
 585              		.loc 1 664 0
 586 00aa BDF90E30 		ldrsh	r3, [sp, #14]
 587 00ae BDF90A20 		ldrsh	r2, [sp, #10]
ARM GAS  C:\Users\Besitzer\AppData\Local\Temp\cczB0neC.s 			page 23


 588 00b2 9342     		cmp	r3, r2
 589 00b4 05D1     		bne	.L59
 590              		.loc 1 664 0 is_stmt 0 discriminator 1
 591 00b6 BDF90800 		ldrsh	r0, [sp, #8]
 592 00ba BDF90C10 		ldrsh	r1, [sp, #12]
 593 00be 8842     		cmp	r0, r1
 594 00c0 07DB     		blt	.L60
 595              	.L59:
 596              		.loc 1 664 0 discriminator 3
 597 00c2 BDF90C00 		ldrsh	r0, [sp, #12]
 598 00c6 BDF90810 		ldrsh	r1, [sp, #8]
 599 00ca 8842     		cmp	r0, r1
 600 00cc 0DD1     		bne	.L61
 601              		.loc 1 664 0 discriminator 4
 602 00ce 9342     		cmp	r3, r2
 603 00d0 0BDD     		ble	.L61
 604              	.L60:
 605              	.LVL57:
 606              	.LBB6:
 665:ssd1306.c     ****         // swap as needed
 666:ssd1306.c     ****         int16_t t = x1; x1 = x2; x2 = t;
 607              		.loc 1 666 0 is_stmt 1
 608 00d2 ADF80E20 		strh	r2, [sp, #14]	@ movhi
 609 00d6 ADF80A30 		strh	r3, [sp, #10]	@ movhi
 667:ssd1306.c     ****         t = y1; y1 = y2; y2 = t;
 610              		.loc 1 667 0
 611 00da BDF90C30 		ldrsh	r3, [sp, #12]
 612              	.LVL58:
 613 00de BDF80820 		ldrh	r2, [sp, #8]
 614 00e2 ADF80C20 		strh	r2, [sp, #12]	@ movhi
 615 00e6 ADF80830 		strh	r3, [sp, #8]	@ movhi
 616              	.LVL59:
 617              	.L61:
 618              	.LBE6:
 668:ssd1306.c     ****     }
 669:ssd1306.c     ****     
 670:ssd1306.c     ****     display_line( x1, y1, x2, y2, color );
 619              		.loc 1 670 0
 620 00ea BDF90830 		ldrsh	r3, [sp, #8]
 621 00ee BDF90A20 		ldrsh	r2, [sp, #10]
 622 00f2 BDF90C10 		ldrsh	r1, [sp, #12]
 623 00f6 BDF90E00 		ldrsh	r0, [sp, #14]
 624 00fa BDF81840 		ldrh	r4, [sp, #24]
 625 00fe 0094     		str	r4, [sp]
 626 0100 FFF7FEFF 		bl	display_line
 627              	.LVL60:
 628              	.L53:
 671:ssd1306.c     **** }
 629              		.loc 1 671 0
 630 0104 04B0     		add	sp, sp, #16
 631              		.cfi_def_cfa_offset 8
 632              		@ sp needed
 633 0106 10BD     		pop	{r4, pc}
 634              	.LVL61:
 635              	.L64:
 636              		.align	2
 637              	.L63:
ARM GAS  C:\Users\Besitzer\AppData\Local\Temp\cczB0neC.s 			page 24


 638 0108 00000000 		.word	rotation
 639 010c 00000000 		.word	HEIGHT
 640 0110 00000000 		.word	WIDTH
 641              		.cfi_endproc
 642              	.LFE23:
 643              		.size	gfx_hvLine, .-gfx_hvLine
 644              		.section	.text.display_write_buf,"ax",%progbits
 645              		.align	2
 646              		.thumb
 647              		.thumb_func
 648              		.type	display_write_buf, %function
 649              	display_write_buf:
 650              	.LFB33:
 672:ssd1306.c     **** /***********************************************************************
 673:ssd1306.c     **** *! \fn			void gfx_drawLine( int16_t x0, int16_t y0, int16_t x1, int16_t y1, uint16_t color )
 674:ssd1306.c     **** *  \brief		always use this function for line drawing
 675:ssd1306.c     **** *  \param		int16_t x0
 676:ssd1306.c     **** *  \param		int16_t y0
 677:ssd1306.c     **** *  \param		int16_t x1
 678:ssd1306.c     **** *  \param		int16_t y1
 679:ssd1306.c     **** *  \param		uint16_t color
 680:ssd1306.c     **** *  \exception	none
 681:ssd1306.c     **** *  \return		none
 682:ssd1306.c     **** ***********************************************************************/
 683:ssd1306.c     **** void gfx_drawLine( int16_t x0, int16_t y0, int16_t x1, int16_t y1, uint16_t color ){
 684:ssd1306.c     ****  
 685:ssd1306.c     ****     if( x0 == x1 || y0 == y1 ){
 686:ssd1306.c     ****         // vertical and horizontal lines can be drawn faster
 687:ssd1306.c     ****         gfx_hvLine( x0, y0, x1, y1, color );
 688:ssd1306.c     ****         return;
 689:ssd1306.c     ****     }
 690:ssd1306.c     ****     
 691:ssd1306.c     ****     int16_t t;
 692:ssd1306.c     ****     
 693:ssd1306.c     ****     int16_t steep = abs(y1 - y0) > abs(x1 - x0);
 694:ssd1306.c     ****     if( steep ){
 695:ssd1306.c     ****         t = x0; x0 = y0; y0 = t;
 696:ssd1306.c     ****         t = x1; x1 = y1; y1 = t;
 697:ssd1306.c     ****     }
 698:ssd1306.c     ****     if( x0 > x1 ){
 699:ssd1306.c     ****         t = x0; x0 = x1; x1 = t;
 700:ssd1306.c     ****         t = y0; y0 = y1; y1 = t;
 701:ssd1306.c     ****     }
 702:ssd1306.c     ****     int16_t dx, dy;
 703:ssd1306.c     ****     dx = x1 - x0;
 704:ssd1306.c     ****     dy = abs(y1 - y0);
 705:ssd1306.c     ****     int16_t err = dx / 2;
 706:ssd1306.c     ****     int16_t ystep;
 707:ssd1306.c     ****     if( y0 < y1 ){
 708:ssd1306.c     ****         ystep = 1;
 709:ssd1306.c     ****     }else{
 710:ssd1306.c     ****         ystep = -1;
 711:ssd1306.c     ****     }
 712:ssd1306.c     ****     for( ; x0<=x1; x0++ ){
 713:ssd1306.c     ****         if( steep ){
 714:ssd1306.c     ****             gfx_drawPixel( y0, x0, color );
 715:ssd1306.c     ****         }else{
ARM GAS  C:\Users\Besitzer\AppData\Local\Temp\cczB0neC.s 			page 25


 716:ssd1306.c     ****             gfx_drawPixel( x0, y0, color );
 717:ssd1306.c     ****         }
 718:ssd1306.c     ****         err -= dy;
 719:ssd1306.c     ****         if( err < 0 ){
 720:ssd1306.c     ****             y0 += ystep;
 721:ssd1306.c     ****             err += dx;
 722:ssd1306.c     ****         }
 723:ssd1306.c     ****     }
 724:ssd1306.c     **** }
 725:ssd1306.c     **** /***********************************************************************
 726:ssd1306.c     **** *! \fn			void gfx_drawRect( int16_t x, int16_t y, int16_t w, int16_t h, uint16_t color )
 727:ssd1306.c     **** *  \brief		draw an rectangle
 728:ssd1306.c     **** *  \param		int16_t x
 729:ssd1306.c     **** *  \param		int16_t y
 730:ssd1306.c     **** *  \param		int16_t w - border
 731:ssd1306.c     **** *  \param		uint16_t color
 732:ssd1306.c     **** *  \exception	none
 733:ssd1306.c     **** *  \return		none
 734:ssd1306.c     **** ***********************************************************************/
 735:ssd1306.c     **** void gfx_drawRect( int16_t x, int16_t y, int16_t w, int16_t h, uint16_t color ){
 736:ssd1306.c     ****     
 737:ssd1306.c     ****     gfx_drawLine( x, y, x+w-1, y, color );
 738:ssd1306.c     ****     gfx_drawLine( x, y+h-1, x+w-1, y+h-1, color );
 739:ssd1306.c     ****     gfx_drawLine( x, y, x, y+h-1, color );
 740:ssd1306.c     ****     gfx_drawLine( x+w-1, y, x+w-1, y+h-1, color );
 741:ssd1306.c     **** }
 742:ssd1306.c     **** /***********************************************************************
 743:ssd1306.c     **** *! \fn			gfx_fillRect( int16_t x, int16_t y, int16_t w, int16_t h, uint16_t color )
 744:ssd1306.c     **** *  \brief		draw an filled rectangle
 745:ssd1306.c     **** *  \param		int16_t x
 746:ssd1306.c     **** *  \param		int16_t y
 747:ssd1306.c     **** *  \param		int16_t w - border
 748:ssd1306.c     **** *  \param		int16_t h - heigth of filling
 749:ssd1306.c     **** *  \param		uint16_t color
 750:ssd1306.c     **** *  \exception	none
 751:ssd1306.c     **** *  \return		none
 752:ssd1306.c     **** ***********************************************************************/
 753:ssd1306.c     **** void gfx_fillRect( int16_t x, int16_t y, int16_t w, int16_t h, uint16_t color ){
 754:ssd1306.c     ****     int16_t i = 0;
 755:ssd1306.c     ****     if( h > w ){
 756:ssd1306.c     ****         for( i = x ; i < x+w ; i++ ){
 757:ssd1306.c     ****             gfx_drawLine( i, y, i, y+h-1, color );
 758:ssd1306.c     ****         }
 759:ssd1306.c     ****     }else{
 760:ssd1306.c     ****         for( i = y ; i < y+h ; i++ ){
 761:ssd1306.c     ****             gfx_drawLine( x, i, x+w-1, i, color );
 762:ssd1306.c     ****         }
 763:ssd1306.c     ****     }
 764:ssd1306.c     **** }
 765:ssd1306.c     **** 
 766:ssd1306.c     **** /***********************************************************************
 767:ssd1306.c     **** *! \fn			void gfx_drawCircle( int16_t x0, int16_t y0, int16_t r,uint16_t color )
 768:ssd1306.c     **** *  \brief		draw an circle outline
 769:ssd1306.c     **** *  \param		int16_t x0
 770:ssd1306.c     **** *  \param	    int16_t y0
 771:ssd1306.c     **** *  \param		int16_t r
 772:ssd1306.c     **** *  \param		uint16_t color
ARM GAS  C:\Users\Besitzer\AppData\Local\Temp\cczB0neC.s 			page 26


 773:ssd1306.c     **** *  \exception	none
 774:ssd1306.c     **** *  \return		none
 775:ssd1306.c     **** ***********************************************************************/
 776:ssd1306.c     **** void gfx_drawCircle( int16_t x0, int16_t y0, int16_t r,uint16_t color ){
 777:ssd1306.c     **** 
 778:ssd1306.c     ****     int16_t f = 1 - r;
 779:ssd1306.c     ****     int16_t ddF_x = 1;
 780:ssd1306.c     ****     int16_t ddF_y = -2 * r;
 781:ssd1306.c     ****     int16_t x = 0;
 782:ssd1306.c     ****     int16_t y = r;
 783:ssd1306.c     ****     gfx_drawPixel( x0 , y0+r, color );
 784:ssd1306.c     ****     gfx_drawPixel( x0 , y0-r, color );
 785:ssd1306.c     ****     gfx_drawPixel( x0+r, y0 , color );
 786:ssd1306.c     ****     gfx_drawPixel( x0-r, y0 , color );
 787:ssd1306.c     ****     while( x < y ){
 788:ssd1306.c     ****         if( f >= 0 ){
 789:ssd1306.c     ****             y--;
 790:ssd1306.c     ****             ddF_y += 2;
 791:ssd1306.c     ****             f += ddF_y;
 792:ssd1306.c     ****         }
 793:ssd1306.c     ****         x++;
 794:ssd1306.c     ****         ddF_x += 2;
 795:ssd1306.c     ****         f += ddF_x;
 796:ssd1306.c     ****         gfx_drawPixel( x0 + x, y0 + y, color );
 797:ssd1306.c     ****         gfx_drawPixel( x0 - x, y0 + y, color );
 798:ssd1306.c     ****         gfx_drawPixel( x0 + x, y0 - y, color );
 799:ssd1306.c     ****         gfx_drawPixel( x0 - x, y0 - y, color );
 800:ssd1306.c     ****         gfx_drawPixel( x0 + y, y0 + x, color );
 801:ssd1306.c     ****         gfx_drawPixel( x0 - y, y0 + x, color );
 802:ssd1306.c     ****         gfx_drawPixel( x0 + y, y0 - x, color );
 803:ssd1306.c     ****         gfx_drawPixel( x0 - y, y0 - x, color );
 804:ssd1306.c     ****     }
 805:ssd1306.c     **** }
 806:ssd1306.c     **** /***********************************************************************
 807:ssd1306.c     **** *! \fn			void gfx_drawCircle( int16_t x0, int16_t y0, int16_t r,uint16_t color )
 808:ssd1306.c     **** *  \brief		draw an circle outline
 809:ssd1306.c     **** *  \param		int16_t x0
 810:ssd1306.c     **** *  \param	    int16_t y0
 811:ssd1306.c     **** *  \param		int16_t r
 812:ssd1306.c     **** *  \param		uint16_t color
 813:ssd1306.c     **** *  \exception	none
 814:ssd1306.c     **** *  \return		none
 815:ssd1306.c     **** ***********************************************************************/
 816:ssd1306.c     **** void gfx_drawTriangle( int16_t x0, int16_t y0,int16_t x1, int16_t y1, int16_t x2, int16_t y2, uint1
 817:ssd1306.c     ****     
 818:ssd1306.c     ****     gfx_drawLine( x0, y0, x1, y1, color );
 819:ssd1306.c     ****     gfx_drawLine( x1, y1, x2, y2, color );
 820:ssd1306.c     ****     gfx_drawLine( x2, y2, x0, y0, color );
 821:ssd1306.c     **** }
 822:ssd1306.c     **** 
 823:ssd1306.c     **** /***********************************************************************
 824:ssd1306.c     **** *! \fn			void gfx_drawChar( int16_t x, int16_t y, unsigned char c,uint16_t color, uint16_t bg, uint
 825:ssd1306.c     **** *  \brief		Draw a character
 826:ssd1306.c     **** *  \param		int16_t x
 827:ssd1306.c     **** *  \param		int16_t y
 828:ssd1306.c     **** *  \param		unsigned char c
 829:ssd1306.c     **** *  \param		uint16_t color
ARM GAS  C:\Users\Besitzer\AppData\Local\Temp\cczB0neC.s 			page 27


 830:ssd1306.c     **** *  \param		uint16_t bg
 831:ssd1306.c     **** *  \param		uint8_t size
 832:ssd1306.c     **** *  \exception	none
 833:ssd1306.c     **** *  \return		none
 834:ssd1306.c     **** ***********************************************************************/
 835:ssd1306.c     **** void gfx_drawChar( int16_t x, int16_t y, unsigned char c,uint16_t color, uint16_t bg, uint8_t size)
 836:ssd1306.c     ****     if( (x >= _width) || // Clip right
 837:ssd1306.c     ****         (y >= _height) || // Clip bottom
 838:ssd1306.c     ****         ((x + 6 * size - 1) < 0) || // Clip left
 839:ssd1306.c     ****         ((y + 8 * size - 1) < 0)) // Clip top
 840:ssd1306.c     ****         return;
 841:ssd1306.c     **** 
 842:ssd1306.c     ****     int8_t i = 0;
 843:ssd1306.c     ****     for( i = 0 ; i < 6 ; i++ ){
 844:ssd1306.c     ****         uint8_t line;
 845:ssd1306.c     ****         if( i == 5 )
 846:ssd1306.c     ****             line = 0x0;
 847:ssd1306.c     ****         else
 848:ssd1306.c     ****            line = font[(c*5)+i];
 849:ssd1306.c     ****         int8_t j = 0;
 850:ssd1306.c     ****         for( j = 0; j < 8 ; j++ ){
 851:ssd1306.c     ****             if( line & 0x1 ){
 852:ssd1306.c     ****                 if( size == 1 ) // default size
 853:ssd1306.c     ****                     gfx_drawPixel( x+i, y+j, color );
 854:ssd1306.c     ****                 else { // big size
 855:ssd1306.c     ****                     gfx_fillRect( x+(i*size), y+(j*size), size, size, color );
 856:ssd1306.c     ****                 }
 857:ssd1306.c     ****             } else if( bg != color ){
 858:ssd1306.c     ****                 if( size == 1 ) // default size
 859:ssd1306.c     ****                     gfx_drawPixel( x+i, y+j, bg );
 860:ssd1306.c     ****                 else { // big size
 861:ssd1306.c     ****                     gfx_fillRect( x+i*size, y+j*size, size, size, bg );
 862:ssd1306.c     ****                 }
 863:ssd1306.c     ****             }
 864:ssd1306.c     ****             line >>= 1;
 865:ssd1306.c     ****         }
 866:ssd1306.c     ****     }
 867:ssd1306.c     **** }
 868:ssd1306.c     **** /***********************************************************************
 869:ssd1306.c     **** *! \fn			void gfx_write( uint8_t ch )
 870:ssd1306.c     **** *  \brief		write character
 871:ssd1306.c     **** *  \param		uint8_t ch 
 872:ssd1306.c     **** *  \exception	none
 873:ssd1306.c     **** *  \return		none
 874:ssd1306.c     **** ***********************************************************************/
 875:ssd1306.c     **** void gfx_write( uint8_t ch ){
 876:ssd1306.c     ****     if( ch == '\n' ){
 877:ssd1306.c     ****         cursor_y += textsize*8;
 878:ssd1306.c     ****         cursor_x = 0;
 879:ssd1306.c     ****     }else if( ch == '\r' ){
 880:ssd1306.c     ****         // skip em
 881:ssd1306.c     ****     }else{
 882:ssd1306.c     ****         gfx_drawChar(cursor_x, cursor_y, ch, textcolor, textbgcolor, textsize);
 883:ssd1306.c     ****         cursor_x += textsize*6;
 884:ssd1306.c     ****         if( wrap && (cursor_x > (_width - textsize*6)) ){
 885:ssd1306.c     ****             cursor_y += textsize*8;
 886:ssd1306.c     ****             cursor_x = 0;
ARM GAS  C:\Users\Besitzer\AppData\Local\Temp\cczB0neC.s 			page 28


 887:ssd1306.c     ****         }
 888:ssd1306.c     ****     }
 889:ssd1306.c     **** }
 890:ssd1306.c     **** /***********************************************************************
 891:ssd1306.c     **** *! \fn			void gfx_print( const char* s )
 892:ssd1306.c     **** *  \brief		write text
 893:ssd1306.c     **** *  \param		const char* s - pointer to text
 894:ssd1306.c     **** *  \exception	none
 895:ssd1306.c     **** *  \return		none
 896:ssd1306.c     **** ***********************************************************************/
 897:ssd1306.c     **** void gfx_print( const char* s ){
 898:ssd1306.c     ****     
 899:ssd1306.c     ****     unsigned int len = strlen( s );
 900:ssd1306.c     ****     unsigned int i = 0; 
 901:ssd1306.c     ****     for( i = 0 ; i < len ; i++ ){
 902:ssd1306.c     ****         gfx_write( s[i] );
 903:ssd1306.c     ****     }
 904:ssd1306.c     **** }
 905:ssd1306.c     **** /***********************************************************************
 906:ssd1306.c     **** *! \fn			void gfx_println( const char* s )
 907:ssd1306.c     **** *  \brief		write text with new line
 908:ssd1306.c     **** *  \param		const char* s - pointer to text
 909:ssd1306.c     **** *  \exception	none
 910:ssd1306.c     **** *  \return		none
 911:ssd1306.c     **** ***********************************************************************/
 912:ssd1306.c     **** void gfx_println( const char* s ){ 
 913:ssd1306.c     ****     gfx_print( s ); 
 914:ssd1306.c     ****     gfx_write( '\n' );
 915:ssd1306.c     **** }
 916:ssd1306.c     **** //########################################### HAL #################################################
 917:ssd1306.c     **** 
 918:ssd1306.c     **** /***********************************************************************
 919:ssd1306.c     **** *! \fn			static uint32 display_write_buf( uint8_t* buf, uint16_t size )
 920:ssd1306.c     **** *  \brief		for submitting command sequences:
 921:ssd1306.c     **** *               buf[0] must be 0x00
 922:ssd1306.c     **** *               for submitting bulk data (writing to display RAM):
 923:ssd1306.c     **** *               buf[0] must be 0x40
 924:ssd1306.c     **** *  \param		uint8_t cmd - Command to send
 925:ssd1306.c     **** *  \exception	none
 926:ssd1306.c     **** *  \return		none
 927:ssd1306.c     **** ***********************************************************************/
 928:ssd1306.c     **** static uint32 display_write_buf( uint8_t* buf, uint16_t size ){
 651              		.loc 1 928 0
 652              		.cfi_startproc
 653              		@ args = 0, pretend = 0, frame = 0
 654              		@ frame_needed = 0, uses_anonymous_args = 0
 655              	.LVL62:
 656 0000 F8B5     		push	{r3, r4, r5, r6, r7, lr}
 657              		.cfi_def_cfa_offset 24
 658              		.cfi_offset 3, -24
 659              		.cfi_offset 4, -20
 660              		.cfi_offset 5, -16
 661              		.cfi_offset 6, -12
 662              		.cfi_offset 7, -8
 663              		.cfi_offset 14, -4
 664 0002 0546     		mov	r5, r0
 665 0004 0F46     		mov	r7, r1
ARM GAS  C:\Users\Besitzer\AppData\Local\Temp\cczB0neC.s 			page 29


 666              	.LVL63:
 929:ssd1306.c     **** 
 930:ssd1306.c     ****     uint32_t status = TRANSFER_ERROR;
 931:ssd1306.c     ****     uint8_t transmit_status;
 932:ssd1306.c     ****     uint16_t cnt = 0;
 933:ssd1306.c     ****     /*I2C_1_MasterWriteBuf(_i2caddr, buf, size, I2C_1_MODE_COMPLETE_XFER);
 934:ssd1306.c     ****     while( 0u == (I2C_1_MasterStatus() & I2C_1_MSTAT_WR_CMPLT) );
 935:ssd1306.c     **** 
 936:ssd1306.c     ****     if( 0u == (I2C_1_MSTAT_ERR_XFER & I2C_1_MasterStatus()) ){
 937:ssd1306.c     ****         // Check if all bytes was written 
 938:ssd1306.c     ****         if( I2C_1_MasterGetWriteBufSize() == size ){
 939:ssd1306.c     ****             status = TRANSFER_CMPLT;
 940:ssd1306.c     ****         }
 941:ssd1306.c     ****     }
 942:ssd1306.c     ****     I2C_1_MasterClearStatus();
 943:ssd1306.c     **** 
 944:ssd1306.c     ****     return status;*/
 945:ssd1306.c     ****     I2C_1_DisableInt();
 667              		.loc 1 945 0
 668 0006 4FF40042 		mov	r2, #32768
 669 000a 0E4B     		ldr	r3, .L72
 670 000c 1A60     		str	r2, [r3]
 946:ssd1306.c     ****     transmit_status = I2C_1_MasterSendStart(_i2caddr, I2C_1_WRITE_XFER_MODE);
 671              		.loc 1 946 0
 672 000e 0021     		movs	r1, #0
 673              	.LVL64:
 674 0010 0D4B     		ldr	r3, .L72+4
 675 0012 1878     		ldrb	r0, [r3]	@ zero_extendqisi2
 676              	.LVL65:
 677 0014 FFF7FEFF 		bl	I2C_1_MasterSendStart
 678              	.LVL66:
 947:ssd1306.c     ****     /* Check if start generation completed without errors */
 948:ssd1306.c     ****     if (I2C_1_MSTR_NO_ERROR == transmit_status){
 679              		.loc 1 948 0
 680 0018 48B1     		cbz	r0, .L70
 681 001a 0DE0     		b	.L67
 682              	.LVL67:
 683              	.L69:
 949:ssd1306.c     ****         for(cnt = 0; cnt < size; cnt++){
 950:ssd1306.c     ****             transmit_status = I2C_1_MasterWriteByte(*buf++);
 684              		.loc 1 950 0
 685 001c 6E1C     		adds	r6, r5, #1
 686              	.LVL68:
 687 001e 2878     		ldrb	r0, [r5]	@ zero_extendqisi2
 688              	.LVL69:
 689 0020 FFF7FEFF 		bl	I2C_1_MasterWriteByte
 690              	.LVL70:
 951:ssd1306.c     ****             if (transmit_status != I2C_1_MSTR_NO_ERROR){
 691              		.loc 1 951 0
 692 0024 30B9     		cbnz	r0, .L68
 949:ssd1306.c     ****         for(cnt = 0; cnt < size; cnt++){
 693              		.loc 1 949 0 discriminator 2
 694 0026 0134     		adds	r4, r4, #1
 695              	.LVL71:
 696 0028 A4B2     		uxth	r4, r4
 697              	.LVL72:
 950:ssd1306.c     ****             if (transmit_status != I2C_1_MSTR_NO_ERROR){
ARM GAS  C:\Users\Besitzer\AppData\Local\Temp\cczB0neC.s 			page 30


 698              		.loc 1 950 0 discriminator 2
 699 002a 3546     		mov	r5, r6
 700 002c 00E0     		b	.L66
 701              	.LVL73:
 702              	.L70:
 703 002e 0024     		movs	r4, #0
 704              	.LVL74:
 705              	.L66:
 949:ssd1306.c     ****         for(cnt = 0; cnt < size; cnt++){
 706              		.loc 1 949 0 discriminator 1
 707 0030 BC42     		cmp	r4, r7
 708 0032 F3D3     		bcc	.L69
 709              	.LVL75:
 710              	.L68:
 952:ssd1306.c     ****                 break;
 953:ssd1306.c     ****             }
 954:ssd1306.c     ****         }
 955:ssd1306.c     ****         I2C_1_MasterSendStop(); /* Send Stop */
 711              		.loc 1 955 0
 712 0034 FFF7FEFF 		bl	I2C_1_MasterSendStop
 713              	.LVL76:
 714              	.L67:
 956:ssd1306.c     ****     }
 957:ssd1306.c     ****     I2C_1_EnableInt(); /* Enable interrupt, if it was enabled before */
 715              		.loc 1 957 0
 716 0038 4FF40042 		mov	r2, #32768
 717 003c 034B     		ldr	r3, .L72+8
 718 003e 1A60     		str	r2, [r3]
 719              	.LVL77:
 958:ssd1306.c     **** 
 959:ssd1306.c     ****     status = TRANSFER_CMPLT;
 960:ssd1306.c     ****     return status;
 961:ssd1306.c     ****     
 962:ssd1306.c     **** }
 720              		.loc 1 962 0
 721 0040 0020     		movs	r0, #0
 722 0042 F8BD     		pop	{r3, r4, r5, r6, r7, pc}
 723              	.L73:
 724              		.align	2
 725              	.L72:
 726 0044 80E100E0 		.word	-536813184
 727 0048 00000000 		.word	.LANCHOR1
 728 004c 00E100E0 		.word	-536813312
 729              		.cfi_endproc
 730              	.LFE33:
 731              		.size	display_write_buf, .-display_write_buf
 732              		.section	.text.SSD1306_SetColStartAddr,"ax",%progbits
 733              		.align	2
 734              		.thumb
 735              		.thumb_func
 736              		.type	SSD1306_SetColStartAddr, %function
 737              	SSD1306_SetColStartAddr:
 738              	.LFB7:
 328:ssd1306.c     **** 	
 739              		.loc 1 328 0
 740              		.cfi_startproc
 741              		@ args = 0, pretend = 0, frame = 8
ARM GAS  C:\Users\Besitzer\AppData\Local\Temp\cczB0neC.s 			page 31


 742              		@ frame_needed = 0, uses_anonymous_args = 0
 743              	.LVL78:
 331:ssd1306.c     **** 		return;
 744              		.loc 1 331 0
 745 0000 10F0800F 		tst	r0, #128
 746 0004 14D1     		bne	.L78
 328:ssd1306.c     **** 	
 747              		.loc 1 328 0
 748 0006 00B5     		push	{lr}
 749              		.cfi_def_cfa_offset 4
 750              		.cfi_offset 14, -4
 751 0008 83B0     		sub	sp, sp, #12
 752              		.cfi_def_cfa_offset 16
 334:ssd1306.c     ****         0x00,
 753              		.loc 1 334 0
 754 000a 0023     		movs	r3, #0
 755 000c 8DF80430 		strb	r3, [sp, #4]
 756 0010 0309     		lsrs	r3, r0, #4
 757 0012 43F01003 		orr	r3, r3, #16
 758 0016 8DF80530 		strb	r3, [sp, #5]
 759 001a 00F00F00 		and	r0, r0, #15
 760              	.LVL79:
 761 001e 8DF80600 		strb	r0, [sp, #6]
 339:ssd1306.c     **** }
 762              		.loc 1 339 0
 763 0022 0321     		movs	r1, #3
 764 0024 01A8     		add	r0, sp, #4
 765 0026 FFF7FEFF 		bl	display_write_buf
 766              	.LVL80:
 340:ssd1306.c     **** /***********************************************************************
 767              		.loc 1 340 0
 768 002a 03B0     		add	sp, sp, #12
 769              		.cfi_def_cfa_offset 4
 770              		@ sp needed
 771 002c 5DF804FB 		ldr	pc, [sp], #4
 772              	.LVL81:
 773              	.L78:
 774              		.cfi_def_cfa_offset 0
 775              		.cfi_restore 14
 776 0030 7047     		bx	lr
 777              		.cfi_endproc
 778              	.LFE7:
 779              		.size	SSD1306_SetColStartAddr, .-SSD1306_SetColStartAddr
 780 0032 00BF     		.section	.text.display_clear,"ax",%progbits
 781              		.align	2
 782              		.global	display_clear
 783              		.thumb
 784              		.thumb_func
 785              		.type	display_clear, %function
 786              	display_clear:
 787              	.LFB2:
 252:ssd1306.c     ****     memset( _displaybuf, 0, _displaybuf_size );
 788              		.loc 1 252 0
 789              		.cfi_startproc
 790              		@ args = 0, pretend = 0, frame = 0
 791              		@ frame_needed = 0, uses_anonymous_args = 0
 792 0000 10B5     		push	{r4, lr}
ARM GAS  C:\Users\Besitzer\AppData\Local\Temp\cczB0neC.s 			page 32


 793              		.cfi_def_cfa_offset 8
 794              		.cfi_offset 4, -8
 795              		.cfi_offset 14, -4
 253:ssd1306.c     ****     SSD1306_buffer[0] = 0x40; // to be sure its there
 796              		.loc 1 253 0
 797 0002 054C     		ldr	r4, .L81
 798 0004 4FF48062 		mov	r2, #1024
 799 0008 0021     		movs	r1, #0
 800 000a 601C     		adds	r0, r4, #1
 801 000c FFF7FEFF 		bl	memset
 802              	.LVL82:
 254:ssd1306.c     **** }
 803              		.loc 1 254 0
 804 0010 4023     		movs	r3, #64
 805 0012 2370     		strb	r3, [r4]
 806 0014 10BD     		pop	{r4, pc}
 807              	.L82:
 808 0016 00BF     		.align	2
 809              	.L81:
 810 0018 00000000 		.word	.LANCHOR0
 811              		.cfi_endproc
 812              	.LFE2:
 813              		.size	display_clear, .-display_clear
 814              		.section	.text.display_contrast,"ax",%progbits
 815              		.align	2
 816              		.global	display_contrast
 817              		.thumb
 818              		.thumb_func
 819              		.type	display_contrast, %function
 820              	display_contrast:
 821              	.LFB3:
 263:ssd1306.c     ****         
 822              		.loc 1 263 0
 823              		.cfi_startproc
 824              		@ args = 0, pretend = 0, frame = 8
 825              		@ frame_needed = 0, uses_anonymous_args = 0
 826              	.LVL83:
 827 0000 00B5     		push	{lr}
 828              		.cfi_def_cfa_offset 4
 829              		.cfi_offset 14, -4
 830 0002 83B0     		sub	sp, sp, #12
 831              		.cfi_def_cfa_offset 16
 265:ssd1306.c     ****         0x00,  
 832              		.loc 1 265 0
 833 0004 0023     		movs	r3, #0
 834 0006 8DF80430 		strb	r3, [sp, #4]
 835 000a 8123     		movs	r3, #129
 836 000c 8DF80530 		strb	r3, [sp, #5]
 837 0010 8DF80600 		strb	r0, [sp, #6]
 270:ssd1306.c     **** }
 838              		.loc 1 270 0
 839 0014 0321     		movs	r1, #3
 840 0016 01A8     		add	r0, sp, #4
 841              	.LVL84:
 842 0018 FFF7FEFF 		bl	display_write_buf
 843              	.LVL85:
 271:ssd1306.c     **** /***********************************************************************
ARM GAS  C:\Users\Besitzer\AppData\Local\Temp\cczB0neC.s 			page 33


 844              		.loc 1 271 0
 845 001c 03B0     		add	sp, sp, #12
 846              		.cfi_def_cfa_offset 4
 847              		@ sp needed
 848 001e 5DF804FB 		ldr	pc, [sp], #4
 849              		.cfi_endproc
 850              	.LFE3:
 851              		.size	display_contrast, .-display_contrast
 852 0022 00BF     		.section	.text.display_invert,"ax",%progbits
 853              		.align	2
 854              		.global	display_invert
 855              		.thumb
 856              		.thumb_func
 857              		.type	display_invert, %function
 858              	display_invert:
 859              	.LFB4:
 279:ssd1306.c     **** 
 860              		.loc 1 279 0
 861              		.cfi_startproc
 862              		@ args = 0, pretend = 0, frame = 8
 863              		@ frame_needed = 0, uses_anonymous_args = 0
 864              	.LVL86:
 865 0000 00B5     		push	{lr}
 866              		.cfi_def_cfa_offset 4
 867              		.cfi_offset 14, -4
 868 0002 83B0     		sub	sp, sp, #12
 869              		.cfi_def_cfa_offset 16
 281:ssd1306.c     ****         0x00,  
 870              		.loc 1 281 0
 871 0004 0023     		movs	r3, #0
 872 0006 8DF80430 		strb	r3, [sp, #4]
 285:ssd1306.c     ****     display_write_buf( cmdbuf, sizeof(cmdbuf) ); 
 873              		.loc 1 285 0
 874 000a 08B1     		cbz	r0, .L87
 875 000c A723     		movs	r3, #167
 876 000e 00E0     		b	.L86
 877              	.L87:
 878 0010 A623     		movs	r3, #166
 879              	.L86:
 285:ssd1306.c     ****     display_write_buf( cmdbuf, sizeof(cmdbuf) ); 
 880              		.loc 1 285 0 is_stmt 0 discriminator 4
 881 0012 8DF80530 		strb	r3, [sp, #5]
 286:ssd1306.c     **** }
 882              		.loc 1 286 0 is_stmt 1 discriminator 4
 883 0016 0221     		movs	r1, #2
 884 0018 01A8     		add	r0, sp, #4
 885              	.LVL87:
 886 001a FFF7FEFF 		bl	display_write_buf
 887              	.LVL88:
 287:ssd1306.c     **** /***********************************************************************
 888              		.loc 1 287 0 discriminator 4
 889 001e 03B0     		add	sp, sp, #12
 890              		.cfi_def_cfa_offset 4
 891              		@ sp needed
 892 0020 5DF804FB 		ldr	pc, [sp], #4
 893              		.cfi_endproc
 894              	.LFE4:
ARM GAS  C:\Users\Besitzer\AppData\Local\Temp\cczB0neC.s 			page 34


 895              		.size	display_invert, .-display_invert
 896              		.section	.text.SSD1306_SetPageStartAddr,"ax",%progbits
 897              		.align	2
 898              		.global	SSD1306_SetPageStartAddr
 899              		.thumb
 900              		.thumb_func
 901              		.type	SSD1306_SetPageStartAddr, %function
 902              	SSD1306_SetPageStartAddr:
 903              	.LFB6:
 309:ssd1306.c     **** 	
 904              		.loc 1 309 0
 905              		.cfi_startproc
 906              		@ args = 0, pretend = 0, frame = 8
 907              		@ frame_needed = 0, uses_anonymous_args = 0
 908              	.LVL89:
 312:ssd1306.c     **** 		return;
 909              		.loc 1 312 0
 910 0000 0728     		cmp	r0, #7
 911 0002 0FD8     		bhi	.L93
 309:ssd1306.c     **** 	
 912              		.loc 1 309 0
 913 0004 00B5     		push	{lr}
 914              		.cfi_def_cfa_offset 4
 915              		.cfi_offset 14, -4
 916 0006 83B0     		sub	sp, sp, #12
 917              		.cfi_def_cfa_offset 16
 315:ssd1306.c     ****         0x00,
 918              		.loc 1 315 0
 919 0008 0023     		movs	r3, #0
 920 000a 8DF80430 		strb	r3, [sp, #4]
 921 000e 60F04F00 		orn	r0, r0, #79
 922              	.LVL90:
 923 0012 8DF80500 		strb	r0, [sp, #5]
 319:ssd1306.c     **** }
 924              		.loc 1 319 0
 925 0016 0221     		movs	r1, #2
 926 0018 01A8     		add	r0, sp, #4
 927 001a FFF7FEFF 		bl	display_write_buf
 928              	.LVL91:
 320:ssd1306.c     **** /***********************************************************************
 929              		.loc 1 320 0
 930 001e 03B0     		add	sp, sp, #12
 931              		.cfi_def_cfa_offset 4
 932              		@ sp needed
 933 0020 5DF804FB 		ldr	pc, [sp], #4
 934              	.LVL92:
 935              	.L93:
 936              		.cfi_def_cfa_offset 0
 937              		.cfi_restore 14
 938 0024 7047     		bx	lr
 939              		.cfi_endproc
 940              	.LFE6:
 941              		.size	SSD1306_SetPageStartAddr, .-SSD1306_SetPageStartAddr
 942 0026 00BF     		.section	.text.display_update,"ax",%progbits
 943              		.align	2
 944              		.global	display_update
 945              		.thumb
ARM GAS  C:\Users\Besitzer\AppData\Local\Temp\cczB0neC.s 			page 35


 946              		.thumb_func
 947              		.type	display_update, %function
 948              	display_update:
 949              	.LFB5:
 295:ssd1306.c     ****       
 950              		.loc 1 295 0
 951              		.cfi_startproc
 952              		@ args = 0, pretend = 0, frame = 0
 953              		@ frame_needed = 0, uses_anonymous_args = 0
 954 0000 08B5     		push	{r3, lr}
 955              		.cfi_def_cfa_offset 8
 956              		.cfi_offset 3, -8
 957              		.cfi_offset 14, -4
 298:ssd1306.c     **** 	SSD1306_SetColStartAddr(0);
 958              		.loc 1 298 0
 959 0002 0020     		movs	r0, #0
 960 0004 FFF7FEFF 		bl	SSD1306_SetPageStartAddr
 961              	.LVL93:
 299:ssd1306.c     ****     display_write_buf( SSD1306_buffer, sizeof(SSD1306_buffer) );
 962              		.loc 1 299 0
 963 0008 0020     		movs	r0, #0
 964 000a FFF7FEFF 		bl	SSD1306_SetColStartAddr
 965              	.LVL94:
 300:ssd1306.c     **** }
 966              		.loc 1 300 0
 967 000e 40F20141 		movw	r1, #1025
 968 0012 0248     		ldr	r0, .L96
 969 0014 FFF7FEFF 		bl	display_write_buf
 970              	.LVL95:
 971 0018 08BD     		pop	{r3, pc}
 972              	.L97:
 973 001a 00BF     		.align	2
 974              	.L96:
 975 001c 00000000 		.word	.LANCHOR0
 976              		.cfi_endproc
 977              	.LFE5:
 978              		.size	display_update, .-display_update
 979              		.section	.text.display_stopscroll,"ax",%progbits
 980              		.align	2
 981              		.global	display_stopscroll
 982              		.thumb
 983              		.thumb_func
 984              		.type	display_stopscroll, %function
 985              	display_stopscroll:
 986              	.LFB9:
 419:ssd1306.c     **** 
 987              		.loc 1 419 0
 988              		.cfi_startproc
 989              		@ args = 0, pretend = 0, frame = 8
 990              		@ frame_needed = 0, uses_anonymous_args = 0
 991 0000 00B5     		push	{lr}
 992              		.cfi_def_cfa_offset 4
 993              		.cfi_offset 14, -4
 994 0002 83B0     		sub	sp, sp, #12
 995              		.cfi_def_cfa_offset 16
 421:ssd1306.c     ****         0x00,
 996              		.loc 1 421 0
ARM GAS  C:\Users\Besitzer\AppData\Local\Temp\cczB0neC.s 			page 36


 997 0004 0023     		movs	r3, #0
 998 0006 8DF80430 		strb	r3, [sp, #4]
 999 000a 2E23     		movs	r3, #46
 1000 000c 8DF80530 		strb	r3, [sp, #5]
 425:ssd1306.c     **** }
 1001              		.loc 1 425 0
 1002 0010 0221     		movs	r1, #2
 1003 0012 01A8     		add	r0, sp, #4
 1004 0014 FFF7FEFF 		bl	display_write_buf
 1005              	.LVL96:
 426:ssd1306.c     **** /***********************************************************************
 1006              		.loc 1 426 0
 1007 0018 03B0     		add	sp, sp, #12
 1008              		.cfi_def_cfa_offset 4
 1009              		@ sp needed
 1010 001a 5DF804FB 		ldr	pc, [sp], #4
 1011              		.cfi_endproc
 1012              	.LFE9:
 1013              		.size	display_stopscroll, .-display_stopscroll
 1014 001e 00BF     		.section	.text.display_scroll,"ax",%progbits
 1015              		.align	2
 1016              		.global	display_scroll
 1017              		.thumb
 1018              		.thumb_func
 1019              		.type	display_scroll, %function
 1020              	display_scroll:
 1021              	.LFB10:
 437:ssd1306.c     ****    
 1022              		.loc 1 437 0
 1023              		.cfi_startproc
 1024              		@ args = 0, pretend = 0, frame = 16
 1025              		@ frame_needed = 0, uses_anonymous_args = 0
 1026              	.LVL97:
 1027 0000 10B5     		push	{r4, lr}
 1028              		.cfi_def_cfa_offset 8
 1029              		.cfi_offset 4, -8
 1030              		.cfi_offset 14, -4
 1031 0002 84B0     		sub	sp, sp, #16
 1032              		.cfi_def_cfa_offset 24
 439:ssd1306.c     ****         0x00,
 1033              		.loc 1 439 0
 1034 0004 0024     		movs	r4, #0
 1035 0006 8DF80440 		strb	r4, [sp, #4]
 1036 000a 8DF80520 		strb	r2, [sp, #5]
 1037 000e 8DF80640 		strb	r4, [sp, #6]
 1038 0012 8DF80700 		strb	r0, [sp, #7]
 1039 0016 8DF80830 		strb	r3, [sp, #8]
 1040 001a 8DF80910 		strb	r1, [sp, #9]
 1041 001e 8DF80A40 		strb	r4, [sp, #10]
 1042 0022 FF23     		movs	r3, #255
 1043              	.LVL98:
 1044 0024 8DF80B30 		strb	r3, [sp, #11]
 1045 0028 2F23     		movs	r3, #47
 1046 002a 8DF80C30 		strb	r3, [sp, #12]
 450:ssd1306.c     **** }
 1047              		.loc 1 450 0
 1048 002e 0921     		movs	r1, #9
ARM GAS  C:\Users\Besitzer\AppData\Local\Temp\cczB0neC.s 			page 37


 1049              	.LVL99:
 1050 0030 01A8     		add	r0, sp, #4
 1051              	.LVL100:
 1052 0032 FFF7FEFF 		bl	display_write_buf
 1053              	.LVL101:
 451:ssd1306.c     **** //########################################### Graphic #############################################
 1054              		.loc 1 451 0
 1055 0036 04B0     		add	sp, sp, #16
 1056              		.cfi_def_cfa_offset 8
 1057              		@ sp needed
 1058 0038 10BD     		pop	{r4, pc}
 1059              		.cfi_endproc
 1060              	.LFE10:
 1061              		.size	display_scroll, .-display_scroll
 1062 003a 00BF     		.section	.text.gfx_init,"ax",%progbits
 1063              		.align	2
 1064              		.global	gfx_init
 1065              		.thumb
 1066              		.thumb_func
 1067              		.type	gfx_init, %function
 1068              	gfx_init:
 1069              	.LFB11:
 461:ssd1306.c     ****     WIDTH = width;
 1070              		.loc 1 461 0
 1071              		.cfi_startproc
 1072              		@ args = 0, pretend = 0, frame = 0
 1073              		@ frame_needed = 0, uses_anonymous_args = 0
 1074              		@ link register save eliminated.
 1075              	.LVL102:
 462:ssd1306.c     ****     HEIGHT = height;
 1076              		.loc 1 462 0
 1077 0000 0A4B     		ldr	r3, .L103
 1078 0002 1880     		strh	r0, [r3]	@ movhi
 463:ssd1306.c     ****     _width = WIDTH;
 1079              		.loc 1 463 0
 1080 0004 0A4B     		ldr	r3, .L103+4
 1081 0006 1980     		strh	r1, [r3]	@ movhi
 464:ssd1306.c     ****     _height = HEIGHT;
 1082              		.loc 1 464 0
 1083 0008 0A4B     		ldr	r3, .L103+8
 1084 000a 5880     		strh	r0, [r3, #2]	@ movhi
 465:ssd1306.c     ****     
 1085              		.loc 1 465 0
 1086 000c 9980     		strh	r1, [r3, #4]	@ movhi
 467:ssd1306.c     ****     cursor_y = cursor_x = 0;
 1087              		.loc 1 467 0
 1088 000e 0022     		movs	r2, #0
 1089 0010 0949     		ldr	r1, .L103+12
 1090              	.LVL103:
 1091 0012 0A70     		strb	r2, [r1]
 468:ssd1306.c     ****     textsize = 1;
 1092              		.loc 1 468 0
 1093 0014 DA80     		strh	r2, [r3, #6]	@ movhi
 1094 0016 1A81     		strh	r2, [r3, #8]	@ movhi
 469:ssd1306.c     ****     textcolor = textbgcolor = 0xFFFF;
 1095              		.loc 1 469 0
 1096 0018 0122     		movs	r2, #1
ARM GAS  C:\Users\Besitzer\AppData\Local\Temp\cczB0neC.s 			page 38


 1097 001a 9A72     		strb	r2, [r3, #10]
 470:ssd1306.c     ****     wrap = 1;
 1098              		.loc 1 470 0
 1099 001c 4FF6FF71 		movw	r1, #65535
 1100 0020 9981     		strh	r1, [r3, #12]	@ movhi
 1101 0022 D981     		strh	r1, [r3, #14]	@ movhi
 471:ssd1306.c     **** }
 1102              		.loc 1 471 0
 1103 0024 054B     		ldr	r3, .L103+16
 1104 0026 1A70     		strb	r2, [r3]
 1105 0028 7047     		bx	lr
 1106              	.L104:
 1107 002a 00BF     		.align	2
 1108              	.L103:
 1109 002c 00000000 		.word	WIDTH
 1110 0030 00000000 		.word	HEIGHT
 1111 0034 00000000 		.word	.LANCHOR1
 1112 0038 00000000 		.word	rotation
 1113 003c 00000000 		.word	wrap
 1114              		.cfi_endproc
 1115              	.LFE11:
 1116              		.size	gfx_init, .-gfx_init
 1117              		.section	.text.gfx_width,"ax",%progbits
 1118              		.align	2
 1119              		.global	gfx_width
 1120              		.thumb
 1121              		.thumb_func
 1122              		.type	gfx_width, %function
 1123              	gfx_width:
 1124              	.LFB12:
 481:ssd1306.c     ****     return _width;
 1125              		.loc 1 481 0
 1126              		.cfi_startproc
 1127              		@ args = 0, pretend = 0, frame = 0
 1128              		@ frame_needed = 0, uses_anonymous_args = 0
 1129              		@ link register save eliminated.
 483:ssd1306.c     **** /***********************************************************************
 1130              		.loc 1 483 0
 1131 0000 014B     		ldr	r3, .L106
 1132 0002 B3F90200 		ldrsh	r0, [r3, #2]
 1133 0006 7047     		bx	lr
 1134              	.L107:
 1135              		.align	2
 1136              	.L106:
 1137 0008 00000000 		.word	.LANCHOR1
 1138              		.cfi_endproc
 1139              	.LFE12:
 1140              		.size	gfx_width, .-gfx_width
 1141              		.section	.text.gfx_height,"ax",%progbits
 1142              		.align	2
 1143              		.global	gfx_height
 1144              		.thumb
 1145              		.thumb_func
 1146              		.type	gfx_height, %function
 1147              	gfx_height:
 1148              	.LFB13:
 491:ssd1306.c     ****     return _height;
ARM GAS  C:\Users\Besitzer\AppData\Local\Temp\cczB0neC.s 			page 39


 1149              		.loc 1 491 0
 1150              		.cfi_startproc
 1151              		@ args = 0, pretend = 0, frame = 0
 1152              		@ frame_needed = 0, uses_anonymous_args = 0
 1153              		@ link register save eliminated.
 493:ssd1306.c     **** /***********************************************************************
 1154              		.loc 1 493 0
 1155 0000 014B     		ldr	r3, .L109
 1156 0002 B3F90400 		ldrsh	r0, [r3, #4]
 1157 0006 7047     		bx	lr
 1158              	.L110:
 1159              		.align	2
 1160              	.L109:
 1161 0008 00000000 		.word	.LANCHOR1
 1162              		.cfi_endproc
 1163              	.LFE13:
 1164              		.size	gfx_height, .-gfx_height
 1165              		.section	.text.gfx_rotation,"ax",%progbits
 1166              		.align	2
 1167              		.global	gfx_rotation
 1168              		.thumb
 1169              		.thumb_func
 1170              		.type	gfx_rotation, %function
 1171              	gfx_rotation:
 1172              	.LFB14:
 501:ssd1306.c     ****     return rotation;
 1173              		.loc 1 501 0
 1174              		.cfi_startproc
 1175              		@ args = 0, pretend = 0, frame = 0
 1176              		@ frame_needed = 0, uses_anonymous_args = 0
 1177              		@ link register save eliminated.
 503:ssd1306.c     **** /***********************************************************************
 1178              		.loc 1 503 0
 1179 0000 014B     		ldr	r3, .L112
 1180 0002 1878     		ldrb	r0, [r3]	@ zero_extendqisi2
 1181 0004 7047     		bx	lr
 1182              	.L113:
 1183 0006 00BF     		.align	2
 1184              	.L112:
 1185 0008 00000000 		.word	rotation
 1186              		.cfi_endproc
 1187              	.LFE14:
 1188              		.size	gfx_rotation, .-gfx_rotation
 1189              		.section	.text.gfx_setCursor,"ax",%progbits
 1190              		.align	2
 1191              		.global	gfx_setCursor
 1192              		.thumb
 1193              		.thumb_func
 1194              		.type	gfx_setCursor, %function
 1195              	gfx_setCursor:
 1196              	.LFB15:
 512:ssd1306.c     ****     cursor_x = x;
 1197              		.loc 1 512 0
 1198              		.cfi_startproc
 1199              		@ args = 0, pretend = 0, frame = 0
 1200              		@ frame_needed = 0, uses_anonymous_args = 0
 1201              		@ link register save eliminated.
ARM GAS  C:\Users\Besitzer\AppData\Local\Temp\cczB0neC.s 			page 40


 1202              	.LVL104:
 513:ssd1306.c     ****     cursor_y = y;
 1203              		.loc 1 513 0
 1204 0000 014B     		ldr	r3, .L115
 1205 0002 D880     		strh	r0, [r3, #6]	@ movhi
 514:ssd1306.c     **** }
 1206              		.loc 1 514 0
 1207 0004 1981     		strh	r1, [r3, #8]	@ movhi
 1208 0006 7047     		bx	lr
 1209              	.L116:
 1210              		.align	2
 1211              	.L115:
 1212 0008 00000000 		.word	.LANCHOR1
 1213              		.cfi_endproc
 1214              	.LFE15:
 1215              		.size	gfx_setCursor, .-gfx_setCursor
 1216              		.section	.text.gfx_setTextSize,"ax",%progbits
 1217              		.align	2
 1218              		.global	gfx_setTextSize
 1219              		.thumb
 1220              		.thumb_func
 1221              		.type	gfx_setTextSize, %function
 1222              	gfx_setTextSize:
 1223              	.LFB16:
 523:ssd1306.c     ****     textsize = (size > 0) ? size : 1;
 1224              		.loc 1 523 0
 1225              		.cfi_startproc
 1226              		@ args = 0, pretend = 0, frame = 0
 1227              		@ frame_needed = 0, uses_anonymous_args = 0
 1228              		@ link register save eliminated.
 1229              	.LVL105:
 524:ssd1306.c     **** }
 1230              		.loc 1 524 0
 1231 0000 08B9     		cbnz	r0, .L119
 1232 0002 0120     		movs	r0, #1
 1233              	.LVL106:
 1234 0004 FFE7     		b	.L118
 1235              	.LVL107:
 1236              	.L119:
 1237              	.L118:
 524:ssd1306.c     **** }
 1238              		.loc 1 524 0 is_stmt 0 discriminator 4
 1239 0006 014B     		ldr	r3, .L120
 1240 0008 9872     		strb	r0, [r3, #10]
 1241 000a 7047     		bx	lr
 1242              	.L121:
 1243              		.align	2
 1244              	.L120:
 1245 000c 00000000 		.word	.LANCHOR1
 1246              		.cfi_endproc
 1247              	.LFE16:
 1248              		.size	gfx_setTextSize, .-gfx_setTextSize
 1249              		.section	.text.gfx_setTextColor,"ax",%progbits
 1250              		.align	2
 1251              		.global	gfx_setTextColor
 1252              		.thumb
 1253              		.thumb_func
ARM GAS  C:\Users\Besitzer\AppData\Local\Temp\cczB0neC.s 			page 41


 1254              		.type	gfx_setTextColor, %function
 1255              	gfx_setTextColor:
 1256              	.LFB17:
 534:ssd1306.c     ****     textcolor = textbgcolor = color;
 1257              		.loc 1 534 0 is_stmt 1
 1258              		.cfi_startproc
 1259              		@ args = 0, pretend = 0, frame = 0
 1260              		@ frame_needed = 0, uses_anonymous_args = 0
 1261              		@ link register save eliminated.
 1262              	.LVL108:
 535:ssd1306.c     **** }
 1263              		.loc 1 535 0
 1264 0000 014B     		ldr	r3, .L123
 1265 0002 9881     		strh	r0, [r3, #12]	@ movhi
 1266 0004 D881     		strh	r0, [r3, #14]	@ movhi
 1267 0006 7047     		bx	lr
 1268              	.L124:
 1269              		.align	2
 1270              	.L123:
 1271 0008 00000000 		.word	.LANCHOR1
 1272              		.cfi_endproc
 1273              	.LFE17:
 1274              		.size	gfx_setTextColor, .-gfx_setTextColor
 1275              		.section	.text.gfx_setTextBg,"ax",%progbits
 1276              		.align	2
 1277              		.global	gfx_setTextBg
 1278              		.thumb
 1279              		.thumb_func
 1280              		.type	gfx_setTextBg, %function
 1281              	gfx_setTextBg:
 1282              	.LFB18:
 545:ssd1306.c     ****     textbgcolor = color;
 1283              		.loc 1 545 0
 1284              		.cfi_startproc
 1285              		@ args = 0, pretend = 0, frame = 0
 1286              		@ frame_needed = 0, uses_anonymous_args = 0
 1287              		@ link register save eliminated.
 1288              	.LVL109:
 546:ssd1306.c     **** }
 1289              		.loc 1 546 0
 1290 0000 014B     		ldr	r3, .L126
 1291 0002 9881     		strh	r0, [r3, #12]	@ movhi
 1292 0004 7047     		bx	lr
 1293              	.L127:
 1294 0006 00BF     		.align	2
 1295              	.L126:
 1296 0008 00000000 		.word	.LANCHOR1
 1297              		.cfi_endproc
 1298              	.LFE18:
 1299              		.size	gfx_setTextBg, .-gfx_setTextBg
 1300              		.section	.text.gfx_setTextWrap,"ax",%progbits
 1301              		.align	2
 1302              		.global	gfx_setTextWrap
 1303              		.thumb
 1304              		.thumb_func
 1305              		.type	gfx_setTextWrap, %function
 1306              	gfx_setTextWrap:
ARM GAS  C:\Users\Besitzer\AppData\Local\Temp\cczB0neC.s 			page 42


 1307              	.LFB19:
 556:ssd1306.c     ****     wrap = w;
 1308              		.loc 1 556 0
 1309              		.cfi_startproc
 1310              		@ args = 0, pretend = 0, frame = 0
 1311              		@ frame_needed = 0, uses_anonymous_args = 0
 1312              		@ link register save eliminated.
 1313              	.LVL110:
 557:ssd1306.c     **** }
 1314              		.loc 1 557 0
 1315 0000 014B     		ldr	r3, .L129
 1316 0002 1870     		strb	r0, [r3]
 1317 0004 7047     		bx	lr
 1318              	.L130:
 1319 0006 00BF     		.align	2
 1320              	.L129:
 1321 0008 00000000 		.word	wrap
 1322              		.cfi_endproc
 1323              	.LFE19:
 1324              		.size	gfx_setTextWrap, .-gfx_setTextWrap
 1325              		.section	.text.gfx_setRotation,"ax",%progbits
 1326              		.align	2
 1327              		.global	gfx_setRotation
 1328              		.thumb
 1329              		.thumb_func
 1330              		.type	gfx_setRotation, %function
 1331              	gfx_setRotation:
 1332              	.LFB20:
 566:ssd1306.c     ****     
 1333              		.loc 1 566 0
 1334              		.cfi_startproc
 1335              		@ args = 0, pretend = 0, frame = 0
 1336              		@ frame_needed = 0, uses_anonymous_args = 0
 1337              		@ link register save eliminated.
 1338              	.LVL111:
 568:ssd1306.c     ****     switch( rotation ){
 1339              		.loc 1 568 0
 1340 0000 00F00300 		and	r0, r0, #3
 1341              	.LVL112:
 1342 0004 0B4B     		ldr	r3, .L136
 1343 0006 1870     		strb	r0, [r3]
 569:ssd1306.c     ****         case 0:
 1344              		.loc 1 569 0
 1345 0008 0328     		cmp	r0, #3
 1346 000a 12D8     		bhi	.L131
 1347 000c DFE800F0 		tbb	[pc, r0]
 1348              	.L134:
 1349 0010 02       		.byte	(.L133-.L134)/2
 1350 0011 0A       		.byte	(.L135-.L134)/2
 1351 0012 02       		.byte	(.L133-.L134)/2
 1352 0013 0A       		.byte	(.L135-.L134)/2
 1353              		.p2align 1
 1354              	.L133:
 572:ssd1306.c     ****             _height = HEIGHT;
 1355              		.loc 1 572 0
 1356 0014 084B     		ldr	r3, .L136+4
 1357 0016 094A     		ldr	r2, .L136+8
ARM GAS  C:\Users\Besitzer\AppData\Local\Temp\cczB0neC.s 			page 43


 1358 0018 1288     		ldrh	r2, [r2]
 1359 001a 5A80     		strh	r2, [r3, #2]	@ movhi
 573:ssd1306.c     ****             break;
 1360              		.loc 1 573 0
 1361 001c 084A     		ldr	r2, .L136+12
 1362 001e 1288     		ldrh	r2, [r2]
 1363 0020 9A80     		strh	r2, [r3, #4]	@ movhi
 574:ssd1306.c     ****         case 1:
 1364              		.loc 1 574 0
 1365 0022 7047     		bx	lr
 1366              	.L135:
 577:ssd1306.c     ****             _height = WIDTH;
 1367              		.loc 1 577 0
 1368 0024 044B     		ldr	r3, .L136+4
 1369 0026 064A     		ldr	r2, .L136+12
 1370 0028 1288     		ldrh	r2, [r2]
 1371 002a 5A80     		strh	r2, [r3, #2]	@ movhi
 578:ssd1306.c     ****         break;
 1372              		.loc 1 578 0
 1373 002c 034A     		ldr	r2, .L136+8
 1374 002e 1288     		ldrh	r2, [r2]
 1375 0030 9A80     		strh	r2, [r3, #4]	@ movhi
 1376              	.L131:
 1377 0032 7047     		bx	lr
 1378              	.L137:
 1379              		.align	2
 1380              	.L136:
 1381 0034 00000000 		.word	rotation
 1382 0038 00000000 		.word	.LANCHOR1
 1383 003c 00000000 		.word	WIDTH
 1384 0040 00000000 		.word	HEIGHT
 1385              		.cfi_endproc
 1386              	.LFE20:
 1387              		.size	gfx_setRotation, .-gfx_setRotation
 1388              		.section	.text.gfx_drawPixel,"ax",%progbits
 1389              		.align	2
 1390              		.global	gfx_drawPixel
 1391              		.thumb
 1392              		.thumb_func
 1393              		.type	gfx_drawPixel, %function
 1394              	gfx_drawPixel:
 1395              	.LFB22:
 618:ssd1306.c     ****     
 1396              		.loc 1 618 0
 1397              		.cfi_startproc
 1398              		@ args = 0, pretend = 0, frame = 8
 1399              		@ frame_needed = 0, uses_anonymous_args = 0
 1400              	.LVL113:
 1401 0000 10B5     		push	{r4, lr}
 1402              		.cfi_def_cfa_offset 8
 1403              		.cfi_offset 4, -8
 1404              		.cfi_offset 14, -4
 1405 0002 82B0     		sub	sp, sp, #8
 1406              		.cfi_def_cfa_offset 16
 1407 0004 ADF80600 		strh	r0, [sp, #6]	@ movhi
 1408 0008 ADF80410 		strh	r1, [sp, #4]	@ movhi
 620:ssd1306.c     ****         return;
ARM GAS  C:\Users\Besitzer\AppData\Local\Temp\cczB0neC.s 			page 44


 1409              		.loc 1 620 0
 1410 000c 0028     		cmp	r0, #0
 1411              	.LVL114:
 1412 000e 19DB     		blt	.L138
 620:ssd1306.c     ****         return;
 1413              		.loc 1 620 0 is_stmt 0 discriminator 1
 1414 0010 0D4B     		ldr	r3, .L141
 1415 0012 B3F90230 		ldrsh	r3, [r3, #2]
 1416 0016 9842     		cmp	r0, r3
 1417 0018 14DA     		bge	.L138
 620:ssd1306.c     ****         return;
 1418              		.loc 1 620 0 discriminator 2
 1419 001a 0BB2     		sxth	r3, r1
 1420 001c 002B     		cmp	r3, #0
 1421 001e 11DB     		blt	.L138
 620:ssd1306.c     ****         return;
 1422              		.loc 1 620 0 discriminator 3
 1423 0020 0949     		ldr	r1, .L141
 1424              	.LVL115:
 1425 0022 B1F90410 		ldrsh	r1, [r1, #4]
 1426 0026 8B42     		cmp	r3, r1
 1427 0028 0CDA     		bge	.L138
 1428 002a 1446     		mov	r4, r2
 623:ssd1306.c     **** 
 1429              		.loc 1 623 0 is_stmt 1
 1430 002c 01A9     		add	r1, sp, #4
 1431              	.LVL116:
 1432 002e 0DF10600 		add	r0, sp, #6
 1433              	.LVL117:
 1434 0032 FFF7FEFF 		bl	gfx_rotation_adjust
 1435              	.LVL118:
 625:ssd1306.c     **** }
 1436              		.loc 1 625 0
 1437 0036 2246     		mov	r2, r4
 1438 0038 BDF90410 		ldrsh	r1, [sp, #4]
 1439 003c BDF90600 		ldrsh	r0, [sp, #6]
 1440 0040 FFF7FEFF 		bl	display_setPixel
 1441              	.LVL119:
 1442              	.L138:
 626:ssd1306.c     **** 
 1443              		.loc 1 626 0
 1444 0044 02B0     		add	sp, sp, #8
 1445              		.cfi_def_cfa_offset 8
 1446              		@ sp needed
 1447 0046 10BD     		pop	{r4, pc}
 1448              	.LVL120:
 1449              	.L142:
 1450              		.align	2
 1451              	.L141:
 1452 0048 00000000 		.word	.LANCHOR1
 1453              		.cfi_endproc
 1454              	.LFE22:
 1455              		.size	gfx_drawPixel, .-gfx_drawPixel
 1456              		.section	.text.gfx_drawLine,"ax",%progbits
 1457              		.align	2
 1458              		.global	gfx_drawLine
 1459              		.thumb
ARM GAS  C:\Users\Besitzer\AppData\Local\Temp\cczB0neC.s 			page 45


 1460              		.thumb_func
 1461              		.type	gfx_drawLine, %function
 1462              	gfx_drawLine:
 1463              	.LFB24:
 683:ssd1306.c     ****  
 1464              		.loc 1 683 0
 1465              		.cfi_startproc
 1466              		@ args = 4, pretend = 0, frame = 8
 1467              		@ frame_needed = 0, uses_anonymous_args = 0
 1468              	.LVL121:
 1469 0000 2DE9F04F 		push	{r4, r5, r6, r7, r8, r9, r10, fp, lr}
 1470              		.cfi_def_cfa_offset 36
 1471              		.cfi_offset 4, -36
 1472              		.cfi_offset 5, -32
 1473              		.cfi_offset 6, -28
 1474              		.cfi_offset 7, -24
 1475              		.cfi_offset 8, -20
 1476              		.cfi_offset 9, -16
 1477              		.cfi_offset 10, -12
 1478              		.cfi_offset 11, -8
 1479              		.cfi_offset 14, -4
 1480 0004 85B0     		sub	sp, sp, #20
 1481              		.cfi_def_cfa_offset 56
 1482 0006 0546     		mov	r5, r0
 1483 0008 0E46     		mov	r6, r1
 1484 000a 1746     		mov	r7, r2
 1485 000c BDF83820 		ldrh	r2, [sp, #56]
 1486              	.LVL122:
 1487 0010 0292     		str	r2, [sp, #8]
 685:ssd1306.c     ****         // vertical and horizontal lines can be drawn faster
 1488              		.loc 1 685 0
 1489 0012 B842     		cmp	r0, r7
 1490 0014 01D0     		beq	.L144
 685:ssd1306.c     ****         // vertical and horizontal lines can be drawn faster
 1491              		.loc 1 685 0 is_stmt 0 discriminator 1
 1492 0016 9942     		cmp	r1, r3
 1493 0018 07D1     		bne	.L145
 1494              	.L144:
 687:ssd1306.c     ****         return;
 1495              		.loc 1 687 0 is_stmt 1
 1496 001a 029A     		ldr	r2, [sp, #8]
 1497 001c 0092     		str	r2, [sp]
 1498 001e 3A46     		mov	r2, r7
 1499 0020 3146     		mov	r1, r6
 1500              	.LVL123:
 1501 0022 2846     		mov	r0, r5
 1502              	.LVL124:
 1503 0024 FFF7FEFF 		bl	gfx_hvLine
 1504              	.LVL125:
 688:ssd1306.c     ****     }
 1505              		.loc 1 688 0
 1506 0028 52E0     		b	.L143
 1507              	.LVL126:
 1508              	.L145:
 693:ssd1306.c     ****     if( steep ){
 1509              		.loc 1 693 0
 1510 002a C1EB0308 		rsb	r8, r1, r3
ARM GAS  C:\Users\Besitzer\AppData\Local\Temp\cczB0neC.s 			page 46


 1511 002e B8F1000F 		cmp	r8, #0
 1512 0032 B8BF     		it	lt
 1513 0034 C8F10008 		rsblt	r8, r8, #0
 1514 0038 C0EB0709 		rsb	r9, r0, r7
 1515 003c B9F1000F 		cmp	r9, #0
 1516 0040 B8BF     		it	lt
 1517 0042 C9F10009 		rsblt	r9, r9, #0
 1518              	.LVL127:
 694:ssd1306.c     ****         t = x0; x0 = y0; y0 = t;
 1519              		.loc 1 694 0
 1520 0046 C845     		cmp	r8, r9
 1521 0048 04DD     		ble	.L147
 1522 004a 3A46     		mov	r2, r7
 696:ssd1306.c     ****     }
 1523              		.loc 1 696 0
 1524 004c 1F46     		mov	r7, r3
 1525 004e 1346     		mov	r3, r2
 1526              	.LVL128:
 695:ssd1306.c     ****         t = x1; x1 = y1; y1 = t;
 1527              		.loc 1 695 0
 1528 0050 0D46     		mov	r5, r1
 1529 0052 0646     		mov	r6, r0
 1530              	.L147:
 1531              	.LVL129:
 698:ssd1306.c     ****         t = x0; x0 = x1; x1 = t;
 1532              		.loc 1 698 0
 1533 0054 BD42     		cmp	r5, r7
 1534 0056 05DD     		ble	.L148
 1535 0058 3246     		mov	r2, r6
 700:ssd1306.c     ****     }
 1536              		.loc 1 700 0
 1537 005a 1E46     		mov	r6, r3
 1538              	.LVL130:
 1539 005c 1346     		mov	r3, r2
 1540              	.LVL131:
 1541 005e 2A46     		mov	r2, r5
 699:ssd1306.c     ****         t = y0; y0 = y1; y1 = t;
 1542              		.loc 1 699 0
 1543 0060 3D46     		mov	r5, r7
 1544              	.LVL132:
 1545 0062 1746     		mov	r7, r2
 1546              	.LVL133:
 1547              	.L148:
 703:ssd1306.c     ****     dy = abs(y1 - y0);
 1548              		.loc 1 703 0
 1549 0064 C5EB070B 		rsb	fp, r5, r7
 1550 0068 1FFA8BFB 		uxth	fp, fp
 1551 006c 0FFA8BF4 		sxth	r4, fp
 1552              	.LVL134:
 704:ssd1306.c     ****     int16_t err = dx / 2;
 1553              		.loc 1 704 0
 1554 0070 C6EB030A 		rsb	r10, r6, r3
 1555 0074 BAF1000F 		cmp	r10, #0
 1556 0078 B8BF     		it	lt
 1557 007a CAF1000A 		rsblt	r10, r10, #0
 1558              	.LVL135:
 705:ssd1306.c     ****     int16_t ystep;
ARM GAS  C:\Users\Besitzer\AppData\Local\Temp\cczB0neC.s 			page 47


 1559              		.loc 1 705 0
 1560 007e 04EBD474 		add	r4, r4, r4, lsr #31
 1561              	.LVL136:
 1562 0082 6410     		asrs	r4, r4, #1
 1563              	.LVL137:
 707:ssd1306.c     ****         ystep = 1;
 1564              		.loc 1 707 0
 1565 0084 9E42     		cmp	r6, r3
 1566 0086 02DA     		bge	.L157
 708:ssd1306.c     ****     }else{
 1567              		.loc 1 708 0
 1568 0088 0123     		movs	r3, #1
 1569              	.LVL138:
 1570 008a 0393     		str	r3, [sp, #12]
 1571 008c 1EE0     		b	.L150
 1572              	.LVL139:
 1573              	.L157:
 710:ssd1306.c     ****     }
 1574              		.loc 1 710 0
 1575 008e 4FF0FF33 		mov	r3, #-1
 1576              	.LVL140:
 1577 0092 0393     		str	r3, [sp, #12]
 1578 0094 1AE0     		b	.L150
 1579              	.LVL141:
 1580              	.L154:
 713:ssd1306.c     ****             gfx_drawPixel( y0, x0, color );
 1581              		.loc 1 713 0
 1582 0096 C845     		cmp	r8, r9
 1583 0098 05DD     		ble	.L151
 714:ssd1306.c     ****         }else{
 1584              		.loc 1 714 0
 1585 009a 029A     		ldr	r2, [sp, #8]
 1586 009c 2946     		mov	r1, r5
 1587 009e 3046     		mov	r0, r6
 1588 00a0 FFF7FEFF 		bl	gfx_drawPixel
 1589              	.LVL142:
 1590 00a4 04E0     		b	.L152
 1591              	.L151:
 716:ssd1306.c     ****         }
 1592              		.loc 1 716 0
 1593 00a6 029A     		ldr	r2, [sp, #8]
 1594 00a8 3146     		mov	r1, r6
 1595 00aa 2846     		mov	r0, r5
 1596 00ac FFF7FEFF 		bl	gfx_drawPixel
 1597              	.LVL143:
 1598              	.L152:
 718:ssd1306.c     ****         if( err < 0 ){
 1599              		.loc 1 718 0
 1600 00b0 CAEB0404 		rsb	r4, r10, r4
 1601              	.LVL144:
 1602 00b4 A3B2     		uxth	r3, r4
 1603 00b6 1CB2     		sxth	r4, r3
 1604              	.LVL145:
 719:ssd1306.c     ****             y0 += ystep;
 1605              		.loc 1 719 0
 1606 00b8 002C     		cmp	r4, #0
 1607 00ba 05DA     		bge	.L153
ARM GAS  C:\Users\Besitzer\AppData\Local\Temp\cczB0neC.s 			page 48


 720:ssd1306.c     ****             err += dx;
 1608              		.loc 1 720 0
 1609 00bc 039A     		ldr	r2, [sp, #12]
 1610 00be 1644     		add	r6, r6, r2
 1611              	.LVL146:
 1612 00c0 36B2     		sxth	r6, r6
 1613              	.LVL147:
 721:ssd1306.c     ****         }
 1614              		.loc 1 721 0
 1615 00c2 0BEB0304 		add	r4, fp, r3
 1616              	.LVL148:
 1617 00c6 24B2     		sxth	r4, r4
 1618              	.LVL149:
 1619              	.L153:
 712:ssd1306.c     ****         if( steep ){
 1620              		.loc 1 712 0
 1621 00c8 0135     		adds	r5, r5, #1
 1622              	.LVL150:
 1623 00ca 2DB2     		sxth	r5, r5
 1624              	.LVL151:
 1625              	.L150:
 712:ssd1306.c     ****         if( steep ){
 1626              		.loc 1 712 0 is_stmt 0 discriminator 1
 1627 00cc BD42     		cmp	r5, r7
 1628 00ce E2DD     		ble	.L154
 1629              	.LVL152:
 1630              	.L143:
 724:ssd1306.c     **** /***********************************************************************
 1631              		.loc 1 724 0 is_stmt 1
 1632 00d0 05B0     		add	sp, sp, #20
 1633              		.cfi_def_cfa_offset 36
 1634              		@ sp needed
 1635 00d2 BDE8F08F 		pop	{r4, r5, r6, r7, r8, r9, r10, fp, pc}
 1636              		.cfi_endproc
 1637              	.LFE24:
 1638              		.size	gfx_drawLine, .-gfx_drawLine
 1639 00d6 00BF     		.section	.text.gfx_drawRect,"ax",%progbits
 1640              		.align	2
 1641              		.global	gfx_drawRect
 1642              		.thumb
 1643              		.thumb_func
 1644              		.type	gfx_drawRect, %function
 1645              	gfx_drawRect:
 1646              	.LFB25:
 735:ssd1306.c     ****     
 1647              		.loc 1 735 0
 1648              		.cfi_startproc
 1649              		@ args = 4, pretend = 0, frame = 0
 1650              		@ frame_needed = 0, uses_anonymous_args = 0
 1651              	.LVL153:
 1652 0000 2DE9F041 		push	{r4, r5, r6, r7, r8, lr}
 1653              		.cfi_def_cfa_offset 24
 1654              		.cfi_offset 4, -24
 1655              		.cfi_offset 5, -20
 1656              		.cfi_offset 6, -16
 1657              		.cfi_offset 7, -12
 1658              		.cfi_offset 8, -8
ARM GAS  C:\Users\Besitzer\AppData\Local\Temp\cczB0neC.s 			page 49


 1659              		.cfi_offset 14, -4
 1660 0004 82B0     		sub	sp, sp, #8
 1661              		.cfi_def_cfa_offset 32
 1662 0006 8046     		mov	r8, r0
 1663 0008 0E46     		mov	r6, r1
 1664 000a 1C46     		mov	r4, r3
 1665 000c BDF82070 		ldrh	r7, [sp, #32]
 737:ssd1306.c     ****     gfx_drawLine( x, y+h-1, x+w-1, y+h-1, color );
 1666              		.loc 1 737 0
 1667 0010 0244     		add	r2, r2, r0
 1668              	.LVL154:
 1669 0012 551E     		subs	r5, r2, #1
 1670 0014 2DB2     		sxth	r5, r5
 1671 0016 0097     		str	r7, [sp]
 1672 0018 0B46     		mov	r3, r1
 1673              	.LVL155:
 1674 001a 2A46     		mov	r2, r5
 1675 001c FFF7FEFF 		bl	gfx_drawLine
 1676              	.LVL156:
 738:ssd1306.c     ****     gfx_drawLine( x, y, x, y+h-1, color );
 1677              		.loc 1 738 0
 1678 0020 3444     		add	r4, r4, r6
 1679 0022 013C     		subs	r4, r4, #1
 1680 0024 24B2     		sxth	r4, r4
 1681 0026 0097     		str	r7, [sp]
 1682 0028 2346     		mov	r3, r4
 1683 002a 2A46     		mov	r2, r5
 1684 002c 2146     		mov	r1, r4
 1685 002e 4046     		mov	r0, r8
 1686 0030 FFF7FEFF 		bl	gfx_drawLine
 1687              	.LVL157:
 739:ssd1306.c     ****     gfx_drawLine( x+w-1, y, x+w-1, y+h-1, color );
 1688              		.loc 1 739 0
 1689 0034 0097     		str	r7, [sp]
 1690 0036 2346     		mov	r3, r4
 1691 0038 4246     		mov	r2, r8
 1692 003a 3146     		mov	r1, r6
 1693 003c 4046     		mov	r0, r8
 1694 003e FFF7FEFF 		bl	gfx_drawLine
 1695              	.LVL158:
 740:ssd1306.c     **** }
 1696              		.loc 1 740 0
 1697 0042 0097     		str	r7, [sp]
 1698 0044 2346     		mov	r3, r4
 1699 0046 2A46     		mov	r2, r5
 1700 0048 3146     		mov	r1, r6
 1701 004a 2846     		mov	r0, r5
 1702 004c FFF7FEFF 		bl	gfx_drawLine
 1703              	.LVL159:
 741:ssd1306.c     **** /***********************************************************************
 1704              		.loc 1 741 0
 1705 0050 02B0     		add	sp, sp, #8
 1706              		.cfi_def_cfa_offset 24
 1707              		@ sp needed
 1708 0052 BDE8F081 		pop	{r4, r5, r6, r7, r8, pc}
 1709              		.cfi_endproc
 1710              	.LFE25:
ARM GAS  C:\Users\Besitzer\AppData\Local\Temp\cczB0neC.s 			page 50


 1711              		.size	gfx_drawRect, .-gfx_drawRect
 1712 0056 00BF     		.section	.text.gfx_fillRect,"ax",%progbits
 1713              		.align	2
 1714              		.global	gfx_fillRect
 1715              		.thumb
 1716              		.thumb_func
 1717              		.type	gfx_fillRect, %function
 1718              	gfx_fillRect:
 1719              	.LFB26:
 753:ssd1306.c     ****     int16_t i = 0;
 1720              		.loc 1 753 0
 1721              		.cfi_startproc
 1722              		@ args = 4, pretend = 0, frame = 0
 1723              		@ frame_needed = 0, uses_anonymous_args = 0
 1724              	.LVL160:
 1725 0000 2DE9F043 		push	{r4, r5, r6, r7, r8, r9, lr}
 1726              		.cfi_def_cfa_offset 28
 1727              		.cfi_offset 4, -28
 1728              		.cfi_offset 5, -24
 1729              		.cfi_offset 6, -20
 1730              		.cfi_offset 7, -16
 1731              		.cfi_offset 8, -12
 1732              		.cfi_offset 9, -8
 1733              		.cfi_offset 14, -4
 1734 0004 83B0     		sub	sp, sp, #12
 1735              		.cfi_def_cfa_offset 40
 1736 0006 0546     		mov	r5, r0
 1737 0008 0E46     		mov	r6, r1
 1738 000a 1746     		mov	r7, r2
 1739 000c 9846     		mov	r8, r3
 1740 000e BDF82890 		ldrh	r9, [sp, #40]
 1741              	.LVL161:
 755:ssd1306.c     ****         for( i = x ; i < x+w ; i++ ){
 1742              		.loc 1 755 0
 1743 0012 9342     		cmp	r3, r2
 1744 0014 0FDC     		bgt	.L167
 1745 0016 0C46     		mov	r4, r1
 1746 0018 1EE0     		b	.L163
 1747              	.LVL162:
 1748              	.L164:
 757:ssd1306.c     ****         }
 1749              		.loc 1 757 0 discriminator 3
 1750 001a 06EB0803 		add	r3, r6, r8
 1751 001e 013B     		subs	r3, r3, #1
 1752 0020 CDF80090 		str	r9, [sp]
 1753 0024 1BB2     		sxth	r3, r3
 1754 0026 2246     		mov	r2, r4
 1755 0028 3146     		mov	r1, r6
 1756 002a 2046     		mov	r0, r4
 1757 002c FFF7FEFF 		bl	gfx_drawLine
 1758              	.LVL163:
 756:ssd1306.c     ****             gfx_drawLine( i, y, i, y+h-1, color );
 1759              		.loc 1 756 0 discriminator 3
 1760 0030 0134     		adds	r4, r4, #1
 1761              	.LVL164:
 1762 0032 24B2     		sxth	r4, r4
 1763              	.LVL165:
ARM GAS  C:\Users\Besitzer\AppData\Local\Temp\cczB0neC.s 			page 51


 1764 0034 00E0     		b	.L162
 1765              	.LVL166:
 1766              	.L167:
 1767 0036 0446     		mov	r4, r0
 1768              	.LVL167:
 1769              	.L162:
 756:ssd1306.c     ****             gfx_drawLine( i, y, i, y+h-1, color );
 1770              		.loc 1 756 0 is_stmt 0 discriminator 1
 1771 0038 EB19     		adds	r3, r5, r7
 1772 003a 9C42     		cmp	r4, r3
 1773 003c EDDB     		blt	.L164
 1774 003e 0FE0     		b	.L161
 1775              	.L166:
 761:ssd1306.c     ****         }
 1776              		.loc 1 761 0 is_stmt 1 discriminator 3
 1777 0040 EA19     		adds	r2, r5, r7
 1778 0042 013A     		subs	r2, r2, #1
 1779 0044 CDF80090 		str	r9, [sp]
 1780 0048 2346     		mov	r3, r4
 1781 004a 12B2     		sxth	r2, r2
 1782 004c 2146     		mov	r1, r4
 1783 004e 2846     		mov	r0, r5
 1784 0050 FFF7FEFF 		bl	gfx_drawLine
 1785              	.LVL168:
 760:ssd1306.c     ****             gfx_drawLine( x, i, x+w-1, i, color );
 1786              		.loc 1 760 0 discriminator 3
 1787 0054 0134     		adds	r4, r4, #1
 1788              	.LVL169:
 1789 0056 24B2     		sxth	r4, r4
 1790              	.LVL170:
 1791              	.L163:
 760:ssd1306.c     ****             gfx_drawLine( x, i, x+w-1, i, color );
 1792              		.loc 1 760 0 is_stmt 0 discriminator 1
 1793 0058 06EB0803 		add	r3, r6, r8
 1794 005c 9C42     		cmp	r4, r3
 1795 005e EFDB     		blt	.L166
 1796              	.L161:
 764:ssd1306.c     **** 
 1797              		.loc 1 764 0 is_stmt 1
 1798 0060 03B0     		add	sp, sp, #12
 1799              		.cfi_def_cfa_offset 28
 1800              		@ sp needed
 1801 0062 BDE8F083 		pop	{r4, r5, r6, r7, r8, r9, pc}
 1802              		.cfi_endproc
 1803              	.LFE26:
 1804              		.size	gfx_fillRect, .-gfx_fillRect
 1805 0066 00BF     		.section	.text.gfx_drawCircle,"ax",%progbits
 1806              		.align	2
 1807              		.global	gfx_drawCircle
 1808              		.thumb
 1809              		.thumb_func
 1810              		.type	gfx_drawCircle, %function
 1811              	gfx_drawCircle:
 1812              	.LFB27:
 776:ssd1306.c     **** 
 1813              		.loc 1 776 0
 1814              		.cfi_startproc
ARM GAS  C:\Users\Besitzer\AppData\Local\Temp\cczB0neC.s 			page 52


 1815              		@ args = 0, pretend = 0, frame = 24
 1816              		@ frame_needed = 0, uses_anonymous_args = 0
 1817              	.LVL171:
 1818 0000 2DE9F04F 		push	{r4, r5, r6, r7, r8, r9, r10, fp, lr}
 1819              		.cfi_def_cfa_offset 36
 1820              		.cfi_offset 4, -36
 1821              		.cfi_offset 5, -32
 1822              		.cfi_offset 6, -28
 1823              		.cfi_offset 7, -24
 1824              		.cfi_offset 8, -20
 1825              		.cfi_offset 9, -16
 1826              		.cfi_offset 10, -12
 1827              		.cfi_offset 11, -8
 1828              		.cfi_offset 14, -4
 1829 0004 87B0     		sub	sp, sp, #28
 1830              		.cfi_def_cfa_offset 64
 1831 0006 8246     		mov	r10, r0
 1832 0008 0E46     		mov	r6, r1
 1833 000a 0292     		str	r2, [sp, #8]
 1834 000c 1F46     		mov	r7, r3
 1835 000e 0193     		str	r3, [sp, #4]
 778:ssd1306.c     ****     int16_t ddF_x = 1;
 1836              		.loc 1 778 0
 1837 0010 95B2     		uxth	r5, r2
 1838 0012 C5F10104 		rsb	r4, r5, #1
 1839 0016 24B2     		sxth	r4, r4
 1840              	.LVL172:
 780:ssd1306.c     ****     int16_t x = 0;
 1841              		.loc 1 780 0
 1842 0018 C5EBC532 		rsb	r2, r5, r5, lsl #15
 1843              	.LVL173:
 1844 001c 5300     		lsls	r3, r2, #1
 1845              	.LVL174:
 1846 001e 1AB2     		sxth	r2, r3
 1847 0020 0592     		str	r2, [sp, #20]
 1848              	.LVL175:
 783:ssd1306.c     ****     gfx_drawPixel( x0 , y0-r, color );
 1849              		.loc 1 783 0
 1850 0022 1FFA81FB 		uxth	fp, r1
 1851 0026 05EB0B01 		add	r1, r5, fp
 1852              	.LVL176:
 1853 002a 3A46     		mov	r2, r7
 1854 002c 09B2     		sxth	r1, r1
 1855 002e FFF7FEFF 		bl	gfx_drawPixel
 1856              	.LVL177:
 784:ssd1306.c     ****     gfx_drawPixel( x0+r, y0 , color );
 1857              		.loc 1 784 0
 1858 0032 C5EB0B01 		rsb	r1, r5, fp
 1859 0036 3A46     		mov	r2, r7
 1860 0038 09B2     		sxth	r1, r1
 1861 003a 5046     		mov	r0, r10
 1862 003c FFF7FEFF 		bl	gfx_drawPixel
 1863              	.LVL178:
 785:ssd1306.c     ****     gfx_drawPixel( x0-r, y0 , color );
 1864              		.loc 1 785 0
 1865 0040 1FFA8AFA 		uxth	r10, r10
 1866 0044 05EB0A00 		add	r0, r5, r10
ARM GAS  C:\Users\Besitzer\AppData\Local\Temp\cczB0neC.s 			page 53


 1867 0048 3A46     		mov	r2, r7
 1868 004a 3146     		mov	r1, r6
 1869 004c 00B2     		sxth	r0, r0
 1870 004e FFF7FEFF 		bl	gfx_drawPixel
 1871              	.LVL179:
 786:ssd1306.c     ****     while( x < y ){
 1872              		.loc 1 786 0
 1873 0052 C5EB0A00 		rsb	r0, r5, r10
 1874 0056 3A46     		mov	r2, r7
 1875 0058 3146     		mov	r1, r6
 1876 005a 00B2     		sxth	r0, r0
 1877 005c FFF7FEFF 		bl	gfx_drawPixel
 1878              	.LVL180:
 781:ssd1306.c     ****     int16_t y = r;
 1879              		.loc 1 781 0
 1880 0060 4FF00009 		mov	r9, #0
 779:ssd1306.c     ****     int16_t ddF_y = -2 * r;
 1881              		.loc 1 779 0
 1882 0064 0123     		movs	r3, #1
 1883 0066 0393     		str	r3, [sp, #12]
 787:ssd1306.c     ****         if( f >= 0 ){
 1884              		.loc 1 787 0
 1885 0068 60E0     		b	.L170
 1886              	.LVL181:
 1887              	.L172:
 788:ssd1306.c     ****             y--;
 1888              		.loc 1 788 0
 1889 006a 002C     		cmp	r4, #0
 1890 006c 0ADB     		blt	.L171
 789:ssd1306.c     ****             ddF_y += 2;
 1891              		.loc 1 789 0
 1892 006e 029B     		ldr	r3, [sp, #8]
 1893 0070 013B     		subs	r3, r3, #1
 1894 0072 1BB2     		sxth	r3, r3
 1895 0074 0293     		str	r3, [sp, #8]
 1896              	.LVL182:
 790:ssd1306.c     ****             f += ddF_y;
 1897              		.loc 1 790 0
 1898 0076 059B     		ldr	r3, [sp, #20]
 1899 0078 0233     		adds	r3, r3, #2
 1900 007a 9BB2     		uxth	r3, r3
 1901 007c 1AB2     		sxth	r2, r3
 1902 007e 0592     		str	r2, [sp, #20]
 1903              	.LVL183:
 791:ssd1306.c     ****         }
 1904              		.loc 1 791 0
 1905 0080 1C44     		add	r4, r4, r3
 1906              	.LVL184:
 1907 0082 24B2     		sxth	r4, r4
 1908              	.LVL185:
 1909              	.L171:
 793:ssd1306.c     ****         ddF_x += 2;
 1910              		.loc 1 793 0
 1911 0084 09F10105 		add	r5, r9, #1
 1912 0088 ADB2     		uxth	r5, r5
 1913 008a 0FFA85F9 		sxth	r9, r5
 1914              	.LVL186:
ARM GAS  C:\Users\Besitzer\AppData\Local\Temp\cczB0neC.s 			page 54


 794:ssd1306.c     ****         f += ddF_x;
 1915              		.loc 1 794 0
 1916 008e 039B     		ldr	r3, [sp, #12]
 1917 0090 0233     		adds	r3, r3, #2
 1918 0092 9BB2     		uxth	r3, r3
 1919 0094 1AB2     		sxth	r2, r3
 1920 0096 0392     		str	r2, [sp, #12]
 1921              	.LVL187:
 795:ssd1306.c     ****         gfx_drawPixel( x0 + x, y0 + y, color );
 1922              		.loc 1 795 0
 1923 0098 1C44     		add	r4, r4, r3
 1924              	.LVL188:
 1925 009a 24B2     		sxth	r4, r4
 1926              	.LVL189:
 796:ssd1306.c     ****         gfx_drawPixel( x0 - x, y0 + y, color );
 1927              		.loc 1 796 0
 1928 009c 0AEB0503 		add	r3, r10, r5
 1929 00a0 1BB2     		sxth	r3, r3
 1930 00a2 BDF80860 		ldrh	r6, [sp, #8]
 1931 00a6 0BEB0608 		add	r8, fp, r6
 1932 00aa 0FFA88F8 		sxth	r8, r8
 1933 00ae 019A     		ldr	r2, [sp, #4]
 1934 00b0 4146     		mov	r1, r8
 1935 00b2 0493     		str	r3, [sp, #16]
 1936 00b4 1846     		mov	r0, r3
 1937 00b6 FFF7FEFF 		bl	gfx_drawPixel
 1938              	.LVL190:
 797:ssd1306.c     ****         gfx_drawPixel( x0 + x, y0 - y, color );
 1939              		.loc 1 797 0
 1940 00ba C5EB0A07 		rsb	r7, r5, r10
 1941 00be 3FB2     		sxth	r7, r7
 1942 00c0 019A     		ldr	r2, [sp, #4]
 1943 00c2 4146     		mov	r1, r8
 1944 00c4 3846     		mov	r0, r7
 1945 00c6 FFF7FEFF 		bl	gfx_drawPixel
 1946              	.LVL191:
 798:ssd1306.c     ****         gfx_drawPixel( x0 - x, y0 - y, color );
 1947              		.loc 1 798 0
 1948 00ca C6EB0B08 		rsb	r8, r6, fp
 1949 00ce 0FFA88F8 		sxth	r8, r8
 1950 00d2 019A     		ldr	r2, [sp, #4]
 1951 00d4 4146     		mov	r1, r8
 1952 00d6 0498     		ldr	r0, [sp, #16]
 1953 00d8 FFF7FEFF 		bl	gfx_drawPixel
 1954              	.LVL192:
 799:ssd1306.c     ****         gfx_drawPixel( x0 + y, y0 + x, color );
 1955              		.loc 1 799 0
 1956 00dc 019A     		ldr	r2, [sp, #4]
 1957 00de 4146     		mov	r1, r8
 1958 00e0 3846     		mov	r0, r7
 1959 00e2 FFF7FEFF 		bl	gfx_drawPixel
 1960              	.LVL193:
 800:ssd1306.c     ****         gfx_drawPixel( x0 - y, y0 + x, color );
 1961              		.loc 1 800 0
 1962 00e6 0AEB0607 		add	r7, r10, r6
 1963 00ea 3FB2     		sxth	r7, r7
 1964 00ec 0BEB0508 		add	r8, fp, r5
ARM GAS  C:\Users\Besitzer\AppData\Local\Temp\cczB0neC.s 			page 55


 1965 00f0 0FFA88F8 		sxth	r8, r8
 1966 00f4 019A     		ldr	r2, [sp, #4]
 1967 00f6 4146     		mov	r1, r8
 1968 00f8 3846     		mov	r0, r7
 1969 00fa FFF7FEFF 		bl	gfx_drawPixel
 1970              	.LVL194:
 801:ssd1306.c     ****         gfx_drawPixel( x0 + y, y0 - x, color );
 1971              		.loc 1 801 0
 1972 00fe C6EB0A06 		rsb	r6, r6, r10
 1973 0102 36B2     		sxth	r6, r6
 1974 0104 019A     		ldr	r2, [sp, #4]
 1975 0106 4146     		mov	r1, r8
 1976 0108 3046     		mov	r0, r6
 1977 010a FFF7FEFF 		bl	gfx_drawPixel
 1978              	.LVL195:
 802:ssd1306.c     ****         gfx_drawPixel( x0 - y, y0 - x, color );
 1979              		.loc 1 802 0
 1980 010e C5EB0B05 		rsb	r5, r5, fp
 1981 0112 2DB2     		sxth	r5, r5
 1982 0114 DDF80480 		ldr	r8, [sp, #4]
 1983 0118 4246     		mov	r2, r8
 1984 011a 2946     		mov	r1, r5
 1985 011c 3846     		mov	r0, r7
 1986 011e FFF7FEFF 		bl	gfx_drawPixel
 1987              	.LVL196:
 803:ssd1306.c     ****     }
 1988              		.loc 1 803 0
 1989 0122 4246     		mov	r2, r8
 1990 0124 2946     		mov	r1, r5
 1991 0126 3046     		mov	r0, r6
 1992 0128 FFF7FEFF 		bl	gfx_drawPixel
 1993              	.LVL197:
 1994              	.L170:
 787:ssd1306.c     ****         if( f >= 0 ){
 1995              		.loc 1 787 0
 1996 012c 029B     		ldr	r3, [sp, #8]
 1997 012e 9945     		cmp	r9, r3
 1998 0130 9BDB     		blt	.L172
 805:ssd1306.c     **** /***********************************************************************
 1999              		.loc 1 805 0
 2000 0132 07B0     		add	sp, sp, #28
 2001              		.cfi_def_cfa_offset 36
 2002              		@ sp needed
 2003 0134 BDE8F08F 		pop	{r4, r5, r6, r7, r8, r9, r10, fp, pc}
 2004              		.cfi_endproc
 2005              	.LFE27:
 2006              		.size	gfx_drawCircle, .-gfx_drawCircle
 2007              		.section	.text.gfx_drawTriangle,"ax",%progbits
 2008              		.align	2
 2009              		.global	gfx_drawTriangle
 2010              		.thumb
 2011              		.thumb_func
 2012              		.type	gfx_drawTriangle, %function
 2013              	gfx_drawTriangle:
 2014              	.LFB28:
 816:ssd1306.c     ****     
 2015              		.loc 1 816 0
ARM GAS  C:\Users\Besitzer\AppData\Local\Temp\cczB0neC.s 			page 56


 2016              		.cfi_startproc
 2017              		@ args = 12, pretend = 0, frame = 0
 2018              		@ frame_needed = 0, uses_anonymous_args = 0
 2019              	.LVL198:
 2020 0000 2DE9F047 		push	{r4, r5, r6, r7, r8, r9, r10, lr}
 2021              		.cfi_def_cfa_offset 32
 2022              		.cfi_offset 4, -32
 2023              		.cfi_offset 5, -28
 2024              		.cfi_offset 6, -24
 2025              		.cfi_offset 7, -20
 2026              		.cfi_offset 8, -16
 2027              		.cfi_offset 9, -12
 2028              		.cfi_offset 10, -8
 2029              		.cfi_offset 14, -4
 2030 0004 82B0     		sub	sp, sp, #8
 2031              		.cfi_def_cfa_offset 40
 2032 0006 0746     		mov	r7, r0
 2033 0008 8846     		mov	r8, r1
 2034 000a 9146     		mov	r9, r2
 2035 000c 9A46     		mov	r10, r3
 2036 000e BDF92850 		ldrsh	r5, [sp, #40]
 2037 0012 BDF92C60 		ldrsh	r6, [sp, #44]
 2038 0016 BDF83040 		ldrh	r4, [sp, #48]
 818:ssd1306.c     ****     gfx_drawLine( x1, y1, x2, y2, color );
 2039              		.loc 1 818 0
 2040 001a 0094     		str	r4, [sp]
 2041 001c FFF7FEFF 		bl	gfx_drawLine
 2042              	.LVL199:
 819:ssd1306.c     ****     gfx_drawLine( x2, y2, x0, y0, color );
 2043              		.loc 1 819 0
 2044 0020 0094     		str	r4, [sp]
 2045 0022 3346     		mov	r3, r6
 2046 0024 2A46     		mov	r2, r5
 2047 0026 5146     		mov	r1, r10
 2048 0028 4846     		mov	r0, r9
 2049 002a FFF7FEFF 		bl	gfx_drawLine
 2050              	.LVL200:
 820:ssd1306.c     **** }
 2051              		.loc 1 820 0
 2052 002e 0094     		str	r4, [sp]
 2053 0030 4346     		mov	r3, r8
 2054 0032 3A46     		mov	r2, r7
 2055 0034 3146     		mov	r1, r6
 2056 0036 2846     		mov	r0, r5
 2057 0038 FFF7FEFF 		bl	gfx_drawLine
 2058              	.LVL201:
 821:ssd1306.c     **** 
 2059              		.loc 1 821 0
 2060 003c 02B0     		add	sp, sp, #8
 2061              		.cfi_def_cfa_offset 32
 2062              		@ sp needed
 2063 003e BDE8F087 		pop	{r4, r5, r6, r7, r8, r9, r10, pc}
 2064              		.cfi_endproc
 2065              	.LFE28:
 2066              		.size	gfx_drawTriangle, .-gfx_drawTriangle
 2067 0042 00BF     		.section	.text.gfx_drawChar,"ax",%progbits
 2068              		.align	2
ARM GAS  C:\Users\Besitzer\AppData\Local\Temp\cczB0neC.s 			page 57


 2069              		.global	gfx_drawChar
 2070              		.thumb
 2071              		.thumb_func
 2072              		.type	gfx_drawChar, %function
 2073              	gfx_drawChar:
 2074              	.LFB29:
 835:ssd1306.c     ****     if( (x >= _width) || // Clip right
 2075              		.loc 1 835 0
 2076              		.cfi_startproc
 2077              		@ args = 8, pretend = 0, frame = 8
 2078              		@ frame_needed = 0, uses_anonymous_args = 0
 2079              	.LVL202:
 2080 0000 2DE9F04F 		push	{r4, r5, r6, r7, r8, r9, r10, fp, lr}
 2081              		.cfi_def_cfa_offset 36
 2082              		.cfi_offset 4, -36
 2083              		.cfi_offset 5, -32
 2084              		.cfi_offset 6, -28
 2085              		.cfi_offset 7, -24
 2086              		.cfi_offset 8, -20
 2087              		.cfi_offset 9, -16
 2088              		.cfi_offset 10, -12
 2089              		.cfi_offset 11, -8
 2090              		.cfi_offset 14, -4
 2091 0004 85B0     		sub	sp, sp, #20
 2092              		.cfi_def_cfa_offset 56
 2093 0006 BDF838B0 		ldrh	fp, [sp, #56]
 2094 000a 9DF83C60 		ldrb	r6, [sp, #60]	@ zero_extendqisi2
 836:ssd1306.c     ****         (y >= _height) || // Clip bottom
 2095              		.loc 1 836 0
 2096 000e 354C     		ldr	r4, .L189
 2097 0010 B4F90240 		ldrsh	r4, [r4, #2]
 2098 0014 8442     		cmp	r4, r0
 2099 0016 61DD     		ble	.L176
 837:ssd1306.c     ****         ((x + 6 * size - 1) < 0) || // Clip left
 2100              		.loc 1 837 0 discriminator 1
 2101 0018 324C     		ldr	r4, .L189
 2102 001a B4F90440 		ldrsh	r4, [r4, #4]
 836:ssd1306.c     ****         (y >= _height) || // Clip bottom
 2103              		.loc 1 836 0 discriminator 1
 2104 001e 8C42     		cmp	r4, r1
 2105 0020 5CDD     		ble	.L176
 838:ssd1306.c     ****         ((y + 8 * size - 1) < 0)) // Clip top
 2106              		.loc 1 838 0
 2107 0022 06EB4605 		add	r5, r6, r6, lsl #1
 2108 0026 6C00     		lsls	r4, r5, #1
 2109 0028 0444     		add	r4, r4, r0
 837:ssd1306.c     ****         ((x + 6 * size - 1) < 0) || // Clip left
 2110              		.loc 1 837 0
 2111 002a 012C     		cmp	r4, #1
 2112 002c 56D4     		bmi	.L176
 839:ssd1306.c     ****         return;
 2113              		.loc 1 839 0
 2114 002e 01EBC604 		add	r4, r1, r6, lsl #3
 838:ssd1306.c     ****         ((y + 8 * size - 1) < 0)) // Clip top
 2115              		.loc 1 838 0
 2116 0032 012C     		cmp	r4, #1
 2117 0034 52D4     		bmi	.L176
ARM GAS  C:\Users\Besitzer\AppData\Local\Temp\cczB0neC.s 			page 58


 2118 0036 9846     		mov	r8, r3
 2119 0038 0392     		str	r2, [sp, #12]
 2120 003a 8A46     		mov	r10, r1
 2121 003c 8146     		mov	r9, r0
 2122 003e 0027     		movs	r7, #0
 2123 0040 4AE0     		b	.L178
 2124              	.LVL203:
 2125              	.L186:
 2126              	.LBB7:
 845:ssd1306.c     ****             line = 0x0;
 2127              		.loc 1 845 0
 2128 0042 052F     		cmp	r7, #5
 2129 0044 06D0     		beq	.L187
 848:ssd1306.c     ****         int8_t j = 0;
 2130              		.loc 1 848 0
 2131 0046 039B     		ldr	r3, [sp, #12]
 2132 0048 03EB8303 		add	r3, r3, r3, lsl #2
 2133 004c 3B44     		add	r3, r3, r7
 2134 004e 264A     		ldr	r2, .L189+4
 2135 0050 D55C     		ldrb	r5, [r2, r3]	@ zero_extendqisi2
 2136              	.LVL204:
 2137 0052 00E0     		b	.L179
 2138              	.LVL205:
 2139              	.L187:
 846:ssd1306.c     ****         else
 2140              		.loc 1 846 0
 2141 0054 0025     		movs	r5, #0
 2142              	.L179:
 846:ssd1306.c     ****         else
 2143              		.loc 1 846 0 is_stmt 0 discriminator 1
 2144 0056 0024     		movs	r4, #0
 2145 0058 3AE0     		b	.L180
 2146              	.LVL206:
 2147              	.L185:
 851:ssd1306.c     ****                 if( size == 1 ) // default size
 2148              		.loc 1 851 0 is_stmt 1
 2149 005a 15F0010F 		tst	r5, #1
 2150 005e 19D0     		beq	.L181
 852:ssd1306.c     ****                     gfx_drawPixel( x+i, y+j, color );
 2151              		.loc 1 852 0
 2152 0060 012E     		cmp	r6, #1
 2153 0062 09D1     		bne	.L182
 853:ssd1306.c     ****                 else { // big size
 2154              		.loc 1 853 0
 2155 0064 04EB0A01 		add	r1, r4, r10
 2156 0068 07EB0900 		add	r0, r7, r9
 2157 006c 4246     		mov	r2, r8
 2158 006e 09B2     		sxth	r1, r1
 2159 0070 00B2     		sxth	r0, r0
 2160 0072 FFF7FEFF 		bl	gfx_drawPixel
 2161              	.LVL207:
 2162 0076 28E0     		b	.L183
 2163              	.L182:
 855:ssd1306.c     ****                 }
 2164              		.loc 1 855 0
 2165 0078 B0B2     		uxth	r0, r6
 2166 007a 32B2     		sxth	r2, r6
ARM GAS  C:\Users\Besitzer\AppData\Local\Temp\cczB0neC.s 			page 59


 2167 007c 04FB00A1 		mla	r1, r4, r0, r10
 2168 0080 07FB0090 		mla	r0, r7, r0, r9
 2169 0084 CDF80080 		str	r8, [sp]
 2170 0088 1346     		mov	r3, r2
 2171 008a 09B2     		sxth	r1, r1
 2172 008c 00B2     		sxth	r0, r0
 2173 008e FFF7FEFF 		bl	gfx_fillRect
 2174              	.LVL208:
 2175 0092 1AE0     		b	.L183
 2176              	.L181:
 857:ssd1306.c     ****                 if( size == 1 ) // default size
 2177              		.loc 1 857 0
 2178 0094 D845     		cmp	r8, fp
 2179 0096 18D0     		beq	.L183
 858:ssd1306.c     ****                     gfx_drawPixel( x+i, y+j, bg );
 2180              		.loc 1 858 0
 2181 0098 012E     		cmp	r6, #1
 2182 009a 09D1     		bne	.L184
 859:ssd1306.c     ****                 else { // big size
 2183              		.loc 1 859 0
 2184 009c 04EB0A01 		add	r1, r4, r10
 2185 00a0 07EB0900 		add	r0, r7, r9
 2186 00a4 5A46     		mov	r2, fp
 2187 00a6 09B2     		sxth	r1, r1
 2188 00a8 00B2     		sxth	r0, r0
 2189 00aa FFF7FEFF 		bl	gfx_drawPixel
 2190              	.LVL209:
 2191 00ae 0CE0     		b	.L183
 2192              	.L184:
 861:ssd1306.c     ****                 }
 2193              		.loc 1 861 0
 2194 00b0 B0B2     		uxth	r0, r6
 2195 00b2 32B2     		sxth	r2, r6
 2196 00b4 04FB00A1 		mla	r1, r4, r0, r10
 2197 00b8 07FB0090 		mla	r0, r7, r0, r9
 2198 00bc CDF800B0 		str	fp, [sp]
 2199 00c0 1346     		mov	r3, r2
 2200 00c2 09B2     		sxth	r1, r1
 2201 00c4 00B2     		sxth	r0, r0
 2202 00c6 FFF7FEFF 		bl	gfx_fillRect
 2203              	.LVL210:
 2204              	.L183:
 864:ssd1306.c     ****         }
 2205              		.loc 1 864 0 discriminator 2
 2206 00ca 6D08     		lsrs	r5, r5, #1
 2207              	.LVL211:
 850:ssd1306.c     ****             if( line & 0x1 ){
 2208              		.loc 1 850 0 discriminator 2
 2209 00cc 0134     		adds	r4, r4, #1
 2210              	.LVL212:
 2211 00ce 64B2     		sxtb	r4, r4
 2212              	.LVL213:
 2213              	.L180:
 850:ssd1306.c     ****             if( line & 0x1 ){
 2214              		.loc 1 850 0 is_stmt 0 discriminator 1
 2215 00d0 072C     		cmp	r4, #7
 2216 00d2 C2DD     		ble	.L185
ARM GAS  C:\Users\Besitzer\AppData\Local\Temp\cczB0neC.s 			page 60


 2217              	.LBE7:
 843:ssd1306.c     ****         uint8_t line;
 2218              		.loc 1 843 0 is_stmt 1 discriminator 2
 2219 00d4 0137     		adds	r7, r7, #1
 2220              	.LVL214:
 2221 00d6 7FB2     		sxtb	r7, r7
 2222              	.LVL215:
 2223              	.L178:
 843:ssd1306.c     ****         uint8_t line;
 2224              		.loc 1 843 0 is_stmt 0 discriminator 1
 2225 00d8 052F     		cmp	r7, #5
 2226 00da B2DD     		ble	.L186
 2227              	.LVL216:
 2228              	.L176:
 867:ssd1306.c     **** /***********************************************************************
 2229              		.loc 1 867 0 is_stmt 1
 2230 00dc 05B0     		add	sp, sp, #20
 2231              		.cfi_def_cfa_offset 36
 2232              		@ sp needed
 2233 00de BDE8F08F 		pop	{r4, r5, r6, r7, r8, r9, r10, fp, pc}
 2234              	.LVL217:
 2235              	.L190:
 2236 00e2 00BF     		.align	2
 2237              	.L189:
 2238 00e4 00000000 		.word	.LANCHOR1
 2239 00e8 00000000 		.word	.LANCHOR2
 2240              		.cfi_endproc
 2241              	.LFE29:
 2242              		.size	gfx_drawChar, .-gfx_drawChar
 2243              		.section	.text.gfx_write,"ax",%progbits
 2244              		.align	2
 2245              		.global	gfx_write
 2246              		.thumb
 2247              		.thumb_func
 2248              		.type	gfx_write, %function
 2249              	gfx_write:
 2250              	.LFB30:
 875:ssd1306.c     ****     if( ch == '\n' ){
 2251              		.loc 1 875 0
 2252              		.cfi_startproc
 2253              		@ args = 0, pretend = 0, frame = 0
 2254              		@ frame_needed = 0, uses_anonymous_args = 0
 2255              	.LVL218:
 876:ssd1306.c     ****         cursor_y += textsize*8;
 2256              		.loc 1 876 0
 2257 0000 0A28     		cmp	r0, #10
 2258 0002 08D1     		bne	.L192
 877:ssd1306.c     ****         cursor_x = 0;
 2259              		.loc 1 877 0
 2260 0004 1A4B     		ldr	r3, .L196
 2261 0006 997A     		ldrb	r1, [r3, #10]	@ zero_extendqisi2
 2262 0008 1A89     		ldrh	r2, [r3, #8]
 2263 000a 02EBC102 		add	r2, r2, r1, lsl #3
 2264 000e 1A81     		strh	r2, [r3, #8]	@ movhi
 878:ssd1306.c     ****     }else if( ch == '\r' ){
 2265              		.loc 1 878 0
 2266 0010 0022     		movs	r2, #0
ARM GAS  C:\Users\Besitzer\AppData\Local\Temp\cczB0neC.s 			page 61


 2267 0012 DA80     		strh	r2, [r3, #6]	@ movhi
 2268              	.L195:
 2269 0014 7047     		bx	lr
 2270              	.L192:
 879:ssd1306.c     ****         // skip em
 2271              		.loc 1 879 0
 2272 0016 0D28     		cmp	r0, #13
 2273 0018 FCD0     		beq	.L195
 875:ssd1306.c     ****     if( ch == '\n' ){
 2274              		.loc 1 875 0
 2275 001a 30B5     		push	{r4, r5, lr}
 2276              		.cfi_def_cfa_offset 12
 2277              		.cfi_offset 4, -12
 2278              		.cfi_offset 5, -8
 2279              		.cfi_offset 14, -4
 2280 001c 83B0     		sub	sp, sp, #12
 2281              		.cfi_def_cfa_offset 24
 2282 001e 0246     		mov	r2, r0
 882:ssd1306.c     ****         cursor_x += textsize*6;
 2283              		.loc 1 882 0
 2284 0020 134C     		ldr	r4, .L196
 2285 0022 E389     		ldrh	r3, [r4, #14]
 2286 0024 B4F90810 		ldrsh	r1, [r4, #8]
 2287 0028 B4F90600 		ldrsh	r0, [r4, #6]
 2288              	.LVL219:
 2289 002c A57A     		ldrb	r5, [r4, #10]	@ zero_extendqisi2
 2290 002e 0195     		str	r5, [sp, #4]
 2291 0030 A589     		ldrh	r5, [r4, #12]
 2292 0032 0095     		str	r5, [sp]
 2293 0034 FFF7FEFF 		bl	gfx_drawChar
 2294              	.LVL220:
 883:ssd1306.c     ****         if( wrap && (cursor_x > (_width - textsize*6)) ){
 2295              		.loc 1 883 0
 2296 0038 A27A     		ldrb	r2, [r4, #10]	@ zero_extendqisi2
 2297 003a 91B2     		uxth	r1, r2
 2298 003c 01EB4103 		add	r3, r1, r1, lsl #1
 2299 0040 5800     		lsls	r0, r3, #1
 2300 0042 E388     		ldrh	r3, [r4, #6]
 2301 0044 0344     		add	r3, r3, r0
 2302 0046 1BB2     		sxth	r3, r3
 2303 0048 E380     		strh	r3, [r4, #6]	@ movhi
 884:ssd1306.c     ****             cursor_y += textsize*8;
 2304              		.loc 1 884 0
 2305 004a 0A48     		ldr	r0, .L196+4
 2306 004c 0078     		ldrb	r0, [r0]	@ zero_extendqisi2
 2307 004e 68B1     		cbz	r0, .L191
 884:ssd1306.c     ****             cursor_y += textsize*8;
 2308              		.loc 1 884 0 is_stmt 0 discriminator 1
 2309 0050 A2EB8202 		sub	r2, r2, r2, lsl #2
 2310 0054 5000     		lsls	r0, r2, #1
 2311 0056 B4F90220 		ldrsh	r2, [r4, #2]
 2312 005a 1044     		add	r0, r0, r2
 2313 005c 8342     		cmp	r3, r0
 2314 005e 05DD     		ble	.L191
 885:ssd1306.c     ****             cursor_x = 0;
 2315              		.loc 1 885 0 is_stmt 1
 2316 0060 2289     		ldrh	r2, [r4, #8]
ARM GAS  C:\Users\Besitzer\AppData\Local\Temp\cczB0neC.s 			page 62


 2317 0062 02EBC101 		add	r1, r2, r1, lsl #3
 2318 0066 2181     		strh	r1, [r4, #8]	@ movhi
 886:ssd1306.c     ****         }
 2319              		.loc 1 886 0
 2320 0068 0022     		movs	r2, #0
 2321 006a E280     		strh	r2, [r4, #6]	@ movhi
 2322              	.L191:
 889:ssd1306.c     **** /***********************************************************************
 2323              		.loc 1 889 0
 2324 006c 03B0     		add	sp, sp, #12
 2325              		.cfi_def_cfa_offset 12
 2326              		@ sp needed
 2327 006e 30BD     		pop	{r4, r5, pc}
 2328              	.L197:
 2329              		.align	2
 2330              	.L196:
 2331 0070 00000000 		.word	.LANCHOR1
 2332 0074 00000000 		.word	wrap
 2333              		.cfi_endproc
 2334              	.LFE30:
 2335              		.size	gfx_write, .-gfx_write
 2336              		.section	.text.gfx_print,"ax",%progbits
 2337              		.align	2
 2338              		.global	gfx_print
 2339              		.thumb
 2340              		.thumb_func
 2341              		.type	gfx_print, %function
 2342              	gfx_print:
 2343              	.LFB31:
 897:ssd1306.c     ****     
 2344              		.loc 1 897 0
 2345              		.cfi_startproc
 2346              		@ args = 0, pretend = 0, frame = 0
 2347              		@ frame_needed = 0, uses_anonymous_args = 0
 2348              	.LVL221:
 2349 0000 70B5     		push	{r4, r5, r6, lr}
 2350              		.cfi_def_cfa_offset 16
 2351              		.cfi_offset 4, -16
 2352              		.cfi_offset 5, -12
 2353              		.cfi_offset 6, -8
 2354              		.cfi_offset 14, -4
 2355 0002 0646     		mov	r6, r0
 899:ssd1306.c     ****     unsigned int i = 0; 
 2356              		.loc 1 899 0
 2357 0004 FFF7FEFF 		bl	strlen
 2358              	.LVL222:
 2359 0008 0546     		mov	r5, r0
 2360              	.LVL223:
 901:ssd1306.c     ****         gfx_write( s[i] );
 2361              		.loc 1 901 0
 2362 000a 0024     		movs	r4, #0
 2363 000c 03E0     		b	.L199
 2364              	.LVL224:
 2365              	.L200:
 902:ssd1306.c     ****     }
 2366              		.loc 1 902 0 discriminator 3
 2367 000e 305D     		ldrb	r0, [r6, r4]	@ zero_extendqisi2
ARM GAS  C:\Users\Besitzer\AppData\Local\Temp\cczB0neC.s 			page 63


 2368 0010 FFF7FEFF 		bl	gfx_write
 2369              	.LVL225:
 901:ssd1306.c     ****         gfx_write( s[i] );
 2370              		.loc 1 901 0 discriminator 3
 2371 0014 0134     		adds	r4, r4, #1
 2372              	.LVL226:
 2373              	.L199:
 901:ssd1306.c     ****         gfx_write( s[i] );
 2374              		.loc 1 901 0 is_stmt 0 discriminator 1
 2375 0016 AC42     		cmp	r4, r5
 2376 0018 F9D3     		bcc	.L200
 904:ssd1306.c     **** /***********************************************************************
 2377              		.loc 1 904 0 is_stmt 1
 2378 001a 70BD     		pop	{r4, r5, r6, pc}
 2379              		.cfi_endproc
 2380              	.LFE31:
 2381              		.size	gfx_print, .-gfx_print
 2382              		.section	.text.gfx_println,"ax",%progbits
 2383              		.align	2
 2384              		.global	gfx_println
 2385              		.thumb
 2386              		.thumb_func
 2387              		.type	gfx_println, %function
 2388              	gfx_println:
 2389              	.LFB32:
 912:ssd1306.c     ****     gfx_print( s ); 
 2390              		.loc 1 912 0
 2391              		.cfi_startproc
 2392              		@ args = 0, pretend = 0, frame = 0
 2393              		@ frame_needed = 0, uses_anonymous_args = 0
 2394              	.LVL227:
 2395 0000 08B5     		push	{r3, lr}
 2396              		.cfi_def_cfa_offset 8
 2397              		.cfi_offset 3, -8
 2398              		.cfi_offset 14, -4
 913:ssd1306.c     ****     gfx_write( '\n' );
 2399              		.loc 1 913 0
 2400 0002 FFF7FEFF 		bl	gfx_print
 2401              	.LVL228:
 914:ssd1306.c     **** }
 2402              		.loc 1 914 0
 2403 0006 0A20     		movs	r0, #10
 2404 0008 FFF7FEFF 		bl	gfx_write
 2405              	.LVL229:
 2406 000c 08BD     		pop	{r3, pc}
 2407              		.cfi_endproc
 2408              	.LFE32:
 2409              		.size	gfx_println, .-gfx_println
 2410 000e 00BF     		.section	.text.SSD1306_HAL_Reset,"ax",%progbits
 2411              		.align	2
 2412              		.global	SSD1306_HAL_Reset
 2413              		.thumb
 2414              		.thumb_func
 2415              		.type	SSD1306_HAL_Reset, %function
 2416              	SSD1306_HAL_Reset:
 2417              	.LFB34:
 963:ssd1306.c     **** 
ARM GAS  C:\Users\Besitzer\AppData\Local\Temp\cczB0neC.s 			page 64


 964:ssd1306.c     **** /***********************************************************************
 965:ssd1306.c     **** *! \fn			void SSD1306_HAL_Reset(bool reset)
 966:ssd1306.c     **** *  \brief		reset the SSD1306
 967:ssd1306.c     **** *  \param		bool reset -  1 = Reset, 0 = active
 968:ssd1306.c     **** *  \exception	none
 969:ssd1306.c     **** *  \return		none
 970:ssd1306.c     **** ***********************************************************************/
 971:ssd1306.c     **** void SSD1306_HAL_Reset(bool reset){
 2418              		.loc 1 971 0
 2419              		.cfi_startproc
 2420              		@ args = 0, pretend = 0, frame = 0
 2421              		@ frame_needed = 0, uses_anonymous_args = 0
 2422              	.LVL230:
 2423 0000 08B5     		push	{r3, lr}
 2424              		.cfi_def_cfa_offset 8
 2425              		.cfi_offset 3, -8
 2426              		.cfi_offset 14, -4
 972:ssd1306.c     **** 	
 973:ssd1306.c     **** 	if(reset)
 2427              		.loc 1 973 0
 2428 0002 18B1     		cbz	r0, .L205
 974:ssd1306.c     **** 		SSD1306_Reset_Write(0);
 2429              		.loc 1 974 0
 2430 0004 0020     		movs	r0, #0
 2431              	.LVL231:
 2432 0006 FFF7FEFF 		bl	SSD1306_Reset_Write
 2433              	.LVL232:
 2434 000a 08BD     		pop	{r3, pc}
 2435              	.LVL233:
 2436              	.L205:
 975:ssd1306.c     **** 	else
 976:ssd1306.c     **** 		SSD1306_Reset_Write(1);
 2437              		.loc 1 976 0
 2438 000c 0120     		movs	r0, #1
 2439              	.LVL234:
 2440 000e FFF7FEFF 		bl	SSD1306_Reset_Write
 2441              	.LVL235:
 2442 0012 08BD     		pop	{r3, pc}
 2443              		.cfi_endproc
 2444              	.LFE34:
 2445              		.size	SSD1306_HAL_Reset, .-SSD1306_HAL_Reset
 2446              		.section	.text.SSD1306_Init,"ax",%progbits
 2447              		.align	2
 2448              		.global	SSD1306_Init
 2449              		.thumb
 2450              		.thumb_func
 2451              		.type	SSD1306_Init, %function
 2452              	SSD1306_Init:
 2453              	.LFB0:
 155:ssd1306.c     ****     
 2454              		.loc 1 155 0
 2455              		.cfi_startproc
 2456              		@ args = 0, pretend = 0, frame = 32
 2457              		@ frame_needed = 0, uses_anonymous_args = 0
 2458              	.LVL236:
 2459 0000 30B5     		push	{r4, r5, lr}
 2460              		.cfi_def_cfa_offset 12
ARM GAS  C:\Users\Besitzer\AppData\Local\Temp\cczB0neC.s 			page 65


 2461              		.cfi_offset 4, -12
 2462              		.cfi_offset 5, -8
 2463              		.cfi_offset 14, -4
 2464 0002 89B0     		sub	sp, sp, #36
 2465              		.cfi_def_cfa_offset 48
 2466 0004 0446     		mov	r4, r0
 157:ssd1306.c     ****     I2C_1_Start();
 2467              		.loc 1 157 0
 2468 0006 FFF7FEFF 		bl	I2C_1_Enable
 2469              	.LVL237:
 158:ssd1306.c     **** 
 2470              		.loc 1 158 0
 2471 000a FFF7FEFF 		bl	I2C_1_Start
 2472              	.LVL238:
 160:ssd1306.c     ****     gfx_init( DISPLAYWIDTH, DISPLAYHEIGHT );
 2473              		.loc 1 160 0
 2474 000e 134B     		ldr	r3, .L210
 2475 0010 1C70     		strb	r4, [r3]
 161:ssd1306.c     ****     
 2476              		.loc 1 161 0
 2477 0012 4021     		movs	r1, #64
 2478 0014 8020     		movs	r0, #128
 2479 0016 FFF7FEFF 		bl	gfx_init
 2480              	.LVL239:
 163:ssd1306.c     **** 	CyDelay(500);
 2481              		.loc 1 163 0
 2482 001a 0120     		movs	r0, #1
 2483 001c FFF7FEFF 		bl	SSD1306_HAL_Reset
 2484              	.LVL240:
 164:ssd1306.c     **** 	SSD1306_HAL_Reset(0);
 2485              		.loc 1 164 0
 2486 0020 4FF4FA70 		mov	r0, #500
 2487 0024 FFF7FEFF 		bl	CyDelay
 2488              	.LVL241:
 165:ssd1306.c     **** 	CyDelay(800);
 2489              		.loc 1 165 0
 2490 0028 0020     		movs	r0, #0
 2491 002a FFF7FEFF 		bl	SSD1306_HAL_Reset
 2492              	.LVL242:
 166:ssd1306.c     **** 
 2493              		.loc 1 166 0
 2494 002e 4FF44870 		mov	r0, #800
 2495 0032 FFF7FEFF 		bl	CyDelay
 2496              	.LVL243:
 168:ssd1306.c     ****         0x00,
 2497              		.loc 1 168 0
 2498 0036 6C46     		mov	r4, sp
 2499 0038 094D     		ldr	r5, .L210+4
 2500 003a 2868     		ldr	r0, [r5]	@ unaligned
 2501 003c 6968     		ldr	r1, [r5, #4]	@ unaligned
 2502 003e AA68     		ldr	r2, [r5, #8]	@ unaligned
 2503 0040 EB68     		ldr	r3, [r5, #12]	@ unaligned
 2504 0042 0FC4     		stmia	r4!, {r0, r1, r2, r3}
 2505 0044 2869     		ldr	r0, [r5, #16]	@ unaligned
 2506 0046 6969     		ldr	r1, [r5, #20]	@ unaligned
 2507 0048 AA69     		ldr	r2, [r5, #24]	@ unaligned
 2508 004a EB69     		ldr	r3, [r5, #28]	@ unaligned
ARM GAS  C:\Users\Besitzer\AppData\Local\Temp\cczB0neC.s 			page 66


 2509 004c 0FC4     		stmia	r4!, {r0, r1, r2, r3}
 216:ssd1306.c     **** 
 2510              		.loc 1 216 0
 2511 004e 2021     		movs	r1, #32
 2512 0050 6846     		mov	r0, sp
 2513 0052 FFF7FEFF 		bl	display_write_buf
 2514              	.LVL244:
 218:ssd1306.c     **** /***********************************************************************
 2515              		.loc 1 218 0
 2516 0056 09B0     		add	sp, sp, #36
 2517              		.cfi_def_cfa_offset 12
 2518              		@ sp needed
 2519 0058 30BD     		pop	{r4, r5, pc}
 2520              	.L211:
 2521 005a 00BF     		.align	2
 2522              	.L210:
 2523 005c 00000000 		.word	.LANCHOR1
 2524 0060 FC040000 		.word	.LANCHOR2+1276
 2525              		.cfi_endproc
 2526              	.LFE0:
 2527              		.size	SSD1306_Init, .-SSD1306_Init
 2528              		.section	.text.SSD1306_HAL_CS,"ax",%progbits
 2529              		.align	2
 2530              		.global	SSD1306_HAL_CS
 2531              		.thumb
 2532              		.thumb_func
 2533              		.type	SSD1306_HAL_CS, %function
 2534              	SSD1306_HAL_CS:
 2535              	.LFB35:
 977:ssd1306.c     **** }
 978:ssd1306.c     **** 
 979:ssd1306.c     **** /***********************************************************************
 980:ssd1306.c     **** *! \fn			void SSD1306_HAL_CS(bool cs)
 981:ssd1306.c     **** *  \brief		control the SSD1306 cs pn
 982:ssd1306.c     **** *  \param		bool cs -  1 = enable, 0 = disable
 983:ssd1306.c     **** *  \exception	none
 984:ssd1306.c     **** *  \return		none
 985:ssd1306.c     **** ***********************************************************************/
 986:ssd1306.c     **** void SSD1306_HAL_CS(bool cs){
 2536              		.loc 1 986 0
 2537              		.cfi_startproc
 2538              		@ args = 0, pretend = 0, frame = 0
 2539              		@ frame_needed = 0, uses_anonymous_args = 0
 2540              		@ link register save eliminated.
 2541              	.LVL245:
 2542 0000 7047     		bx	lr
 2543              		.cfi_endproc
 2544              	.LFE35:
 2545              		.size	SSD1306_HAL_CS, .-SSD1306_HAL_CS
 2546 0002 00BF     		.section	.text.SSD1306_HAL_DC,"ax",%progbits
 2547              		.align	2
 2548              		.global	SSD1306_HAL_DC
 2549              		.thumb
 2550              		.thumb_func
 2551              		.type	SSD1306_HAL_DC, %function
 2552              	SSD1306_HAL_DC:
 2553              	.LFB36:
ARM GAS  C:\Users\Besitzer\AppData\Local\Temp\cczB0neC.s 			page 67


 987:ssd1306.c     **** #ifdef _Interface_SPI_
 988:ssd1306.c     **** 	if(cs)
 989:ssd1306.c     **** 		SSD1306_CS_Write(0);
 990:ssd1306.c     **** 	else
 991:ssd1306.c     **** 		SSD1306_CS_Write(1);
 992:ssd1306.c     **** #endif
 993:ssd1306.c     **** }
 994:ssd1306.c     **** 
 995:ssd1306.c     **** /***********************************************************************
 996:ssd1306.c     **** *! \fn			void SSD1306_HAL_DC(bool dc)
 997:ssd1306.c     **** *  \brief		control the SSD1306 dc pn
 998:ssd1306.c     **** *  \param		bool dc -  0 = Command, 1 = Data
 999:ssd1306.c     **** *  \exception	none
1000:ssd1306.c     **** *  \return		none
1001:ssd1306.c     **** ***********************************************************************/
1002:ssd1306.c     **** void SSD1306_HAL_DC(bool dc){
 2554              		.loc 1 1002 0
 2555              		.cfi_startproc
 2556              		@ args = 0, pretend = 0, frame = 0
 2557              		@ frame_needed = 0, uses_anonymous_args = 0
 2558              		@ link register save eliminated.
 2559              	.LVL246:
 2560 0000 7047     		bx	lr
 2561              		.cfi_endproc
 2562              	.LFE36:
 2563              		.size	SSD1306_HAL_DC, .-SSD1306_HAL_DC
 2564              		.comm	wrap,1,1
 2565              		.comm	rotation,1,1
 2566              		.comm	HEIGHT,2,2
 2567              		.comm	WIDTH,2,2
 2568 0002 00BF     		.section	.rodata
 2569              		.align	2
 2570              		.set	.LANCHOR2,. + 0
 2571              		.type	font, %object
 2572              		.size	font, 1275
 2573              	font:
 2574 0000 00       		.byte	0
 2575 0001 00       		.byte	0
 2576 0002 00       		.byte	0
 2577 0003 00       		.byte	0
 2578 0004 00       		.byte	0
 2579 0005 3E       		.byte	62
 2580 0006 5B       		.byte	91
 2581 0007 4F       		.byte	79
 2582 0008 5B       		.byte	91
 2583 0009 3E       		.byte	62
 2584 000a 3E       		.byte	62
 2585 000b 6B       		.byte	107
 2586 000c 4F       		.byte	79
 2587 000d 6B       		.byte	107
 2588 000e 3E       		.byte	62
 2589 000f 1C       		.byte	28
 2590 0010 3E       		.byte	62
 2591 0011 7C       		.byte	124
 2592 0012 3E       		.byte	62
 2593 0013 1C       		.byte	28
 2594 0014 18       		.byte	24
ARM GAS  C:\Users\Besitzer\AppData\Local\Temp\cczB0neC.s 			page 68


 2595 0015 3C       		.byte	60
 2596 0016 7E       		.byte	126
 2597 0017 3C       		.byte	60
 2598 0018 18       		.byte	24
 2599 0019 1C       		.byte	28
 2600 001a 57       		.byte	87
 2601 001b 7D       		.byte	125
 2602 001c 57       		.byte	87
 2603 001d 1C       		.byte	28
 2604 001e 1C       		.byte	28
 2605 001f 5E       		.byte	94
 2606 0020 7F       		.byte	127
 2607 0021 5E       		.byte	94
 2608 0022 1C       		.byte	28
 2609 0023 00       		.byte	0
 2610 0024 18       		.byte	24
 2611 0025 3C       		.byte	60
 2612 0026 18       		.byte	24
 2613 0027 00       		.byte	0
 2614 0028 FF       		.byte	-1
 2615 0029 E7       		.byte	-25
 2616 002a C3       		.byte	-61
 2617 002b E7       		.byte	-25
 2618 002c FF       		.byte	-1
 2619 002d 00       		.byte	0
 2620 002e 18       		.byte	24
 2621 002f 24       		.byte	36
 2622 0030 18       		.byte	24
 2623 0031 00       		.byte	0
 2624 0032 FF       		.byte	-1
 2625 0033 E7       		.byte	-25
 2626 0034 DB       		.byte	-37
 2627 0035 E7       		.byte	-25
 2628 0036 FF       		.byte	-1
 2629 0037 30       		.byte	48
 2630 0038 48       		.byte	72
 2631 0039 3A       		.byte	58
 2632 003a 06       		.byte	6
 2633 003b 0E       		.byte	14
 2634 003c 26       		.byte	38
 2635 003d 29       		.byte	41
 2636 003e 79       		.byte	121
 2637 003f 29       		.byte	41
 2638 0040 26       		.byte	38
 2639 0041 40       		.byte	64
 2640 0042 7F       		.byte	127
 2641 0043 05       		.byte	5
 2642 0044 05       		.byte	5
 2643 0045 07       		.byte	7
 2644 0046 40       		.byte	64
 2645 0047 7F       		.byte	127
 2646 0048 05       		.byte	5
 2647 0049 25       		.byte	37
 2648 004a 3F       		.byte	63
 2649 004b 5A       		.byte	90
 2650 004c 3C       		.byte	60
 2651 004d E7       		.byte	-25
ARM GAS  C:\Users\Besitzer\AppData\Local\Temp\cczB0neC.s 			page 69


 2652 004e 3C       		.byte	60
 2653 004f 5A       		.byte	90
 2654 0050 7F       		.byte	127
 2655 0051 3E       		.byte	62
 2656 0052 1C       		.byte	28
 2657 0053 1C       		.byte	28
 2658 0054 08       		.byte	8
 2659 0055 08       		.byte	8
 2660 0056 1C       		.byte	28
 2661 0057 1C       		.byte	28
 2662 0058 3E       		.byte	62
 2663 0059 7F       		.byte	127
 2664 005a 14       		.byte	20
 2665 005b 22       		.byte	34
 2666 005c 7F       		.byte	127
 2667 005d 22       		.byte	34
 2668 005e 14       		.byte	20
 2669 005f 5F       		.byte	95
 2670 0060 5F       		.byte	95
 2671 0061 00       		.byte	0
 2672 0062 5F       		.byte	95
 2673 0063 5F       		.byte	95
 2674 0064 06       		.byte	6
 2675 0065 09       		.byte	9
 2676 0066 7F       		.byte	127
 2677 0067 01       		.byte	1
 2678 0068 7F       		.byte	127
 2679 0069 00       		.byte	0
 2680 006a 66       		.byte	102
 2681 006b 89       		.byte	-119
 2682 006c 95       		.byte	-107
 2683 006d 6A       		.byte	106
 2684 006e 60       		.byte	96
 2685 006f 60       		.byte	96
 2686 0070 60       		.byte	96
 2687 0071 60       		.byte	96
 2688 0072 60       		.byte	96
 2689 0073 94       		.byte	-108
 2690 0074 A2       		.byte	-94
 2691 0075 FF       		.byte	-1
 2692 0076 A2       		.byte	-94
 2693 0077 94       		.byte	-108
 2694 0078 08       		.byte	8
 2695 0079 04       		.byte	4
 2696 007a 7E       		.byte	126
 2697 007b 04       		.byte	4
 2698 007c 08       		.byte	8
 2699 007d 10       		.byte	16
 2700 007e 20       		.byte	32
 2701 007f 7E       		.byte	126
 2702 0080 20       		.byte	32
 2703 0081 10       		.byte	16
 2704 0082 08       		.byte	8
 2705 0083 08       		.byte	8
 2706 0084 2A       		.byte	42
 2707 0085 1C       		.byte	28
 2708 0086 08       		.byte	8
ARM GAS  C:\Users\Besitzer\AppData\Local\Temp\cczB0neC.s 			page 70


 2709 0087 08       		.byte	8
 2710 0088 1C       		.byte	28
 2711 0089 2A       		.byte	42
 2712 008a 08       		.byte	8
 2713 008b 08       		.byte	8
 2714 008c 1E       		.byte	30
 2715 008d 10       		.byte	16
 2716 008e 10       		.byte	16
 2717 008f 10       		.byte	16
 2718 0090 10       		.byte	16
 2719 0091 0C       		.byte	12
 2720 0092 1E       		.byte	30
 2721 0093 0C       		.byte	12
 2722 0094 1E       		.byte	30
 2723 0095 0C       		.byte	12
 2724 0096 30       		.byte	48
 2725 0097 38       		.byte	56
 2726 0098 3E       		.byte	62
 2727 0099 38       		.byte	56
 2728 009a 30       		.byte	48
 2729 009b 06       		.byte	6
 2730 009c 0E       		.byte	14
 2731 009d 3E       		.byte	62
 2732 009e 0E       		.byte	14
 2733 009f 06       		.byte	6
 2734 00a0 00       		.byte	0
 2735 00a1 00       		.byte	0
 2736 00a2 00       		.byte	0
 2737 00a3 00       		.byte	0
 2738 00a4 00       		.byte	0
 2739 00a5 00       		.byte	0
 2740 00a6 00       		.byte	0
 2741 00a7 5F       		.byte	95
 2742 00a8 00       		.byte	0
 2743 00a9 00       		.byte	0
 2744 00aa 00       		.byte	0
 2745 00ab 07       		.byte	7
 2746 00ac 00       		.byte	0
 2747 00ad 07       		.byte	7
 2748 00ae 00       		.byte	0
 2749 00af 14       		.byte	20
 2750 00b0 7F       		.byte	127
 2751 00b1 14       		.byte	20
 2752 00b2 7F       		.byte	127
 2753 00b3 14       		.byte	20
 2754 00b4 24       		.byte	36
 2755 00b5 2A       		.byte	42
 2756 00b6 7F       		.byte	127
 2757 00b7 2A       		.byte	42
 2758 00b8 12       		.byte	18
 2759 00b9 23       		.byte	35
 2760 00ba 13       		.byte	19
 2761 00bb 08       		.byte	8
 2762 00bc 64       		.byte	100
 2763 00bd 62       		.byte	98
 2764 00be 36       		.byte	54
 2765 00bf 49       		.byte	73
ARM GAS  C:\Users\Besitzer\AppData\Local\Temp\cczB0neC.s 			page 71


 2766 00c0 56       		.byte	86
 2767 00c1 20       		.byte	32
 2768 00c2 50       		.byte	80
 2769 00c3 00       		.byte	0
 2770 00c4 08       		.byte	8
 2771 00c5 07       		.byte	7
 2772 00c6 03       		.byte	3
 2773 00c7 00       		.byte	0
 2774 00c8 00       		.byte	0
 2775 00c9 1C       		.byte	28
 2776 00ca 22       		.byte	34
 2777 00cb 41       		.byte	65
 2778 00cc 00       		.byte	0
 2779 00cd 00       		.byte	0
 2780 00ce 41       		.byte	65
 2781 00cf 22       		.byte	34
 2782 00d0 1C       		.byte	28
 2783 00d1 00       		.byte	0
 2784 00d2 2A       		.byte	42
 2785 00d3 1C       		.byte	28
 2786 00d4 7F       		.byte	127
 2787 00d5 1C       		.byte	28
 2788 00d6 2A       		.byte	42
 2789 00d7 08       		.byte	8
 2790 00d8 08       		.byte	8
 2791 00d9 3E       		.byte	62
 2792 00da 08       		.byte	8
 2793 00db 08       		.byte	8
 2794 00dc 00       		.byte	0
 2795 00dd 80       		.byte	-128
 2796 00de 70       		.byte	112
 2797 00df 30       		.byte	48
 2798 00e0 00       		.byte	0
 2799 00e1 08       		.byte	8
 2800 00e2 08       		.byte	8
 2801 00e3 08       		.byte	8
 2802 00e4 08       		.byte	8
 2803 00e5 08       		.byte	8
 2804 00e6 00       		.byte	0
 2805 00e7 00       		.byte	0
 2806 00e8 60       		.byte	96
 2807 00e9 60       		.byte	96
 2808 00ea 00       		.byte	0
 2809 00eb 20       		.byte	32
 2810 00ec 10       		.byte	16
 2811 00ed 08       		.byte	8
 2812 00ee 04       		.byte	4
 2813 00ef 02       		.byte	2
 2814 00f0 3E       		.byte	62
 2815 00f1 51       		.byte	81
 2816 00f2 49       		.byte	73
 2817 00f3 45       		.byte	69
 2818 00f4 3E       		.byte	62
 2819 00f5 00       		.byte	0
 2820 00f6 42       		.byte	66
 2821 00f7 7F       		.byte	127
 2822 00f8 40       		.byte	64
ARM GAS  C:\Users\Besitzer\AppData\Local\Temp\cczB0neC.s 			page 72


 2823 00f9 00       		.byte	0
 2824 00fa 72       		.byte	114
 2825 00fb 49       		.byte	73
 2826 00fc 49       		.byte	73
 2827 00fd 49       		.byte	73
 2828 00fe 46       		.byte	70
 2829 00ff 21       		.byte	33
 2830 0100 41       		.byte	65
 2831 0101 49       		.byte	73
 2832 0102 4D       		.byte	77
 2833 0103 33       		.byte	51
 2834 0104 18       		.byte	24
 2835 0105 14       		.byte	20
 2836 0106 12       		.byte	18
 2837 0107 7F       		.byte	127
 2838 0108 10       		.byte	16
 2839 0109 27       		.byte	39
 2840 010a 45       		.byte	69
 2841 010b 45       		.byte	69
 2842 010c 45       		.byte	69
 2843 010d 39       		.byte	57
 2844 010e 3C       		.byte	60
 2845 010f 4A       		.byte	74
 2846 0110 49       		.byte	73
 2847 0111 49       		.byte	73
 2848 0112 31       		.byte	49
 2849 0113 41       		.byte	65
 2850 0114 21       		.byte	33
 2851 0115 11       		.byte	17
 2852 0116 09       		.byte	9
 2853 0117 07       		.byte	7
 2854 0118 36       		.byte	54
 2855 0119 49       		.byte	73
 2856 011a 49       		.byte	73
 2857 011b 49       		.byte	73
 2858 011c 36       		.byte	54
 2859 011d 46       		.byte	70
 2860 011e 49       		.byte	73
 2861 011f 49       		.byte	73
 2862 0120 29       		.byte	41
 2863 0121 1E       		.byte	30
 2864 0122 00       		.byte	0
 2865 0123 00       		.byte	0
 2866 0124 14       		.byte	20
 2867 0125 00       		.byte	0
 2868 0126 00       		.byte	0
 2869 0127 00       		.byte	0
 2870 0128 40       		.byte	64
 2871 0129 34       		.byte	52
 2872 012a 00       		.byte	0
 2873 012b 00       		.byte	0
 2874 012c 00       		.byte	0
 2875 012d 08       		.byte	8
 2876 012e 14       		.byte	20
 2877 012f 22       		.byte	34
 2878 0130 41       		.byte	65
 2879 0131 14       		.byte	20
ARM GAS  C:\Users\Besitzer\AppData\Local\Temp\cczB0neC.s 			page 73


 2880 0132 14       		.byte	20
 2881 0133 14       		.byte	20
 2882 0134 14       		.byte	20
 2883 0135 14       		.byte	20
 2884 0136 00       		.byte	0
 2885 0137 41       		.byte	65
 2886 0138 22       		.byte	34
 2887 0139 14       		.byte	20
 2888 013a 08       		.byte	8
 2889 013b 02       		.byte	2
 2890 013c 01       		.byte	1
 2891 013d 59       		.byte	89
 2892 013e 09       		.byte	9
 2893 013f 06       		.byte	6
 2894 0140 3E       		.byte	62
 2895 0141 41       		.byte	65
 2896 0142 5D       		.byte	93
 2897 0143 59       		.byte	89
 2898 0144 4E       		.byte	78
 2899 0145 7C       		.byte	124
 2900 0146 12       		.byte	18
 2901 0147 11       		.byte	17
 2902 0148 12       		.byte	18
 2903 0149 7C       		.byte	124
 2904 014a 7F       		.byte	127
 2905 014b 49       		.byte	73
 2906 014c 49       		.byte	73
 2907 014d 49       		.byte	73
 2908 014e 36       		.byte	54
 2909 014f 3E       		.byte	62
 2910 0150 41       		.byte	65
 2911 0151 41       		.byte	65
 2912 0152 41       		.byte	65
 2913 0153 22       		.byte	34
 2914 0154 7F       		.byte	127
 2915 0155 41       		.byte	65
 2916 0156 41       		.byte	65
 2917 0157 41       		.byte	65
 2918 0158 3E       		.byte	62
 2919 0159 7F       		.byte	127
 2920 015a 49       		.byte	73
 2921 015b 49       		.byte	73
 2922 015c 49       		.byte	73
 2923 015d 41       		.byte	65
 2924 015e 7F       		.byte	127
 2925 015f 09       		.byte	9
 2926 0160 09       		.byte	9
 2927 0161 09       		.byte	9
 2928 0162 01       		.byte	1
 2929 0163 3E       		.byte	62
 2930 0164 41       		.byte	65
 2931 0165 41       		.byte	65
 2932 0166 51       		.byte	81
 2933 0167 73       		.byte	115
 2934 0168 7F       		.byte	127
 2935 0169 08       		.byte	8
 2936 016a 08       		.byte	8
ARM GAS  C:\Users\Besitzer\AppData\Local\Temp\cczB0neC.s 			page 74


 2937 016b 08       		.byte	8
 2938 016c 7F       		.byte	127
 2939 016d 00       		.byte	0
 2940 016e 41       		.byte	65
 2941 016f 7F       		.byte	127
 2942 0170 41       		.byte	65
 2943 0171 00       		.byte	0
 2944 0172 20       		.byte	32
 2945 0173 40       		.byte	64
 2946 0174 41       		.byte	65
 2947 0175 3F       		.byte	63
 2948 0176 01       		.byte	1
 2949 0177 7F       		.byte	127
 2950 0178 08       		.byte	8
 2951 0179 14       		.byte	20
 2952 017a 22       		.byte	34
 2953 017b 41       		.byte	65
 2954 017c 7F       		.byte	127
 2955 017d 40       		.byte	64
 2956 017e 40       		.byte	64
 2957 017f 40       		.byte	64
 2958 0180 40       		.byte	64
 2959 0181 7F       		.byte	127
 2960 0182 02       		.byte	2
 2961 0183 1C       		.byte	28
 2962 0184 02       		.byte	2
 2963 0185 7F       		.byte	127
 2964 0186 7F       		.byte	127
 2965 0187 04       		.byte	4
 2966 0188 08       		.byte	8
 2967 0189 10       		.byte	16
 2968 018a 7F       		.byte	127
 2969 018b 3E       		.byte	62
 2970 018c 41       		.byte	65
 2971 018d 41       		.byte	65
 2972 018e 41       		.byte	65
 2973 018f 3E       		.byte	62
 2974 0190 7F       		.byte	127
 2975 0191 09       		.byte	9
 2976 0192 09       		.byte	9
 2977 0193 09       		.byte	9
 2978 0194 06       		.byte	6
 2979 0195 3E       		.byte	62
 2980 0196 41       		.byte	65
 2981 0197 51       		.byte	81
 2982 0198 21       		.byte	33
 2983 0199 5E       		.byte	94
 2984 019a 7F       		.byte	127
 2985 019b 09       		.byte	9
 2986 019c 19       		.byte	25
 2987 019d 29       		.byte	41
 2988 019e 46       		.byte	70
 2989 019f 26       		.byte	38
 2990 01a0 49       		.byte	73
 2991 01a1 49       		.byte	73
 2992 01a2 49       		.byte	73
 2993 01a3 32       		.byte	50
ARM GAS  C:\Users\Besitzer\AppData\Local\Temp\cczB0neC.s 			page 75


 2994 01a4 03       		.byte	3
 2995 01a5 01       		.byte	1
 2996 01a6 7F       		.byte	127
 2997 01a7 01       		.byte	1
 2998 01a8 03       		.byte	3
 2999 01a9 3F       		.byte	63
 3000 01aa 40       		.byte	64
 3001 01ab 40       		.byte	64
 3002 01ac 40       		.byte	64
 3003 01ad 3F       		.byte	63
 3004 01ae 1F       		.byte	31
 3005 01af 20       		.byte	32
 3006 01b0 40       		.byte	64
 3007 01b1 20       		.byte	32
 3008 01b2 1F       		.byte	31
 3009 01b3 3F       		.byte	63
 3010 01b4 40       		.byte	64
 3011 01b5 38       		.byte	56
 3012 01b6 40       		.byte	64
 3013 01b7 3F       		.byte	63
 3014 01b8 63       		.byte	99
 3015 01b9 14       		.byte	20
 3016 01ba 08       		.byte	8
 3017 01bb 14       		.byte	20
 3018 01bc 63       		.byte	99
 3019 01bd 03       		.byte	3
 3020 01be 04       		.byte	4
 3021 01bf 78       		.byte	120
 3022 01c0 04       		.byte	4
 3023 01c1 03       		.byte	3
 3024 01c2 61       		.byte	97
 3025 01c3 59       		.byte	89
 3026 01c4 49       		.byte	73
 3027 01c5 4D       		.byte	77
 3028 01c6 43       		.byte	67
 3029 01c7 00       		.byte	0
 3030 01c8 7F       		.byte	127
 3031 01c9 41       		.byte	65
 3032 01ca 41       		.byte	65
 3033 01cb 41       		.byte	65
 3034 01cc 02       		.byte	2
 3035 01cd 04       		.byte	4
 3036 01ce 08       		.byte	8
 3037 01cf 10       		.byte	16
 3038 01d0 20       		.byte	32
 3039 01d1 00       		.byte	0
 3040 01d2 41       		.byte	65
 3041 01d3 41       		.byte	65
 3042 01d4 41       		.byte	65
 3043 01d5 7F       		.byte	127
 3044 01d6 04       		.byte	4
 3045 01d7 02       		.byte	2
 3046 01d8 01       		.byte	1
 3047 01d9 02       		.byte	2
 3048 01da 04       		.byte	4
 3049 01db 40       		.byte	64
 3050 01dc 40       		.byte	64
ARM GAS  C:\Users\Besitzer\AppData\Local\Temp\cczB0neC.s 			page 76


 3051 01dd 40       		.byte	64
 3052 01de 40       		.byte	64
 3053 01df 40       		.byte	64
 3054 01e0 00       		.byte	0
 3055 01e1 03       		.byte	3
 3056 01e2 07       		.byte	7
 3057 01e3 08       		.byte	8
 3058 01e4 00       		.byte	0
 3059 01e5 20       		.byte	32
 3060 01e6 54       		.byte	84
 3061 01e7 54       		.byte	84
 3062 01e8 78       		.byte	120
 3063 01e9 40       		.byte	64
 3064 01ea 7F       		.byte	127
 3065 01eb 28       		.byte	40
 3066 01ec 44       		.byte	68
 3067 01ed 44       		.byte	68
 3068 01ee 38       		.byte	56
 3069 01ef 38       		.byte	56
 3070 01f0 44       		.byte	68
 3071 01f1 44       		.byte	68
 3072 01f2 44       		.byte	68
 3073 01f3 28       		.byte	40
 3074 01f4 38       		.byte	56
 3075 01f5 44       		.byte	68
 3076 01f6 44       		.byte	68
 3077 01f7 28       		.byte	40
 3078 01f8 7F       		.byte	127
 3079 01f9 38       		.byte	56
 3080 01fa 54       		.byte	84
 3081 01fb 54       		.byte	84
 3082 01fc 54       		.byte	84
 3083 01fd 18       		.byte	24
 3084 01fe 00       		.byte	0
 3085 01ff 08       		.byte	8
 3086 0200 7E       		.byte	126
 3087 0201 09       		.byte	9
 3088 0202 02       		.byte	2
 3089 0203 18       		.byte	24
 3090 0204 A4       		.byte	-92
 3091 0205 A4       		.byte	-92
 3092 0206 9C       		.byte	-100
 3093 0207 78       		.byte	120
 3094 0208 7F       		.byte	127
 3095 0209 08       		.byte	8
 3096 020a 04       		.byte	4
 3097 020b 04       		.byte	4
 3098 020c 78       		.byte	120
 3099 020d 00       		.byte	0
 3100 020e 44       		.byte	68
 3101 020f 7D       		.byte	125
 3102 0210 40       		.byte	64
 3103 0211 00       		.byte	0
 3104 0212 20       		.byte	32
 3105 0213 40       		.byte	64
 3106 0214 40       		.byte	64
 3107 0215 3D       		.byte	61
ARM GAS  C:\Users\Besitzer\AppData\Local\Temp\cczB0neC.s 			page 77


 3108 0216 00       		.byte	0
 3109 0217 7F       		.byte	127
 3110 0218 10       		.byte	16
 3111 0219 28       		.byte	40
 3112 021a 44       		.byte	68
 3113 021b 00       		.byte	0
 3114 021c 00       		.byte	0
 3115 021d 41       		.byte	65
 3116 021e 7F       		.byte	127
 3117 021f 40       		.byte	64
 3118 0220 00       		.byte	0
 3119 0221 7C       		.byte	124
 3120 0222 04       		.byte	4
 3121 0223 78       		.byte	120
 3122 0224 04       		.byte	4
 3123 0225 78       		.byte	120
 3124 0226 7C       		.byte	124
 3125 0227 08       		.byte	8
 3126 0228 04       		.byte	4
 3127 0229 04       		.byte	4
 3128 022a 78       		.byte	120
 3129 022b 38       		.byte	56
 3130 022c 44       		.byte	68
 3131 022d 44       		.byte	68
 3132 022e 44       		.byte	68
 3133 022f 38       		.byte	56
 3134 0230 FC       		.byte	-4
 3135 0231 18       		.byte	24
 3136 0232 24       		.byte	36
 3137 0233 24       		.byte	36
 3138 0234 18       		.byte	24
 3139 0235 18       		.byte	24
 3140 0236 24       		.byte	36
 3141 0237 24       		.byte	36
 3142 0238 18       		.byte	24
 3143 0239 FC       		.byte	-4
 3144 023a 7C       		.byte	124
 3145 023b 08       		.byte	8
 3146 023c 04       		.byte	4
 3147 023d 04       		.byte	4
 3148 023e 08       		.byte	8
 3149 023f 48       		.byte	72
 3150 0240 54       		.byte	84
 3151 0241 54       		.byte	84
 3152 0242 54       		.byte	84
 3153 0243 24       		.byte	36
 3154 0244 04       		.byte	4
 3155 0245 04       		.byte	4
 3156 0246 3F       		.byte	63
 3157 0247 44       		.byte	68
 3158 0248 24       		.byte	36
 3159 0249 3C       		.byte	60
 3160 024a 40       		.byte	64
 3161 024b 40       		.byte	64
 3162 024c 20       		.byte	32
 3163 024d 7C       		.byte	124
 3164 024e 1C       		.byte	28
ARM GAS  C:\Users\Besitzer\AppData\Local\Temp\cczB0neC.s 			page 78


 3165 024f 20       		.byte	32
 3166 0250 40       		.byte	64
 3167 0251 20       		.byte	32
 3168 0252 1C       		.byte	28
 3169 0253 3C       		.byte	60
 3170 0254 40       		.byte	64
 3171 0255 30       		.byte	48
 3172 0256 40       		.byte	64
 3173 0257 3C       		.byte	60
 3174 0258 44       		.byte	68
 3175 0259 28       		.byte	40
 3176 025a 10       		.byte	16
 3177 025b 28       		.byte	40
 3178 025c 44       		.byte	68
 3179 025d 4C       		.byte	76
 3180 025e 90       		.byte	-112
 3181 025f 90       		.byte	-112
 3182 0260 90       		.byte	-112
 3183 0261 7C       		.byte	124
 3184 0262 44       		.byte	68
 3185 0263 64       		.byte	100
 3186 0264 54       		.byte	84
 3187 0265 4C       		.byte	76
 3188 0266 44       		.byte	68
 3189 0267 00       		.byte	0
 3190 0268 08       		.byte	8
 3191 0269 36       		.byte	54
 3192 026a 41       		.byte	65
 3193 026b 00       		.byte	0
 3194 026c 00       		.byte	0
 3195 026d 00       		.byte	0
 3196 026e 77       		.byte	119
 3197 026f 00       		.byte	0
 3198 0270 00       		.byte	0
 3199 0271 00       		.byte	0
 3200 0272 41       		.byte	65
 3201 0273 36       		.byte	54
 3202 0274 08       		.byte	8
 3203 0275 00       		.byte	0
 3204 0276 02       		.byte	2
 3205 0277 01       		.byte	1
 3206 0278 02       		.byte	2
 3207 0279 04       		.byte	4
 3208 027a 02       		.byte	2
 3209 027b 3C       		.byte	60
 3210 027c 26       		.byte	38
 3211 027d 23       		.byte	35
 3212 027e 26       		.byte	38
 3213 027f 3C       		.byte	60
 3214 0280 1E       		.byte	30
 3215 0281 A1       		.byte	-95
 3216 0282 A1       		.byte	-95
 3217 0283 61       		.byte	97
 3218 0284 12       		.byte	18
 3219 0285 3A       		.byte	58
 3220 0286 40       		.byte	64
 3221 0287 40       		.byte	64
ARM GAS  C:\Users\Besitzer\AppData\Local\Temp\cczB0neC.s 			page 79


 3222 0288 20       		.byte	32
 3223 0289 7A       		.byte	122
 3224 028a 38       		.byte	56
 3225 028b 54       		.byte	84
 3226 028c 54       		.byte	84
 3227 028d 55       		.byte	85
 3228 028e 59       		.byte	89
 3229 028f 21       		.byte	33
 3230 0290 55       		.byte	85
 3231 0291 55       		.byte	85
 3232 0292 79       		.byte	121
 3233 0293 41       		.byte	65
 3234 0294 22       		.byte	34
 3235 0295 54       		.byte	84
 3236 0296 54       		.byte	84
 3237 0297 78       		.byte	120
 3238 0298 42       		.byte	66
 3239 0299 21       		.byte	33
 3240 029a 55       		.byte	85
 3241 029b 54       		.byte	84
 3242 029c 78       		.byte	120
 3243 029d 40       		.byte	64
 3244 029e 20       		.byte	32
 3245 029f 54       		.byte	84
 3246 02a0 55       		.byte	85
 3247 02a1 79       		.byte	121
 3248 02a2 40       		.byte	64
 3249 02a3 0C       		.byte	12
 3250 02a4 1E       		.byte	30
 3251 02a5 52       		.byte	82
 3252 02a6 72       		.byte	114
 3253 02a7 12       		.byte	18
 3254 02a8 39       		.byte	57
 3255 02a9 55       		.byte	85
 3256 02aa 55       		.byte	85
 3257 02ab 55       		.byte	85
 3258 02ac 59       		.byte	89
 3259 02ad 39       		.byte	57
 3260 02ae 54       		.byte	84
 3261 02af 54       		.byte	84
 3262 02b0 54       		.byte	84
 3263 02b1 59       		.byte	89
 3264 02b2 39       		.byte	57
 3265 02b3 55       		.byte	85
 3266 02b4 54       		.byte	84
 3267 02b5 54       		.byte	84
 3268 02b6 58       		.byte	88
 3269 02b7 00       		.byte	0
 3270 02b8 00       		.byte	0
 3271 02b9 45       		.byte	69
 3272 02ba 7C       		.byte	124
 3273 02bb 41       		.byte	65
 3274 02bc 00       		.byte	0
 3275 02bd 02       		.byte	2
 3276 02be 45       		.byte	69
 3277 02bf 7D       		.byte	125
 3278 02c0 42       		.byte	66
ARM GAS  C:\Users\Besitzer\AppData\Local\Temp\cczB0neC.s 			page 80


 3279 02c1 00       		.byte	0
 3280 02c2 01       		.byte	1
 3281 02c3 45       		.byte	69
 3282 02c4 7C       		.byte	124
 3283 02c5 40       		.byte	64
 3284 02c6 7D       		.byte	125
 3285 02c7 12       		.byte	18
 3286 02c8 11       		.byte	17
 3287 02c9 12       		.byte	18
 3288 02ca 7D       		.byte	125
 3289 02cb F0       		.byte	-16
 3290 02cc 28       		.byte	40
 3291 02cd 25       		.byte	37
 3292 02ce 28       		.byte	40
 3293 02cf F0       		.byte	-16
 3294 02d0 7C       		.byte	124
 3295 02d1 54       		.byte	84
 3296 02d2 55       		.byte	85
 3297 02d3 45       		.byte	69
 3298 02d4 00       		.byte	0
 3299 02d5 20       		.byte	32
 3300 02d6 54       		.byte	84
 3301 02d7 54       		.byte	84
 3302 02d8 7C       		.byte	124
 3303 02d9 54       		.byte	84
 3304 02da 7C       		.byte	124
 3305 02db 0A       		.byte	10
 3306 02dc 09       		.byte	9
 3307 02dd 7F       		.byte	127
 3308 02de 49       		.byte	73
 3309 02df 32       		.byte	50
 3310 02e0 49       		.byte	73
 3311 02e1 49       		.byte	73
 3312 02e2 49       		.byte	73
 3313 02e3 32       		.byte	50
 3314 02e4 3A       		.byte	58
 3315 02e5 44       		.byte	68
 3316 02e6 44       		.byte	68
 3317 02e7 44       		.byte	68
 3318 02e8 3A       		.byte	58
 3319 02e9 32       		.byte	50
 3320 02ea 4A       		.byte	74
 3321 02eb 48       		.byte	72
 3322 02ec 48       		.byte	72
 3323 02ed 30       		.byte	48
 3324 02ee 3A       		.byte	58
 3325 02ef 41       		.byte	65
 3326 02f0 41       		.byte	65
 3327 02f1 21       		.byte	33
 3328 02f2 7A       		.byte	122
 3329 02f3 3A       		.byte	58
 3330 02f4 42       		.byte	66
 3331 02f5 40       		.byte	64
 3332 02f6 20       		.byte	32
 3333 02f7 78       		.byte	120
 3334 02f8 00       		.byte	0
 3335 02f9 9D       		.byte	-99
ARM GAS  C:\Users\Besitzer\AppData\Local\Temp\cczB0neC.s 			page 81


 3336 02fa A0       		.byte	-96
 3337 02fb A0       		.byte	-96
 3338 02fc 7D       		.byte	125
 3339 02fd 3D       		.byte	61
 3340 02fe 42       		.byte	66
 3341 02ff 42       		.byte	66
 3342 0300 42       		.byte	66
 3343 0301 3D       		.byte	61
 3344 0302 3D       		.byte	61
 3345 0303 40       		.byte	64
 3346 0304 40       		.byte	64
 3347 0305 40       		.byte	64
 3348 0306 3D       		.byte	61
 3349 0307 3C       		.byte	60
 3350 0308 24       		.byte	36
 3351 0309 FF       		.byte	-1
 3352 030a 24       		.byte	36
 3353 030b 24       		.byte	36
 3354 030c 48       		.byte	72
 3355 030d 7E       		.byte	126
 3356 030e 49       		.byte	73
 3357 030f 43       		.byte	67
 3358 0310 66       		.byte	102
 3359 0311 2B       		.byte	43
 3360 0312 2F       		.byte	47
 3361 0313 FC       		.byte	-4
 3362 0314 2F       		.byte	47
 3363 0315 2B       		.byte	43
 3364 0316 FF       		.byte	-1
 3365 0317 09       		.byte	9
 3366 0318 29       		.byte	41
 3367 0319 F6       		.byte	-10
 3368 031a 20       		.byte	32
 3369 031b C0       		.byte	-64
 3370 031c 88       		.byte	-120
 3371 031d 7E       		.byte	126
 3372 031e 09       		.byte	9
 3373 031f 03       		.byte	3
 3374 0320 20       		.byte	32
 3375 0321 54       		.byte	84
 3376 0322 54       		.byte	84
 3377 0323 79       		.byte	121
 3378 0324 41       		.byte	65
 3379 0325 00       		.byte	0
 3380 0326 00       		.byte	0
 3381 0327 44       		.byte	68
 3382 0328 7D       		.byte	125
 3383 0329 41       		.byte	65
 3384 032a 30       		.byte	48
 3385 032b 48       		.byte	72
 3386 032c 48       		.byte	72
 3387 032d 4A       		.byte	74
 3388 032e 32       		.byte	50
 3389 032f 38       		.byte	56
 3390 0330 40       		.byte	64
 3391 0331 40       		.byte	64
 3392 0332 22       		.byte	34
ARM GAS  C:\Users\Besitzer\AppData\Local\Temp\cczB0neC.s 			page 82


 3393 0333 7A       		.byte	122
 3394 0334 00       		.byte	0
 3395 0335 7A       		.byte	122
 3396 0336 0A       		.byte	10
 3397 0337 0A       		.byte	10
 3398 0338 72       		.byte	114
 3399 0339 7D       		.byte	125
 3400 033a 0D       		.byte	13
 3401 033b 19       		.byte	25
 3402 033c 31       		.byte	49
 3403 033d 7D       		.byte	125
 3404 033e 26       		.byte	38
 3405 033f 29       		.byte	41
 3406 0340 29       		.byte	41
 3407 0341 2F       		.byte	47
 3408 0342 28       		.byte	40
 3409 0343 26       		.byte	38
 3410 0344 29       		.byte	41
 3411 0345 29       		.byte	41
 3412 0346 29       		.byte	41
 3413 0347 26       		.byte	38
 3414 0348 30       		.byte	48
 3415 0349 48       		.byte	72
 3416 034a 4D       		.byte	77
 3417 034b 40       		.byte	64
 3418 034c 20       		.byte	32
 3419 034d 38       		.byte	56
 3420 034e 08       		.byte	8
 3421 034f 08       		.byte	8
 3422 0350 08       		.byte	8
 3423 0351 08       		.byte	8
 3424 0352 08       		.byte	8
 3425 0353 08       		.byte	8
 3426 0354 08       		.byte	8
 3427 0355 08       		.byte	8
 3428 0356 38       		.byte	56
 3429 0357 2F       		.byte	47
 3430 0358 10       		.byte	16
 3431 0359 C8       		.byte	-56
 3432 035a AC       		.byte	-84
 3433 035b BA       		.byte	-70
 3434 035c 2F       		.byte	47
 3435 035d 10       		.byte	16
 3436 035e 28       		.byte	40
 3437 035f 34       		.byte	52
 3438 0360 FA       		.byte	-6
 3439 0361 00       		.byte	0
 3440 0362 00       		.byte	0
 3441 0363 7B       		.byte	123
 3442 0364 00       		.byte	0
 3443 0365 00       		.byte	0
 3444 0366 08       		.byte	8
 3445 0367 14       		.byte	20
 3446 0368 2A       		.byte	42
 3447 0369 14       		.byte	20
 3448 036a 22       		.byte	34
 3449 036b 22       		.byte	34
ARM GAS  C:\Users\Besitzer\AppData\Local\Temp\cczB0neC.s 			page 83


 3450 036c 14       		.byte	20
 3451 036d 2A       		.byte	42
 3452 036e 14       		.byte	20
 3453 036f 08       		.byte	8
 3454 0370 AA       		.byte	-86
 3455 0371 00       		.byte	0
 3456 0372 55       		.byte	85
 3457 0373 00       		.byte	0
 3458 0374 AA       		.byte	-86
 3459 0375 AA       		.byte	-86
 3460 0376 55       		.byte	85
 3461 0377 AA       		.byte	-86
 3462 0378 55       		.byte	85
 3463 0379 AA       		.byte	-86
 3464 037a 00       		.byte	0
 3465 037b 00       		.byte	0
 3466 037c 00       		.byte	0
 3467 037d FF       		.byte	-1
 3468 037e 00       		.byte	0
 3469 037f 10       		.byte	16
 3470 0380 10       		.byte	16
 3471 0381 10       		.byte	16
 3472 0382 FF       		.byte	-1
 3473 0383 00       		.byte	0
 3474 0384 14       		.byte	20
 3475 0385 14       		.byte	20
 3476 0386 14       		.byte	20
 3477 0387 FF       		.byte	-1
 3478 0388 00       		.byte	0
 3479 0389 10       		.byte	16
 3480 038a 10       		.byte	16
 3481 038b FF       		.byte	-1
 3482 038c 00       		.byte	0
 3483 038d FF       		.byte	-1
 3484 038e 10       		.byte	16
 3485 038f 10       		.byte	16
 3486 0390 F0       		.byte	-16
 3487 0391 10       		.byte	16
 3488 0392 F0       		.byte	-16
 3489 0393 14       		.byte	20
 3490 0394 14       		.byte	20
 3491 0395 14       		.byte	20
 3492 0396 FC       		.byte	-4
 3493 0397 00       		.byte	0
 3494 0398 14       		.byte	20
 3495 0399 14       		.byte	20
 3496 039a F7       		.byte	-9
 3497 039b 00       		.byte	0
 3498 039c FF       		.byte	-1
 3499 039d 00       		.byte	0
 3500 039e 00       		.byte	0
 3501 039f FF       		.byte	-1
 3502 03a0 00       		.byte	0
 3503 03a1 FF       		.byte	-1
 3504 03a2 14       		.byte	20
 3505 03a3 14       		.byte	20
 3506 03a4 F4       		.byte	-12
ARM GAS  C:\Users\Besitzer\AppData\Local\Temp\cczB0neC.s 			page 84


 3507 03a5 04       		.byte	4
 3508 03a6 FC       		.byte	-4
 3509 03a7 14       		.byte	20
 3510 03a8 14       		.byte	20
 3511 03a9 17       		.byte	23
 3512 03aa 10       		.byte	16
 3513 03ab 1F       		.byte	31
 3514 03ac 10       		.byte	16
 3515 03ad 10       		.byte	16
 3516 03ae 1F       		.byte	31
 3517 03af 10       		.byte	16
 3518 03b0 1F       		.byte	31
 3519 03b1 14       		.byte	20
 3520 03b2 14       		.byte	20
 3521 03b3 14       		.byte	20
 3522 03b4 1F       		.byte	31
 3523 03b5 00       		.byte	0
 3524 03b6 10       		.byte	16
 3525 03b7 10       		.byte	16
 3526 03b8 10       		.byte	16
 3527 03b9 F0       		.byte	-16
 3528 03ba 00       		.byte	0
 3529 03bb 00       		.byte	0
 3530 03bc 00       		.byte	0
 3531 03bd 00       		.byte	0
 3532 03be 1F       		.byte	31
 3533 03bf 10       		.byte	16
 3534 03c0 10       		.byte	16
 3535 03c1 10       		.byte	16
 3536 03c2 10       		.byte	16
 3537 03c3 1F       		.byte	31
 3538 03c4 10       		.byte	16
 3539 03c5 10       		.byte	16
 3540 03c6 10       		.byte	16
 3541 03c7 10       		.byte	16
 3542 03c8 F0       		.byte	-16
 3543 03c9 10       		.byte	16
 3544 03ca 00       		.byte	0
 3545 03cb 00       		.byte	0
 3546 03cc 00       		.byte	0
 3547 03cd FF       		.byte	-1
 3548 03ce 10       		.byte	16
 3549 03cf 10       		.byte	16
 3550 03d0 10       		.byte	16
 3551 03d1 10       		.byte	16
 3552 03d2 10       		.byte	16
 3553 03d3 10       		.byte	16
 3554 03d4 10       		.byte	16
 3555 03d5 10       		.byte	16
 3556 03d6 10       		.byte	16
 3557 03d7 FF       		.byte	-1
 3558 03d8 10       		.byte	16
 3559 03d9 00       		.byte	0
 3560 03da 00       		.byte	0
 3561 03db 00       		.byte	0
 3562 03dc FF       		.byte	-1
 3563 03dd 14       		.byte	20
ARM GAS  C:\Users\Besitzer\AppData\Local\Temp\cczB0neC.s 			page 85


 3564 03de 00       		.byte	0
 3565 03df 00       		.byte	0
 3566 03e0 FF       		.byte	-1
 3567 03e1 00       		.byte	0
 3568 03e2 FF       		.byte	-1
 3569 03e3 00       		.byte	0
 3570 03e4 00       		.byte	0
 3571 03e5 1F       		.byte	31
 3572 03e6 10       		.byte	16
 3573 03e7 17       		.byte	23
 3574 03e8 00       		.byte	0
 3575 03e9 00       		.byte	0
 3576 03ea FC       		.byte	-4
 3577 03eb 04       		.byte	4
 3578 03ec F4       		.byte	-12
 3579 03ed 14       		.byte	20
 3580 03ee 14       		.byte	20
 3581 03ef 17       		.byte	23
 3582 03f0 10       		.byte	16
 3583 03f1 17       		.byte	23
 3584 03f2 14       		.byte	20
 3585 03f3 14       		.byte	20
 3586 03f4 F4       		.byte	-12
 3587 03f5 04       		.byte	4
 3588 03f6 F4       		.byte	-12
 3589 03f7 00       		.byte	0
 3590 03f8 00       		.byte	0
 3591 03f9 FF       		.byte	-1
 3592 03fa 00       		.byte	0
 3593 03fb F7       		.byte	-9
 3594 03fc 14       		.byte	20
 3595 03fd 14       		.byte	20
 3596 03fe 14       		.byte	20
 3597 03ff 14       		.byte	20
 3598 0400 14       		.byte	20
 3599 0401 14       		.byte	20
 3600 0402 14       		.byte	20
 3601 0403 F7       		.byte	-9
 3602 0404 00       		.byte	0
 3603 0405 F7       		.byte	-9
 3604 0406 14       		.byte	20
 3605 0407 14       		.byte	20
 3606 0408 14       		.byte	20
 3607 0409 17       		.byte	23
 3608 040a 14       		.byte	20
 3609 040b 10       		.byte	16
 3610 040c 10       		.byte	16
 3611 040d 1F       		.byte	31
 3612 040e 10       		.byte	16
 3613 040f 1F       		.byte	31
 3614 0410 14       		.byte	20
 3615 0411 14       		.byte	20
 3616 0412 14       		.byte	20
 3617 0413 F4       		.byte	-12
 3618 0414 14       		.byte	20
 3619 0415 10       		.byte	16
 3620 0416 10       		.byte	16
ARM GAS  C:\Users\Besitzer\AppData\Local\Temp\cczB0neC.s 			page 86


 3621 0417 F0       		.byte	-16
 3622 0418 10       		.byte	16
 3623 0419 F0       		.byte	-16
 3624 041a 00       		.byte	0
 3625 041b 00       		.byte	0
 3626 041c 1F       		.byte	31
 3627 041d 10       		.byte	16
 3628 041e 1F       		.byte	31
 3629 041f 00       		.byte	0
 3630 0420 00       		.byte	0
 3631 0421 00       		.byte	0
 3632 0422 1F       		.byte	31
 3633 0423 14       		.byte	20
 3634 0424 00       		.byte	0
 3635 0425 00       		.byte	0
 3636 0426 00       		.byte	0
 3637 0427 FC       		.byte	-4
 3638 0428 14       		.byte	20
 3639 0429 00       		.byte	0
 3640 042a 00       		.byte	0
 3641 042b F0       		.byte	-16
 3642 042c 10       		.byte	16
 3643 042d F0       		.byte	-16
 3644 042e 10       		.byte	16
 3645 042f 10       		.byte	16
 3646 0430 FF       		.byte	-1
 3647 0431 10       		.byte	16
 3648 0432 FF       		.byte	-1
 3649 0433 14       		.byte	20
 3650 0434 14       		.byte	20
 3651 0435 14       		.byte	20
 3652 0436 FF       		.byte	-1
 3653 0437 14       		.byte	20
 3654 0438 10       		.byte	16
 3655 0439 10       		.byte	16
 3656 043a 10       		.byte	16
 3657 043b 1F       		.byte	31
 3658 043c 00       		.byte	0
 3659 043d 00       		.byte	0
 3660 043e 00       		.byte	0
 3661 043f 00       		.byte	0
 3662 0440 F0       		.byte	-16
 3663 0441 10       		.byte	16
 3664 0442 FF       		.byte	-1
 3665 0443 FF       		.byte	-1
 3666 0444 FF       		.byte	-1
 3667 0445 FF       		.byte	-1
 3668 0446 FF       		.byte	-1
 3669 0447 F0       		.byte	-16
 3670 0448 F0       		.byte	-16
 3671 0449 F0       		.byte	-16
 3672 044a F0       		.byte	-16
 3673 044b F0       		.byte	-16
 3674 044c FF       		.byte	-1
 3675 044d FF       		.byte	-1
 3676 044e FF       		.byte	-1
 3677 044f 00       		.byte	0
ARM GAS  C:\Users\Besitzer\AppData\Local\Temp\cczB0neC.s 			page 87


 3678 0450 00       		.byte	0
 3679 0451 00       		.byte	0
 3680 0452 00       		.byte	0
 3681 0453 00       		.byte	0
 3682 0454 FF       		.byte	-1
 3683 0455 FF       		.byte	-1
 3684 0456 0F       		.byte	15
 3685 0457 0F       		.byte	15
 3686 0458 0F       		.byte	15
 3687 0459 0F       		.byte	15
 3688 045a 0F       		.byte	15
 3689 045b 38       		.byte	56
 3690 045c 44       		.byte	68
 3691 045d 44       		.byte	68
 3692 045e 38       		.byte	56
 3693 045f 44       		.byte	68
 3694 0460 FC       		.byte	-4
 3695 0461 4A       		.byte	74
 3696 0462 4A       		.byte	74
 3697 0463 4A       		.byte	74
 3698 0464 34       		.byte	52
 3699 0465 7E       		.byte	126
 3700 0466 02       		.byte	2
 3701 0467 02       		.byte	2
 3702 0468 06       		.byte	6
 3703 0469 06       		.byte	6
 3704 046a 02       		.byte	2
 3705 046b 7E       		.byte	126
 3706 046c 02       		.byte	2
 3707 046d 7E       		.byte	126
 3708 046e 02       		.byte	2
 3709 046f 63       		.byte	99
 3710 0470 55       		.byte	85
 3711 0471 49       		.byte	73
 3712 0472 41       		.byte	65
 3713 0473 63       		.byte	99
 3714 0474 38       		.byte	56
 3715 0475 44       		.byte	68
 3716 0476 44       		.byte	68
 3717 0477 3C       		.byte	60
 3718 0478 04       		.byte	4
 3719 0479 40       		.byte	64
 3720 047a 7E       		.byte	126
 3721 047b 20       		.byte	32
 3722 047c 1E       		.byte	30
 3723 047d 20       		.byte	32
 3724 047e 06       		.byte	6
 3725 047f 02       		.byte	2
 3726 0480 7E       		.byte	126
 3727 0481 02       		.byte	2
 3728 0482 02       		.byte	2
 3729 0483 99       		.byte	-103
 3730 0484 A5       		.byte	-91
 3731 0485 E7       		.byte	-25
 3732 0486 A5       		.byte	-91
 3733 0487 99       		.byte	-103
 3734 0488 1C       		.byte	28
ARM GAS  C:\Users\Besitzer\AppData\Local\Temp\cczB0neC.s 			page 88


 3735 0489 2A       		.byte	42
 3736 048a 49       		.byte	73
 3737 048b 2A       		.byte	42
 3738 048c 1C       		.byte	28
 3739 048d 4C       		.byte	76
 3740 048e 72       		.byte	114
 3741 048f 01       		.byte	1
 3742 0490 72       		.byte	114
 3743 0491 4C       		.byte	76
 3744 0492 30       		.byte	48
 3745 0493 4A       		.byte	74
 3746 0494 4D       		.byte	77
 3747 0495 4D       		.byte	77
 3748 0496 30       		.byte	48
 3749 0497 30       		.byte	48
 3750 0498 48       		.byte	72
 3751 0499 78       		.byte	120
 3752 049a 48       		.byte	72
 3753 049b 30       		.byte	48
 3754 049c BC       		.byte	-68
 3755 049d 62       		.byte	98
 3756 049e 5A       		.byte	90
 3757 049f 46       		.byte	70
 3758 04a0 3D       		.byte	61
 3759 04a1 3E       		.byte	62
 3760 04a2 49       		.byte	73
 3761 04a3 49       		.byte	73
 3762 04a4 49       		.byte	73
 3763 04a5 00       		.byte	0
 3764 04a6 7E       		.byte	126
 3765 04a7 01       		.byte	1
 3766 04a8 01       		.byte	1
 3767 04a9 01       		.byte	1
 3768 04aa 7E       		.byte	126
 3769 04ab 2A       		.byte	42
 3770 04ac 2A       		.byte	42
 3771 04ad 2A       		.byte	42
 3772 04ae 2A       		.byte	42
 3773 04af 2A       		.byte	42
 3774 04b0 44       		.byte	68
 3775 04b1 44       		.byte	68
 3776 04b2 5F       		.byte	95
 3777 04b3 44       		.byte	68
 3778 04b4 44       		.byte	68
 3779 04b5 40       		.byte	64
 3780 04b6 51       		.byte	81
 3781 04b7 4A       		.byte	74
 3782 04b8 44       		.byte	68
 3783 04b9 40       		.byte	64
 3784 04ba 40       		.byte	64
 3785 04bb 44       		.byte	68
 3786 04bc 4A       		.byte	74
 3787 04bd 51       		.byte	81
 3788 04be 40       		.byte	64
 3789 04bf 00       		.byte	0
 3790 04c0 00       		.byte	0
 3791 04c1 FF       		.byte	-1
ARM GAS  C:\Users\Besitzer\AppData\Local\Temp\cczB0neC.s 			page 89


 3792 04c2 01       		.byte	1
 3793 04c3 03       		.byte	3
 3794 04c4 E0       		.byte	-32
 3795 04c5 80       		.byte	-128
 3796 04c6 FF       		.byte	-1
 3797 04c7 00       		.byte	0
 3798 04c8 00       		.byte	0
 3799 04c9 08       		.byte	8
 3800 04ca 08       		.byte	8
 3801 04cb 6B       		.byte	107
 3802 04cc 6B       		.byte	107
 3803 04cd 08       		.byte	8
 3804 04ce 36       		.byte	54
 3805 04cf 12       		.byte	18
 3806 04d0 36       		.byte	54
 3807 04d1 24       		.byte	36
 3808 04d2 36       		.byte	54
 3809 04d3 06       		.byte	6
 3810 04d4 0F       		.byte	15
 3811 04d5 09       		.byte	9
 3812 04d6 0F       		.byte	15
 3813 04d7 06       		.byte	6
 3814 04d8 00       		.byte	0
 3815 04d9 00       		.byte	0
 3816 04da 18       		.byte	24
 3817 04db 18       		.byte	24
 3818 04dc 00       		.byte	0
 3819 04dd 00       		.byte	0
 3820 04de 00       		.byte	0
 3821 04df 10       		.byte	16
 3822 04e0 10       		.byte	16
 3823 04e1 00       		.byte	0
 3824 04e2 30       		.byte	48
 3825 04e3 40       		.byte	64
 3826 04e4 FF       		.byte	-1
 3827 04e5 01       		.byte	1
 3828 04e6 01       		.byte	1
 3829 04e7 00       		.byte	0
 3830 04e8 1F       		.byte	31
 3831 04e9 01       		.byte	1
 3832 04ea 01       		.byte	1
 3833 04eb 1E       		.byte	30
 3834 04ec 00       		.byte	0
 3835 04ed 19       		.byte	25
 3836 04ee 1D       		.byte	29
 3837 04ef 17       		.byte	23
 3838 04f0 12       		.byte	18
 3839 04f1 00       		.byte	0
 3840 04f2 3C       		.byte	60
 3841 04f3 3C       		.byte	60
 3842 04f4 3C       		.byte	60
 3843 04f5 3C       		.byte	60
 3844 04f6 00       		.byte	0
 3845 04f7 00       		.byte	0
 3846 04f8 00       		.byte	0
 3847 04f9 00       		.byte	0
 3848 04fa 00       		.byte	0
ARM GAS  C:\Users\Besitzer\AppData\Local\Temp\cczB0neC.s 			page 90


 3849 04fb 00       		.space	1
 3850              	.LC0:
 3851 04fc 00       		.byte	0
 3852 04fd AE       		.byte	-82
 3853 04fe D5       		.byte	-43
 3854 04ff 80       		.byte	-128
 3855 0500 A8       		.byte	-88
 3856 0501 3F       		.byte	63
 3857 0502 D3       		.byte	-45
 3858 0503 00       		.byte	0
 3859 0504 40       		.byte	64
 3860 0505 21       		.byte	33
 3861 0506 00       		.byte	0
 3862 0507 7F       		.byte	127
 3863 0508 22       		.byte	34
 3864 0509 00       		.byte	0
 3865 050a 07       		.byte	7
 3866 050b 8D       		.byte	-115
 3867 050c 14       		.byte	20
 3868 050d DA       		.byte	-38
 3869 050e 12       		.byte	18
 3870 050f 81       		.byte	-127
 3871 0510 7F       		.byte	127
 3872 0511 D9       		.byte	-39
 3873 0512 F1       		.byte	-15
 3874 0513 DB       		.byte	-37
 3875 0514 40       		.byte	64
 3876 0515 A4       		.byte	-92
 3877 0516 A6       		.byte	-90
 3878 0517 AF       		.byte	-81
 3879 0518 20       		.byte	32
 3880 0519 00       		.byte	0
 3881 051a A1       		.byte	-95
 3882 051b C8       		.byte	-56
 3883              		.data
 3884              		.align	2
 3885              		.set	.LANCHOR0,. + 0
 3886              		.type	SSD1306_buffer, %object
 3887              		.size	SSD1306_buffer, 1025
 3888              	SSD1306_buffer:
 3889 0000 40       		.byte	64
 3890 0001 00000000 		.space	1024
 3890      00000000 
 3890      00000000 
 3890      00000000 
 3890      00000000 
 3891              		.bss
 3892              		.align	1
 3893              		.set	.LANCHOR1,. + 0
 3894              		.type	_i2caddr, %object
 3895              		.size	_i2caddr, 1
 3896              	_i2caddr:
 3897 0000 00       		.space	1
 3898 0001 00       		.space	1
 3899              		.type	_width, %object
 3900              		.size	_width, 2
 3901              	_width:
ARM GAS  C:\Users\Besitzer\AppData\Local\Temp\cczB0neC.s 			page 91


 3902 0002 0000     		.space	2
 3903              		.type	_height, %object
 3904              		.size	_height, 2
 3905              	_height:
 3906 0004 0000     		.space	2
 3907              		.type	cursor_x, %object
 3908              		.size	cursor_x, 2
 3909              	cursor_x:
 3910 0006 0000     		.space	2
 3911              		.type	cursor_y, %object
 3912              		.size	cursor_y, 2
 3913              	cursor_y:
 3914 0008 0000     		.space	2
 3915              		.type	textsize, %object
 3916              		.size	textsize, 1
 3917              	textsize:
 3918 000a 00       		.space	1
 3919 000b 00       		.space	1
 3920              		.type	textbgcolor, %object
 3921              		.size	textbgcolor, 2
 3922              	textbgcolor:
 3923 000c 0000     		.space	2
 3924              		.type	textcolor, %object
 3925              		.size	textcolor, 2
 3926              	textcolor:
 3927 000e 0000     		.space	2
 3928              		.text
 3929              	.Letext0:
 3930              		.file 2 "c:\\program files (x86)\\cypress\\psoc creator\\4.4\\psoc creator\\import\\gnu\\arm\\5.4.
 3931              		.file 3 "c:\\program files (x86)\\cypress\\psoc creator\\4.4\\psoc creator\\import\\gnu\\arm\\5.4.
 3932              		.file 4 "ssd1306.h"
 3933              		.file 5 "Generated_Source\\PSoC5/cytypes.h"
 3934              		.file 6 "font.h"
 3935              		.file 7 "Generated_Source\\PSoC5/I2C_1.h"
 3936              		.file 8 "c:\\program files (x86)\\cypress\\psoc creator\\4.4\\psoc creator\\import\\gnu\\arm\\5.4.
 3937              		.file 9 "Generated_Source\\PSoC5/SSD1306_Reset.h"
 3938              		.file 10 "Generated_Source\\PSoC5/CyLib.h"
 3939              		.section	.debug_info,"",%progbits
 3940              	.Ldebug_info0:
 3941 0000 FA140000 		.4byte	0x14fa
 3942 0004 0400     		.2byte	0x4
 3943 0006 00000000 		.4byte	.Ldebug_abbrev0
 3944 000a 04       		.byte	0x4
 3945 000b 01       		.uleb128 0x1
 3946 000c E0010000 		.4byte	.LASF136
 3947 0010 0C       		.byte	0xc
 3948 0011 E4040000 		.4byte	.LASF137
 3949 0015 79040000 		.4byte	.LASF138
 3950 0019 00000000 		.4byte	.Ldebug_ranges0+0
 3951 001d 00000000 		.4byte	0
 3952 0021 00000000 		.4byte	.Ldebug_line0
 3953 0025 02       		.uleb128 0x2
 3954 0026 04       		.byte	0x4
 3955 0027 07       		.byte	0x7
 3956 0028 2B000000 		.4byte	.LASF0
 3957 002c 03       		.uleb128 0x3
 3958 002d 04       		.byte	0x4
ARM GAS  C:\Users\Besitzer\AppData\Local\Temp\cczB0neC.s 			page 92


 3959 002e 05       		.byte	0x5
 3960 002f 696E7400 		.ascii	"int\000"
 3961 0033 02       		.uleb128 0x2
 3962 0034 08       		.byte	0x8
 3963 0035 05       		.byte	0x5
 3964 0036 88030000 		.4byte	.LASF1
 3965 003a 02       		.uleb128 0x2
 3966 003b 08       		.byte	0x8
 3967 003c 04       		.byte	0x4
 3968 003d B7040000 		.4byte	.LASF2
 3969 0041 04       		.uleb128 0x4
 3970 0042 70040000 		.4byte	.LASF4
 3971 0046 02       		.byte	0x2
 3972 0047 1B       		.byte	0x1b
 3973 0048 4C000000 		.4byte	0x4c
 3974 004c 02       		.uleb128 0x2
 3975 004d 01       		.byte	0x1
 3976 004e 06       		.byte	0x6
 3977 004f 9B060000 		.4byte	.LASF3
 3978 0053 04       		.uleb128 0x4
 3979 0054 6D050000 		.4byte	.LASF5
 3980 0058 02       		.byte	0x2
 3981 0059 1D       		.byte	0x1d
 3982 005a 5E000000 		.4byte	0x5e
 3983 005e 02       		.uleb128 0x2
 3984 005f 01       		.byte	0x1
 3985 0060 08       		.byte	0x8
 3986 0061 24060000 		.4byte	.LASF6
 3987 0065 04       		.uleb128 0x4
 3988 0066 ED030000 		.4byte	.LASF7
 3989 006a 02       		.byte	0x2
 3990 006b 29       		.byte	0x29
 3991 006c 70000000 		.4byte	0x70
 3992 0070 02       		.uleb128 0x2
 3993 0071 02       		.byte	0x2
 3994 0072 05       		.byte	0x5
 3995 0073 FB040000 		.4byte	.LASF8
 3996 0077 04       		.uleb128 0x4
 3997 0078 A9010000 		.4byte	.LASF9
 3998 007c 02       		.byte	0x2
 3999 007d 2B       		.byte	0x2b
 4000 007e 82000000 		.4byte	0x82
 4001 0082 02       		.uleb128 0x2
 4002 0083 02       		.byte	0x2
 4003 0084 07       		.byte	0x7
 4004 0085 A7060000 		.4byte	.LASF10
 4005 0089 02       		.uleb128 0x2
 4006 008a 04       		.byte	0x4
 4007 008b 05       		.byte	0x5
 4008 008c 23050000 		.4byte	.LASF11
 4009 0090 04       		.uleb128 0x4
 4010 0091 32060000 		.4byte	.LASF12
 4011 0095 02       		.byte	0x2
 4012 0096 41       		.byte	0x41
 4013 0097 9B000000 		.4byte	0x9b
 4014 009b 02       		.uleb128 0x2
 4015 009c 04       		.byte	0x4
ARM GAS  C:\Users\Besitzer\AppData\Local\Temp\cczB0neC.s 			page 93


 4016 009d 07       		.byte	0x7
 4017 009e A7050000 		.4byte	.LASF13
 4018 00a2 02       		.uleb128 0x2
 4019 00a3 08       		.byte	0x8
 4020 00a4 07       		.byte	0x7
 4021 00a5 7A010000 		.4byte	.LASF14
 4022 00a9 02       		.uleb128 0x2
 4023 00aa 04       		.byte	0x4
 4024 00ab 07       		.byte	0x7
 4025 00ac 97050000 		.4byte	.LASF15
 4026 00b0 02       		.uleb128 0x2
 4027 00b1 01       		.byte	0x1
 4028 00b2 08       		.byte	0x8
 4029 00b3 4B030000 		.4byte	.LASF16
 4030 00b7 05       		.uleb128 0x5
 4031 00b8 04       		.byte	0x4
 4032 00b9 BD000000 		.4byte	0xbd
 4033 00bd 06       		.uleb128 0x6
 4034 00be B0000000 		.4byte	0xb0
 4035 00c2 04       		.uleb128 0x4
 4036 00c3 2D010000 		.4byte	.LASF17
 4037 00c7 03       		.byte	0x3
 4038 00c8 14       		.byte	0x14
 4039 00c9 41000000 		.4byte	0x41
 4040 00cd 04       		.uleb128 0x4
 4041 00ce 5F030000 		.4byte	.LASF18
 4042 00d2 03       		.byte	0x3
 4043 00d3 18       		.byte	0x18
 4044 00d4 53000000 		.4byte	0x53
 4045 00d8 04       		.uleb128 0x4
 4046 00d9 72010000 		.4byte	.LASF19
 4047 00dd 03       		.byte	0x3
 4048 00de 20       		.byte	0x20
 4049 00df 65000000 		.4byte	0x65
 4050 00e3 04       		.uleb128 0x4
 4051 00e4 CE040000 		.4byte	.LASF20
 4052 00e8 03       		.byte	0x3
 4053 00e9 24       		.byte	0x24
 4054 00ea 77000000 		.4byte	0x77
 4055 00ee 04       		.uleb128 0x4
 4056 00ef 24010000 		.4byte	.LASF21
 4057 00f3 03       		.byte	0x3
 4058 00f4 30       		.byte	0x30
 4059 00f5 90000000 		.4byte	0x90
 4060 00f9 07       		.uleb128 0x7
 4061 00fa 01       		.byte	0x1
 4062 00fb 5E000000 		.4byte	0x5e
 4063 00ff 04       		.byte	0x4
 4064 0100 70       		.byte	0x70
 4065 0101 36010000 		.4byte	0x136
 4066 0105 08       		.uleb128 0x8
 4067 0106 9A020000 		.4byte	.LASF22
 4068 010a 00       		.byte	0
 4069 010b 08       		.uleb128 0x8
 4070 010c A8020000 		.4byte	.LASF23
 4071 0110 01       		.byte	0x1
 4072 0111 08       		.uleb128 0x8
ARM GAS  C:\Users\Besitzer\AppData\Local\Temp\cczB0neC.s 			page 94


 4073 0112 B6020000 		.4byte	.LASF24
 4074 0116 02       		.byte	0x2
 4075 0117 08       		.uleb128 0x8
 4076 0118 C4020000 		.4byte	.LASF25
 4077 011c 03       		.byte	0x3
 4078 011d 08       		.uleb128 0x8
 4079 011e D2020000 		.4byte	.LASF26
 4080 0122 04       		.byte	0x4
 4081 0123 08       		.uleb128 0x8
 4082 0124 E0020000 		.4byte	.LASF27
 4083 0128 05       		.byte	0x5
 4084 0129 08       		.uleb128 0x8
 4085 012a EE020000 		.4byte	.LASF28
 4086 012e 06       		.byte	0x6
 4087 012f 08       		.uleb128 0x8
 4088 0130 FC020000 		.4byte	.LASF29
 4089 0134 07       		.byte	0x7
 4090 0135 00       		.byte	0
 4091 0136 04       		.uleb128 0x4
 4092 0137 B1030000 		.4byte	.LASF30
 4093 013b 04       		.byte	0x4
 4094 013c 79       		.byte	0x79
 4095 013d F9000000 		.4byte	0xf9
 4096 0141 07       		.uleb128 0x7
 4097 0142 01       		.byte	0x1
 4098 0143 5E000000 		.4byte	0x5e
 4099 0147 04       		.byte	0x4
 4100 0148 7B       		.byte	0x7b
 4101 0149 5A010000 		.4byte	0x15a
 4102 014d 08       		.uleb128 0x8
 4103 014e 0B060000 		.4byte	.LASF31
 4104 0152 26       		.byte	0x26
 4105 0153 08       		.uleb128 0x8
 4106 0154 B9050000 		.4byte	.LASF32
 4107 0158 2A       		.byte	0x2a
 4108 0159 00       		.byte	0
 4109 015a 04       		.uleb128 0x4
 4110 015b 76000000 		.4byte	.LASF33
 4111 015f 04       		.byte	0x4
 4112 0160 7E       		.byte	0x7e
 4113 0161 41010000 		.4byte	0x141
 4114 0165 07       		.uleb128 0x7
 4115 0166 01       		.byte	0x1
 4116 0167 5E000000 		.4byte	0x5e
 4117 016b 04       		.byte	0x4
 4118 016c 80       		.byte	0x80
 4119 016d A2010000 		.4byte	0x1a2
 4120 0171 08       		.uleb128 0x8
 4121 0172 90000000 		.4byte	.LASF34
 4122 0176 03       		.byte	0x3
 4123 0177 08       		.uleb128 0x8
 4124 0178 9F000000 		.4byte	.LASF35
 4125 017c 02       		.byte	0x2
 4126 017d 08       		.uleb128 0x8
 4127 017e AE000000 		.4byte	.LASF36
 4128 0182 01       		.byte	0x1
 4129 0183 08       		.uleb128 0x8
ARM GAS  C:\Users\Besitzer\AppData\Local\Temp\cczB0neC.s 			page 95


 4130 0184 BD000000 		.4byte	.LASF37
 4131 0188 06       		.byte	0x6
 4132 0189 08       		.uleb128 0x8
 4133 018a CC000000 		.4byte	.LASF38
 4134 018e 00       		.byte	0
 4135 018f 08       		.uleb128 0x8
 4136 0190 DB000000 		.4byte	.LASF39
 4137 0194 05       		.byte	0x5
 4138 0195 08       		.uleb128 0x8
 4139 0196 EA000000 		.4byte	.LASF40
 4140 019a 04       		.byte	0x4
 4141 019b 08       		.uleb128 0x8
 4142 019c F9000000 		.4byte	.LASF41
 4143 01a0 07       		.byte	0x7
 4144 01a1 00       		.byte	0
 4145 01a2 04       		.uleb128 0x4
 4146 01a3 9F030000 		.4byte	.LASF42
 4147 01a7 04       		.byte	0x4
 4148 01a8 89       		.byte	0x89
 4149 01a9 65010000 		.4byte	0x165
 4150 01ad 09       		.uleb128 0x9
 4151 01ae CD060000 		.4byte	.LASF43
 4152 01b2 05       		.byte	0x5
 4153 01b3 E901     		.2byte	0x1e9
 4154 01b5 5E000000 		.4byte	0x5e
 4155 01b9 09       		.uleb128 0x9
 4156 01ba 29040000 		.4byte	.LASF44
 4157 01be 05       		.byte	0x5
 4158 01bf EB01     		.2byte	0x1eb
 4159 01c1 9B000000 		.4byte	0x9b
 4160 01c5 02       		.uleb128 0x2
 4161 01c6 04       		.byte	0x4
 4162 01c7 04       		.byte	0x4
 4163 01c8 39010000 		.4byte	.LASF45
 4164 01cc 02       		.uleb128 0x2
 4165 01cd 08       		.byte	0x8
 4166 01ce 04       		.byte	0x4
 4167 01cf D3060000 		.4byte	.LASF46
 4168 01d3 09       		.uleb128 0x9
 4169 01d4 D7040000 		.4byte	.LASF47
 4170 01d8 05       		.byte	0x5
 4171 01d9 9502     		.2byte	0x295
 4172 01db DF010000 		.4byte	0x1df
 4173 01df 0A       		.uleb128 0xa
 4174 01e0 B9010000 		.4byte	0x1b9
 4175 01e4 0B       		.uleb128 0xb
 4176 01e5 83020000 		.4byte	.LASF49
 4177 01e9 01       		.byte	0x1
 4178 01ea E4       		.byte	0xe4
 4179 01eb 00000000 		.4byte	.LFB1
 4180 01ef 88000000 		.4byte	.LFE1-.LFB1
 4181 01f3 01       		.uleb128 0x1
 4182 01f4 9C       		.byte	0x9c
 4183 01f5 23020000 		.4byte	0x223
 4184 01f9 0C       		.uleb128 0xc
 4185 01fa 7800     		.ascii	"x\000"
 4186 01fc 01       		.byte	0x1
ARM GAS  C:\Users\Besitzer\AppData\Local\Temp\cczB0neC.s 			page 96


 4187 01fd E4       		.byte	0xe4
 4188 01fe D8000000 		.4byte	0xd8
 4189 0202 00000000 		.4byte	.LLST0
 4190 0206 0C       		.uleb128 0xc
 4191 0207 7900     		.ascii	"y\000"
 4192 0209 01       		.byte	0x1
 4193 020a E4       		.byte	0xe4
 4194 020b D8000000 		.4byte	0xd8
 4195 020f 53000000 		.4byte	.LLST1
 4196 0213 0D       		.uleb128 0xd
 4197 0214 51050000 		.4byte	.LASF48
 4198 0218 01       		.byte	0x1
 4199 0219 E4       		.byte	0xe4
 4200 021a E3000000 		.4byte	0xe3
 4201 021e A6000000 		.4byte	.LLST2
 4202 0222 00       		.byte	0
 4203 0223 0E       		.uleb128 0xe
 4204 0224 5E000000 		.4byte	.LASF50
 4205 0228 01       		.byte	0x1
 4206 0229 6201     		.2byte	0x162
 4207 022b 00000000 		.4byte	.LFB8
 4208 022f 34010000 		.4byte	.LFE8-.LFB8
 4209 0233 01       		.uleb128 0x1
 4210 0234 9C       		.byte	0x9c
 4211 0235 4E030000 		.4byte	0x34e
 4212 0239 0F       		.uleb128 0xf
 4213 023a 783100   		.ascii	"x1\000"
 4214 023d 01       		.byte	0x1
 4215 023e 6201     		.2byte	0x162
 4216 0240 D8000000 		.4byte	0xd8
 4217 0244 F9000000 		.4byte	.LLST3
 4218 0248 0F       		.uleb128 0xf
 4219 0249 793100   		.ascii	"y1\000"
 4220 024c 01       		.byte	0x1
 4221 024d 6201     		.2byte	0x162
 4222 024f D8000000 		.4byte	0xd8
 4223 0253 33010000 		.4byte	.LLST4
 4224 0257 0F       		.uleb128 0xf
 4225 0258 783200   		.ascii	"x2\000"
 4226 025b 01       		.byte	0x1
 4227 025c 6201     		.2byte	0x162
 4228 025e D8000000 		.4byte	0xd8
 4229 0262 54010000 		.4byte	.LLST5
 4230 0266 0F       		.uleb128 0xf
 4231 0267 793200   		.ascii	"y2\000"
 4232 026a 01       		.byte	0x1
 4233 026b 6201     		.2byte	0x162
 4234 026d D8000000 		.4byte	0xd8
 4235 0271 8E010000 		.4byte	.LLST6
 4236 0275 10       		.uleb128 0x10
 4237 0276 51050000 		.4byte	.LASF48
 4238 027a 01       		.byte	0x1
 4239 027b 6201     		.2byte	0x162
 4240 027d E3000000 		.4byte	0xe3
 4241 0281 AF010000 		.4byte	.LLST7
 4242 0285 11       		.uleb128 0x11
 4243 0286 0A000000 		.4byte	.LBB2
ARM GAS  C:\Users\Besitzer\AppData\Local\Temp\cczB0neC.s 			page 97


 4244 028a D0000000 		.4byte	.LBE2-.LBB2
 4245 028e 07030000 		.4byte	0x307
 4246 0292 12       		.uleb128 0x12
 4247 0293 3F010000 		.4byte	.LASF51
 4248 0297 01       		.byte	0x1
 4249 0298 6601     		.2byte	0x166
 4250 029a 4E030000 		.4byte	0x34e
 4251 029e DB010000 		.4byte	.LLST8
 4252 02a2 12       		.uleb128 0x12
 4253 02a3 13040000 		.4byte	.LASF52
 4254 02a7 01       		.byte	0x1
 4255 02a8 6701     		.2byte	0x167
 4256 02aa 4E030000 		.4byte	0x34e
 4257 02ae EE010000 		.4byte	.LLST9
 4258 02b2 13       		.uleb128 0x13
 4259 02b3 70747200 		.ascii	"ptr\000"
 4260 02b7 01       		.byte	0x1
 4261 02b8 6801     		.2byte	0x168
 4262 02ba 4E030000 		.4byte	0x34e
 4263 02be 01020000 		.4byte	.LLST10
 4264 02c2 14       		.uleb128 0x14
 4265 02c3 32000000 		.4byte	.LBB3
 4266 02c7 A2000000 		.4byte	.LBE3-.LBB3
 4267 02cb 12       		.uleb128 0x12
 4268 02cc 4A040000 		.4byte	.LASF53
 4269 02d0 01       		.byte	0x1
 4270 02d1 6C01     		.2byte	0x16c
 4271 02d3 CD000000 		.4byte	0xcd
 4272 02d7 1F020000 		.4byte	.LLST11
 4273 02db 14       		.uleb128 0x14
 4274 02dc 36000000 		.4byte	.LBB4
 4275 02e0 30000000 		.4byte	.LBE4-.LBB4
 4276 02e4 12       		.uleb128 0x12
 4277 02e5 77050000 		.4byte	.LASF54
 4278 02e9 01       		.byte	0x1
 4279 02ea 6F01     		.2byte	0x16f
 4280 02ec CD000000 		.4byte	0xcd
 4281 02f0 48020000 		.4byte	.LLST12
 4282 02f4 12       		.uleb128 0x12
 4283 02f5 3D060000 		.4byte	.LASF55
 4284 02f9 01       		.byte	0x1
 4285 02fa 7101     		.2byte	0x171
 4286 02fc CD000000 		.4byte	0xcd
 4287 0300 5B020000 		.4byte	.LLST13
 4288 0304 00       		.byte	0
 4289 0305 00       		.byte	0
 4290 0306 00       		.byte	0
 4291 0307 14       		.uleb128 0x14
 4292 0308 DA000000 		.4byte	.LBB5
 4293 030c 5A000000 		.4byte	.LBE5-.LBB5
 4294 0310 12       		.uleb128 0x12
 4295 0311 3F010000 		.4byte	.LASF51
 4296 0315 01       		.byte	0x1
 4297 0316 8D01     		.2byte	0x18d
 4298 0318 4E030000 		.4byte	0x34e
 4299 031c 6E020000 		.4byte	.LLST14
 4300 0320 15       		.uleb128 0x15
ARM GAS  C:\Users\Besitzer\AppData\Local\Temp\cczB0neC.s 			page 98


 4301 0321 13040000 		.4byte	.LASF52
 4302 0325 01       		.byte	0x1
 4303 0326 8E01     		.2byte	0x18e
 4304 0328 4E030000 		.4byte	0x34e
 4305 032c 01       		.uleb128 0x1
 4306 032d 52       		.byte	0x52
 4307 032e 12       		.uleb128 0x12
 4308 032f 05050000 		.4byte	.LASF56
 4309 0333 01       		.byte	0x1
 4310 0334 8F01     		.2byte	0x18f
 4311 0336 CD000000 		.4byte	0xcd
 4312 033a 81020000 		.4byte	.LLST15
 4313 033e 16       		.uleb128 0x16
 4314 033f 70747200 		.ascii	"ptr\000"
 4315 0343 01       		.byte	0x1
 4316 0344 9101     		.2byte	0x191
 4317 0346 4E030000 		.4byte	0x34e
 4318 034a 01       		.uleb128 0x1
 4319 034b 53       		.byte	0x53
 4320 034c 00       		.byte	0
 4321 034d 00       		.byte	0
 4322 034e 05       		.uleb128 0x5
 4323 034f 04       		.byte	0x4
 4324 0350 CD000000 		.4byte	0xcd
 4325 0354 0E       		.uleb128 0xe
 4326 0355 C6010000 		.4byte	.LASF57
 4327 0359 01       		.byte	0x1
 4328 035a 4E02     		.2byte	0x24e
 4329 035c 00000000 		.4byte	.LFB21
 4330 0360 68000000 		.4byte	.LFE21-.LFB21
 4331 0364 01       		.uleb128 0x1
 4332 0365 9C       		.byte	0x9c
 4333 0366 94030000 		.4byte	0x394
 4334 036a 17       		.uleb128 0x17
 4335 036b 707800   		.ascii	"px\000"
 4336 036e 01       		.byte	0x1
 4337 036f 4E02     		.2byte	0x24e
 4338 0371 94030000 		.4byte	0x394
 4339 0375 01       		.uleb128 0x1
 4340 0376 50       		.byte	0x50
 4341 0377 17       		.uleb128 0x17
 4342 0378 707900   		.ascii	"py\000"
 4343 037b 01       		.byte	0x1
 4344 037c 4E02     		.2byte	0x24e
 4345 037e 94030000 		.4byte	0x394
 4346 0382 01       		.uleb128 0x1
 4347 0383 51       		.byte	0x51
 4348 0384 13       		.uleb128 0x13
 4349 0385 793000   		.ascii	"y0\000"
 4350 0388 01       		.byte	0x1
 4351 0389 5002     		.2byte	0x250
 4352 038b D8000000 		.4byte	0xd8
 4353 038f 9F020000 		.4byte	.LLST16
 4354 0393 00       		.byte	0
 4355 0394 05       		.uleb128 0x5
 4356 0395 04       		.byte	0x4
 4357 0396 D8000000 		.4byte	0xd8
ARM GAS  C:\Users\Besitzer\AppData\Local\Temp\cczB0neC.s 			page 99


 4358 039a 0E       		.uleb128 0xe
 4359 039b 6B000000 		.4byte	.LASF58
 4360 039f 01       		.byte	0x1
 4361 03a0 8002     		.2byte	0x280
 4362 03a2 00000000 		.4byte	.LFB23
 4363 03a6 14010000 		.4byte	.LFE23-.LFB23
 4364 03aa 01       		.uleb128 0x1
 4365 03ab 9C       		.byte	0x9c
 4366 03ac 5E040000 		.4byte	0x45e
 4367 03b0 0F       		.uleb128 0xf
 4368 03b1 783100   		.ascii	"x1\000"
 4369 03b4 01       		.byte	0x1
 4370 03b5 8002     		.2byte	0x280
 4371 03b7 D8000000 		.4byte	0xd8
 4372 03bb D4020000 		.4byte	.LLST17
 4373 03bf 0F       		.uleb128 0xf
 4374 03c0 793100   		.ascii	"y1\000"
 4375 03c3 01       		.byte	0x1
 4376 03c4 8002     		.2byte	0x280
 4377 03c6 D8000000 		.4byte	0xd8
 4378 03ca 0B030000 		.4byte	.LLST18
 4379 03ce 0F       		.uleb128 0xf
 4380 03cf 783200   		.ascii	"x2\000"
 4381 03d2 01       		.byte	0x1
 4382 03d3 8002     		.2byte	0x280
 4383 03d5 D8000000 		.4byte	0xd8
 4384 03d9 4E030000 		.4byte	.LLST19
 4385 03dd 0F       		.uleb128 0xf
 4386 03de 793200   		.ascii	"y2\000"
 4387 03e1 01       		.byte	0x1
 4388 03e2 8002     		.2byte	0x280
 4389 03e4 D8000000 		.4byte	0xd8
 4390 03e8 A8030000 		.4byte	.LLST20
 4391 03ec 10       		.uleb128 0x10
 4392 03ed 51050000 		.4byte	.LASF48
 4393 03f1 01       		.byte	0x1
 4394 03f2 8002     		.2byte	0x280
 4395 03f4 E3000000 		.4byte	0xe3
 4396 03f8 EB030000 		.4byte	.LLST21
 4397 03fc 11       		.uleb128 0x11
 4398 03fd D2000000 		.4byte	.LBB6
 4399 0401 18000000 		.4byte	.LBE6-.LBB6
 4400 0405 18040000 		.4byte	0x418
 4401 0409 13       		.uleb128 0x13
 4402 040a 7400     		.ascii	"t\000"
 4403 040c 01       		.byte	0x1
 4404 040d 9A02     		.2byte	0x29a
 4405 040f D8000000 		.4byte	0xd8
 4406 0413 0B040000 		.4byte	.LLST22
 4407 0417 00       		.byte	0
 4408 0418 18       		.uleb128 0x18
 4409 0419 A0000000 		.4byte	.LVL53
 4410 041d 54030000 		.4byte	0x354
 4411 0421 32040000 		.4byte	0x432
 4412 0425 19       		.uleb128 0x19
 4413 0426 01       		.uleb128 0x1
 4414 0427 50       		.byte	0x50
ARM GAS  C:\Users\Besitzer\AppData\Local\Temp\cczB0neC.s 			page 100


 4415 0428 02       		.uleb128 0x2
 4416 0429 91       		.byte	0x91
 4417 042a 76       		.sleb128 -10
 4418 042b 19       		.uleb128 0x19
 4419 042c 01       		.uleb128 0x1
 4420 042d 51       		.byte	0x51
 4421 042e 02       		.uleb128 0x2
 4422 042f 91       		.byte	0x91
 4423 0430 74       		.sleb128 -12
 4424 0431 00       		.byte	0
 4425 0432 18       		.uleb128 0x18
 4426 0433 AA000000 		.4byte	.LVL56
 4427 0437 54030000 		.4byte	0x354
 4428 043b 4C040000 		.4byte	0x44c
 4429 043f 19       		.uleb128 0x19
 4430 0440 01       		.uleb128 0x1
 4431 0441 50       		.byte	0x50
 4432 0442 02       		.uleb128 0x2
 4433 0443 91       		.byte	0x91
 4434 0444 72       		.sleb128 -14
 4435 0445 19       		.uleb128 0x19
 4436 0446 01       		.uleb128 0x1
 4437 0447 51       		.byte	0x51
 4438 0448 02       		.uleb128 0x2
 4439 0449 91       		.byte	0x91
 4440 044a 70       		.sleb128 -16
 4441 044b 00       		.byte	0
 4442 044c 1A       		.uleb128 0x1a
 4443 044d 04010000 		.4byte	.LVL60
 4444 0451 23020000 		.4byte	0x223
 4445 0455 19       		.uleb128 0x19
 4446 0456 02       		.uleb128 0x2
 4447 0457 7D       		.byte	0x7d
 4448 0458 00       		.sleb128 0
 4449 0459 02       		.uleb128 0x2
 4450 045a 74       		.byte	0x74
 4451 045b 00       		.sleb128 0
 4452 045c 00       		.byte	0
 4453 045d 00       		.byte	0
 4454 045e 1B       		.uleb128 0x1b
 4455 045f 30040000 		.4byte	.LASF139
 4456 0463 01       		.byte	0x1
 4457 0464 A003     		.2byte	0x3a0
 4458 0466 B9010000 		.4byte	0x1b9
 4459 046a 00000000 		.4byte	.LFB33
 4460 046e 50000000 		.4byte	.LFE33-.LFB33
 4461 0472 01       		.uleb128 0x1
 4462 0473 9C       		.byte	0x9c
 4463 0474 EE040000 		.4byte	0x4ee
 4464 0478 0F       		.uleb128 0xf
 4465 0479 62756600 		.ascii	"buf\000"
 4466 047d 01       		.byte	0x1
 4467 047e A003     		.2byte	0x3a0
 4468 0480 4E030000 		.4byte	0x34e
 4469 0484 1E040000 		.4byte	.LLST23
 4470 0488 10       		.uleb128 0x10
 4471 0489 34010000 		.4byte	.LASF59
ARM GAS  C:\Users\Besitzer\AppData\Local\Temp\cczB0neC.s 			page 101


 4472 048d 01       		.byte	0x1
 4473 048e A003     		.2byte	0x3a0
 4474 0490 E3000000 		.4byte	0xe3
 4475 0494 52040000 		.4byte	.LLST24
 4476 0498 12       		.uleb128 0x12
 4477 0499 67030000 		.4byte	.LASF60
 4478 049d 01       		.byte	0x1
 4479 049e A203     		.2byte	0x3a2
 4480 04a0 EE000000 		.4byte	0xee
 4481 04a4 73040000 		.4byte	.LLST25
 4482 04a8 12       		.uleb128 0x12
 4483 04a9 FB050000 		.4byte	.LASF61
 4484 04ad 01       		.byte	0x1
 4485 04ae A303     		.2byte	0x3a3
 4486 04b0 CD000000 		.4byte	0xcd
 4487 04b4 94040000 		.4byte	.LLST26
 4488 04b8 13       		.uleb128 0x13
 4489 04b9 636E7400 		.ascii	"cnt\000"
 4490 04bd 01       		.byte	0x1
 4491 04be A403     		.2byte	0x3a4
 4492 04c0 E3000000 		.4byte	0xe3
 4493 04c4 B2040000 		.4byte	.LLST27
 4494 04c8 18       		.uleb128 0x18
 4495 04c9 18000000 		.4byte	.LVL66
 4496 04cd 9C140000 		.4byte	0x149c
 4497 04d1 DB040000 		.4byte	0x4db
 4498 04d5 19       		.uleb128 0x19
 4499 04d6 01       		.uleb128 0x1
 4500 04d7 51       		.byte	0x51
 4501 04d8 01       		.uleb128 0x1
 4502 04d9 30       		.byte	0x30
 4503 04da 00       		.byte	0
 4504 04db 1C       		.uleb128 0x1c
 4505 04dc 24000000 		.4byte	.LVL70
 4506 04e0 A7140000 		.4byte	0x14a7
 4507 04e4 1C       		.uleb128 0x1c
 4508 04e5 38000000 		.4byte	.LVL76
 4509 04e9 B2140000 		.4byte	0x14b2
 4510 04ed 00       		.byte	0
 4511 04ee 0E       		.uleb128 0xe
 4512 04ef 91010000 		.4byte	.LASF62
 4513 04f3 01       		.byte	0x1
 4514 04f4 4801     		.2byte	0x148
 4515 04f6 00000000 		.4byte	.LFB7
 4516 04fa 32000000 		.4byte	.LFE7-.LFB7
 4517 04fe 01       		.uleb128 0x1
 4518 04ff 9C       		.byte	0x9c
 4519 0500 39050000 		.4byte	0x539
 4520 0504 0F       		.uleb128 0xf
 4521 0505 636F6C00 		.ascii	"col\000"
 4522 0509 01       		.byte	0x1
 4523 050a 4801     		.2byte	0x148
 4524 050c CD000000 		.4byte	0xcd
 4525 0510 F3040000 		.4byte	.LLST28
 4526 0514 15       		.uleb128 0x15
 4527 0515 A0050000 		.4byte	.LASF63
 4528 0519 01       		.byte	0x1
ARM GAS  C:\Users\Besitzer\AppData\Local\Temp\cczB0neC.s 			page 102


 4529 051a 4E01     		.2byte	0x14e
 4530 051c 39050000 		.4byte	0x539
 4531 0520 02       		.uleb128 0x2
 4532 0521 91       		.byte	0x91
 4533 0522 74       		.sleb128 -12
 4534 0523 1A       		.uleb128 0x1a
 4535 0524 2A000000 		.4byte	.LVL80
 4536 0528 5E040000 		.4byte	0x45e
 4537 052c 19       		.uleb128 0x19
 4538 052d 01       		.uleb128 0x1
 4539 052e 50       		.byte	0x50
 4540 052f 02       		.uleb128 0x2
 4541 0530 91       		.byte	0x91
 4542 0531 74       		.sleb128 -12
 4543 0532 19       		.uleb128 0x19
 4544 0533 01       		.uleb128 0x1
 4545 0534 51       		.byte	0x51
 4546 0535 01       		.uleb128 0x1
 4547 0536 33       		.byte	0x33
 4548 0537 00       		.byte	0
 4549 0538 00       		.byte	0
 4550 0539 1D       		.uleb128 0x1d
 4551 053a AD010000 		.4byte	0x1ad
 4552 053e 49050000 		.4byte	0x549
 4553 0542 1E       		.uleb128 0x1e
 4554 0543 A9000000 		.4byte	0xa9
 4555 0547 02       		.byte	0x2
 4556 0548 00       		.byte	0
 4557 0549 1F       		.uleb128 0x1f
 4558 054a D9050000 		.4byte	.LASF64
 4559 054e 01       		.byte	0x1
 4560 054f FC       		.byte	0xfc
 4561 0550 00000000 		.4byte	.LFB2
 4562 0554 1C000000 		.4byte	.LFE2-.LFB2
 4563 0558 01       		.uleb128 0x1
 4564 0559 9C       		.byte	0x9c
 4565 055a 7B050000 		.4byte	0x57b
 4566 055e 1A       		.uleb128 0x1a
 4567 055f 10000000 		.4byte	.LVL82
 4568 0563 BD140000 		.4byte	0x14bd
 4569 0567 19       		.uleb128 0x19
 4570 0568 01       		.uleb128 0x1
 4571 0569 50       		.byte	0x50
 4572 056a 02       		.uleb128 0x2
 4573 056b 74       		.byte	0x74
 4574 056c 01       		.sleb128 1
 4575 056d 19       		.uleb128 0x19
 4576 056e 01       		.uleb128 0x1
 4577 056f 51       		.byte	0x51
 4578 0570 01       		.uleb128 0x1
 4579 0571 30       		.byte	0x30
 4580 0572 19       		.uleb128 0x19
 4581 0573 01       		.uleb128 0x1
 4582 0574 52       		.byte	0x52
 4583 0575 03       		.uleb128 0x3
 4584 0576 0A       		.byte	0xa
 4585 0577 0004     		.2byte	0x400
ARM GAS  C:\Users\Besitzer\AppData\Local\Temp\cczB0neC.s 			page 103


 4586 0579 00       		.byte	0
 4587 057a 00       		.byte	0
 4588 057b 20       		.uleb128 0x20
 4589 057c 7E060000 		.4byte	.LASF65
 4590 0580 01       		.byte	0x1
 4591 0581 0701     		.2byte	0x107
 4592 0583 00000000 		.4byte	.LFB3
 4593 0587 22000000 		.4byte	.LFE3-.LFB3
 4594 058b 01       		.uleb128 0x1
 4595 058c 9C       		.byte	0x9c
 4596 058d C6050000 		.4byte	0x5c6
 4597 0591 10       		.uleb128 0x10
 4598 0592 96030000 		.4byte	.LASF66
 4599 0596 01       		.byte	0x1
 4600 0597 0701     		.2byte	0x107
 4601 0599 CD000000 		.4byte	0xcd
 4602 059d 1F050000 		.4byte	.LLST29
 4603 05a1 15       		.uleb128 0x15
 4604 05a2 A0050000 		.4byte	.LASF63
 4605 05a6 01       		.byte	0x1
 4606 05a7 0901     		.2byte	0x109
 4607 05a9 39050000 		.4byte	0x539
 4608 05ad 02       		.uleb128 0x2
 4609 05ae 91       		.byte	0x91
 4610 05af 74       		.sleb128 -12
 4611 05b0 1A       		.uleb128 0x1a
 4612 05b1 1C000000 		.4byte	.LVL85
 4613 05b5 5E040000 		.4byte	0x45e
 4614 05b9 19       		.uleb128 0x19
 4615 05ba 01       		.uleb128 0x1
 4616 05bb 50       		.byte	0x50
 4617 05bc 02       		.uleb128 0x2
 4618 05bd 91       		.byte	0x91
 4619 05be 74       		.sleb128 -12
 4620 05bf 19       		.uleb128 0x19
 4621 05c0 01       		.uleb128 0x1
 4622 05c1 51       		.byte	0x51
 4623 05c2 01       		.uleb128 0x1
 4624 05c3 33       		.byte	0x33
 4625 05c4 00       		.byte	0
 4626 05c5 00       		.byte	0
 4627 05c6 20       		.uleb128 0x20
 4628 05c7 42050000 		.4byte	.LASF67
 4629 05cb 01       		.byte	0x1
 4630 05cc 1701     		.2byte	0x117
 4631 05ce 00000000 		.4byte	.LFB4
 4632 05d2 24000000 		.4byte	.LFE4-.LFB4
 4633 05d6 01       		.uleb128 0x1
 4634 05d7 9C       		.byte	0x9c
 4635 05d8 11060000 		.4byte	0x611
 4636 05dc 10       		.uleb128 0x10
 4637 05dd 58030000 		.4byte	.LASF68
 4638 05e1 01       		.byte	0x1
 4639 05e2 1701     		.2byte	0x117
 4640 05e4 CD000000 		.4byte	0xcd
 4641 05e8 4C050000 		.4byte	.LLST30
 4642 05ec 15       		.uleb128 0x15
ARM GAS  C:\Users\Besitzer\AppData\Local\Temp\cczB0neC.s 			page 104


 4643 05ed A0050000 		.4byte	.LASF63
 4644 05f1 01       		.byte	0x1
 4645 05f2 1901     		.2byte	0x119
 4646 05f4 11060000 		.4byte	0x611
 4647 05f8 02       		.uleb128 0x2
 4648 05f9 91       		.byte	0x91
 4649 05fa 74       		.sleb128 -12
 4650 05fb 1A       		.uleb128 0x1a
 4651 05fc 1E000000 		.4byte	.LVL88
 4652 0600 5E040000 		.4byte	0x45e
 4653 0604 19       		.uleb128 0x19
 4654 0605 01       		.uleb128 0x1
 4655 0606 50       		.byte	0x50
 4656 0607 02       		.uleb128 0x2
 4657 0608 91       		.byte	0x91
 4658 0609 74       		.sleb128 -12
 4659 060a 19       		.uleb128 0x19
 4660 060b 01       		.uleb128 0x1
 4661 060c 51       		.byte	0x51
 4662 060d 01       		.uleb128 0x1
 4663 060e 32       		.byte	0x32
 4664 060f 00       		.byte	0
 4665 0610 00       		.byte	0
 4666 0611 1D       		.uleb128 0x1d
 4667 0612 AD010000 		.4byte	0x1ad
 4668 0616 21060000 		.4byte	0x621
 4669 061a 1E       		.uleb128 0x1e
 4670 061b A9000000 		.4byte	0xa9
 4671 061f 01       		.byte	0x1
 4672 0620 00       		.byte	0
 4673 0621 20       		.uleb128 0x20
 4674 0622 BD030000 		.4byte	.LASF69
 4675 0626 01       		.byte	0x1
 4676 0627 3501     		.2byte	0x135
 4677 0629 00000000 		.4byte	.LFB6
 4678 062d 26000000 		.4byte	.LFE6-.LFB6
 4679 0631 01       		.uleb128 0x1
 4680 0632 9C       		.byte	0x9c
 4681 0633 6C060000 		.4byte	0x66c
 4682 0637 10       		.uleb128 0x10
 4683 0638 AC030000 		.4byte	.LASF70
 4684 063c 01       		.byte	0x1
 4685 063d 3501     		.2byte	0x135
 4686 063f CD000000 		.4byte	0xcd
 4687 0643 6D050000 		.4byte	.LLST31
 4688 0647 15       		.uleb128 0x15
 4689 0648 A0050000 		.4byte	.LASF63
 4690 064c 01       		.byte	0x1
 4691 064d 3B01     		.2byte	0x13b
 4692 064f 11060000 		.4byte	0x611
 4693 0653 02       		.uleb128 0x2
 4694 0654 91       		.byte	0x91
 4695 0655 74       		.sleb128 -12
 4696 0656 1A       		.uleb128 0x1a
 4697 0657 1E000000 		.4byte	.LVL91
 4698 065b 5E040000 		.4byte	0x45e
 4699 065f 19       		.uleb128 0x19
ARM GAS  C:\Users\Besitzer\AppData\Local\Temp\cczB0neC.s 			page 105


 4700 0660 01       		.uleb128 0x1
 4701 0661 50       		.byte	0x50
 4702 0662 02       		.uleb128 0x2
 4703 0663 91       		.byte	0x91
 4704 0664 74       		.sleb128 -12
 4705 0665 19       		.uleb128 0x19
 4706 0666 01       		.uleb128 0x1
 4707 0667 51       		.byte	0x51
 4708 0668 01       		.uleb128 0x1
 4709 0669 32       		.byte	0x32
 4710 066a 00       		.byte	0
 4711 066b 00       		.byte	0
 4712 066c 20       		.uleb128 0x20
 4713 066d 3C030000 		.4byte	.LASF71
 4714 0671 01       		.byte	0x1
 4715 0672 2701     		.2byte	0x127
 4716 0674 00000000 		.4byte	.LFB5
 4717 0678 20000000 		.4byte	.LFE5-.LFB5
 4718 067c 01       		.uleb128 0x1
 4719 067d 9C       		.byte	0x9c
 4720 067e C3060000 		.4byte	0x6c3
 4721 0682 18       		.uleb128 0x18
 4722 0683 08000000 		.4byte	.LVL93
 4723 0687 21060000 		.4byte	0x621
 4724 068b 95060000 		.4byte	0x695
 4725 068f 19       		.uleb128 0x19
 4726 0690 01       		.uleb128 0x1
 4727 0691 50       		.byte	0x50
 4728 0692 01       		.uleb128 0x1
 4729 0693 30       		.byte	0x30
 4730 0694 00       		.byte	0
 4731 0695 18       		.uleb128 0x18
 4732 0696 0E000000 		.4byte	.LVL94
 4733 069a EE040000 		.4byte	0x4ee
 4734 069e A8060000 		.4byte	0x6a8
 4735 06a2 19       		.uleb128 0x19
 4736 06a3 01       		.uleb128 0x1
 4737 06a4 50       		.byte	0x50
 4738 06a5 01       		.uleb128 0x1
 4739 06a6 30       		.byte	0x30
 4740 06a7 00       		.byte	0
 4741 06a8 1A       		.uleb128 0x1a
 4742 06a9 18000000 		.4byte	.LVL95
 4743 06ad 5E040000 		.4byte	0x45e
 4744 06b1 19       		.uleb128 0x19
 4745 06b2 01       		.uleb128 0x1
 4746 06b3 50       		.byte	0x50
 4747 06b4 05       		.uleb128 0x5
 4748 06b5 03       		.byte	0x3
 4749 06b6 00000000 		.4byte	.LANCHOR0
 4750 06ba 19       		.uleb128 0x19
 4751 06bb 01       		.uleb128 0x1
 4752 06bc 51       		.byte	0x51
 4753 06bd 03       		.uleb128 0x3
 4754 06be 0A       		.byte	0xa
 4755 06bf 0104     		.2byte	0x401
 4756 06c1 00       		.byte	0
ARM GAS  C:\Users\Besitzer\AppData\Local\Temp\cczB0neC.s 			page 106


 4757 06c2 00       		.byte	0
 4758 06c3 20       		.uleb128 0x20
 4759 06c4 BA060000 		.4byte	.LASF72
 4760 06c8 01       		.byte	0x1
 4761 06c9 A301     		.2byte	0x1a3
 4762 06cb 00000000 		.4byte	.LFB9
 4763 06cf 1E000000 		.4byte	.LFE9-.LFB9
 4764 06d3 01       		.uleb128 0x1
 4765 06d4 9C       		.byte	0x9c
 4766 06d5 FE060000 		.4byte	0x6fe
 4767 06d9 15       		.uleb128 0x15
 4768 06da A0050000 		.4byte	.LASF63
 4769 06de 01       		.byte	0x1
 4770 06df A501     		.2byte	0x1a5
 4771 06e1 11060000 		.4byte	0x611
 4772 06e5 02       		.uleb128 0x2
 4773 06e6 91       		.byte	0x91
 4774 06e7 74       		.sleb128 -12
 4775 06e8 1A       		.uleb128 0x1a
 4776 06e9 18000000 		.4byte	.LVL96
 4777 06ed 5E040000 		.4byte	0x45e
 4778 06f1 19       		.uleb128 0x19
 4779 06f2 01       		.uleb128 0x1
 4780 06f3 50       		.byte	0x50
 4781 06f4 02       		.uleb128 0x2
 4782 06f5 91       		.byte	0x91
 4783 06f6 74       		.sleb128 -12
 4784 06f7 19       		.uleb128 0x19
 4785 06f8 01       		.uleb128 0x1
 4786 06f9 51       		.byte	0x51
 4787 06fa 01       		.uleb128 0x1
 4788 06fb 32       		.byte	0x32
 4789 06fc 00       		.byte	0
 4790 06fd 00       		.byte	0
 4791 06fe 20       		.uleb128 0x20
 4792 06ff 63060000 		.4byte	.LASF73
 4793 0703 01       		.byte	0x1
 4794 0704 B501     		.2byte	0x1b5
 4795 0706 00000000 		.4byte	.LFB10
 4796 070a 3A000000 		.4byte	.LFE10-.LFB10
 4797 070e 01       		.uleb128 0x1
 4798 070f 9C       		.byte	0x9c
 4799 0710 79070000 		.4byte	0x779
 4800 0714 10       		.uleb128 0x10
 4801 0715 7C050000 		.4byte	.LASF74
 4802 0719 01       		.byte	0x1
 4803 071a B501     		.2byte	0x1b5
 4804 071c 36010000 		.4byte	0x136
 4805 0720 99050000 		.4byte	.LLST32
 4806 0724 0F       		.uleb128 0xf
 4807 0725 656E6400 		.ascii	"end\000"
 4808 0729 01       		.byte	0x1
 4809 072a B501     		.2byte	0x1b5
 4810 072c 36010000 		.4byte	0x136
 4811 0730 C6050000 		.4byte	.LLST33
 4812 0734 0F       		.uleb128 0xf
 4813 0735 64697200 		.ascii	"dir\000"
ARM GAS  C:\Users\Besitzer\AppData\Local\Temp\cczB0neC.s 			page 107


 4814 0739 01       		.byte	0x1
 4815 073a B501     		.2byte	0x1b5
 4816 073c 5A010000 		.4byte	0x15a
 4817 0740 F3050000 		.4byte	.LLST34
 4818 0744 10       		.uleb128 0x10
 4819 0745 8A000000 		.4byte	.LASF75
 4820 0749 01       		.byte	0x1
 4821 074a B501     		.2byte	0x1b5
 4822 074c A2010000 		.4byte	0x1a2
 4823 0750 14060000 		.4byte	.LLST35
 4824 0754 15       		.uleb128 0x15
 4825 0755 A0050000 		.4byte	.LASF63
 4826 0759 01       		.byte	0x1
 4827 075a B701     		.2byte	0x1b7
 4828 075c 79070000 		.4byte	0x779
 4829 0760 02       		.uleb128 0x2
 4830 0761 91       		.byte	0x91
 4831 0762 6C       		.sleb128 -20
 4832 0763 1A       		.uleb128 0x1a
 4833 0764 36000000 		.4byte	.LVL101
 4834 0768 5E040000 		.4byte	0x45e
 4835 076c 19       		.uleb128 0x19
 4836 076d 01       		.uleb128 0x1
 4837 076e 50       		.byte	0x50
 4838 076f 02       		.uleb128 0x2
 4839 0770 91       		.byte	0x91
 4840 0771 6C       		.sleb128 -20
 4841 0772 19       		.uleb128 0x19
 4842 0773 01       		.uleb128 0x1
 4843 0774 51       		.byte	0x51
 4844 0775 01       		.uleb128 0x1
 4845 0776 39       		.byte	0x39
 4846 0777 00       		.byte	0
 4847 0778 00       		.byte	0
 4848 0779 1D       		.uleb128 0x1d
 4849 077a AD010000 		.4byte	0x1ad
 4850 077e 89070000 		.4byte	0x789
 4851 0782 1E       		.uleb128 0x1e
 4852 0783 A9000000 		.4byte	0xa9
 4853 0787 08       		.byte	0x8
 4854 0788 00       		.byte	0
 4855 0789 20       		.uleb128 0x20
 4856 078a 15000000 		.4byte	.LASF76
 4857 078e 01       		.byte	0x1
 4858 078f CD01     		.2byte	0x1cd
 4859 0791 00000000 		.4byte	.LFB11
 4860 0795 40000000 		.4byte	.LFE11-.LFB11
 4861 0799 01       		.uleb128 0x1
 4862 079a 9C       		.byte	0x9c
 4863 079b BE070000 		.4byte	0x7be
 4864 079f 21       		.uleb128 0x21
 4865 07a0 7D020000 		.4byte	.LASF77
 4866 07a4 01       		.byte	0x1
 4867 07a5 CD01     		.2byte	0x1cd
 4868 07a7 D8000000 		.4byte	0xd8
 4869 07ab 01       		.uleb128 0x1
 4870 07ac 50       		.byte	0x50
ARM GAS  C:\Users\Besitzer\AppData\Local\Temp\cczB0neC.s 			page 108


 4871 07ad 10       		.uleb128 0x10
 4872 07ae 58040000 		.4byte	.LASF78
 4873 07b2 01       		.byte	0x1
 4874 07b3 CD01     		.2byte	0x1cd
 4875 07b5 D8000000 		.4byte	0xd8
 4876 07b9 41060000 		.4byte	.LLST36
 4877 07bd 00       		.byte	0
 4878 07be 22       		.uleb128 0x22
 4879 07bf D6030000 		.4byte	.LASF79
 4880 07c3 01       		.byte	0x1
 4881 07c4 E101     		.2byte	0x1e1
 4882 07c6 D8000000 		.4byte	0xd8
 4883 07ca 00000000 		.4byte	.LFB12
 4884 07ce 0C000000 		.4byte	.LFE12-.LFB12
 4885 07d2 01       		.uleb128 0x1
 4886 07d3 9C       		.byte	0x9c
 4887 07d4 22       		.uleb128 0x22
 4888 07d5 C3040000 		.4byte	.LASF80
 4889 07d9 01       		.byte	0x1
 4890 07da EB01     		.2byte	0x1eb
 4891 07dc D8000000 		.4byte	0xd8
 4892 07e0 00000000 		.4byte	.LFB13
 4893 07e4 0C000000 		.4byte	.LFE13-.LFB13
 4894 07e8 01       		.uleb128 0x1
 4895 07e9 9C       		.byte	0x9c
 4896 07ea 22       		.uleb128 0x22
 4897 07eb 1E000000 		.4byte	.LASF81
 4898 07ef 01       		.byte	0x1
 4899 07f0 F501     		.2byte	0x1f5
 4900 07f2 CD000000 		.4byte	0xcd
 4901 07f6 00000000 		.4byte	.LFB14
 4902 07fa 0C000000 		.4byte	.LFE14-.LFB14
 4903 07fe 01       		.uleb128 0x1
 4904 07ff 9C       		.byte	0x9c
 4905 0800 20       		.uleb128 0x20
 4906 0801 F0060000 		.4byte	.LASF82
 4907 0805 01       		.byte	0x1
 4908 0806 0002     		.2byte	0x200
 4909 0808 00000000 		.4byte	.LFB15
 4910 080c 0C000000 		.4byte	.LFE15-.LFB15
 4911 0810 01       		.uleb128 0x1
 4912 0811 9C       		.byte	0x9c
 4913 0812 2F080000 		.4byte	0x82f
 4914 0816 17       		.uleb128 0x17
 4915 0817 7800     		.ascii	"x\000"
 4916 0819 01       		.byte	0x1
 4917 081a 0002     		.2byte	0x200
 4918 081c D8000000 		.4byte	0xd8
 4919 0820 01       		.uleb128 0x1
 4920 0821 50       		.byte	0x50
 4921 0822 17       		.uleb128 0x17
 4922 0823 7900     		.ascii	"y\000"
 4923 0825 01       		.byte	0x1
 4924 0826 0002     		.2byte	0x200
 4925 0828 D8000000 		.4byte	0xd8
 4926 082c 01       		.uleb128 0x1
 4927 082d 51       		.byte	0x51
ARM GAS  C:\Users\Besitzer\AppData\Local\Temp\cczB0neC.s 			page 109


 4928 082e 00       		.byte	0
 4929 082f 20       		.uleb128 0x20
 4930 0830 57050000 		.4byte	.LASF83
 4931 0834 01       		.byte	0x1
 4932 0835 0B02     		.2byte	0x20b
 4933 0837 00000000 		.4byte	.LFB16
 4934 083b 10000000 		.4byte	.LFE16-.LFB16
 4935 083f 01       		.uleb128 0x1
 4936 0840 9C       		.byte	0x9c
 4937 0841 56080000 		.4byte	0x856
 4938 0845 10       		.uleb128 0x10
 4939 0846 34010000 		.4byte	.LASF59
 4940 084a 01       		.byte	0x1
 4941 084b 0B02     		.2byte	0x20b
 4942 084d CD000000 		.4byte	0xcd
 4943 0851 63060000 		.4byte	.LLST37
 4944 0855 00       		.byte	0
 4945 0856 20       		.uleb128 0x20
 4946 0857 5F040000 		.4byte	.LASF84
 4947 085b 01       		.byte	0x1
 4948 085c 1602     		.2byte	0x216
 4949 085e 00000000 		.4byte	.LFB17
 4950 0862 0C000000 		.4byte	.LFE17-.LFB17
 4951 0866 01       		.uleb128 0x1
 4952 0867 9C       		.byte	0x9c
 4953 0868 7B080000 		.4byte	0x87b
 4954 086c 21       		.uleb128 0x21
 4955 086d 51050000 		.4byte	.LASF48
 4956 0871 01       		.byte	0x1
 4957 0872 1602     		.2byte	0x216
 4958 0874 E3000000 		.4byte	0xe3
 4959 0878 01       		.uleb128 0x1
 4960 0879 50       		.byte	0x50
 4961 087a 00       		.byte	0
 4962 087b 20       		.uleb128 0x20
 4963 087c 38000000 		.4byte	.LASF85
 4964 0880 01       		.byte	0x1
 4965 0881 2102     		.2byte	0x221
 4966 0883 00000000 		.4byte	.LFB18
 4967 0887 0C000000 		.4byte	.LFE18-.LFB18
 4968 088b 01       		.uleb128 0x1
 4969 088c 9C       		.byte	0x9c
 4970 088d A0080000 		.4byte	0x8a0
 4971 0891 21       		.uleb128 0x21
 4972 0892 51050000 		.4byte	.LASF48
 4973 0896 01       		.byte	0x1
 4974 0897 2102     		.2byte	0x221
 4975 0899 E3000000 		.4byte	0xe3
 4976 089d 01       		.uleb128 0x1
 4977 089e 50       		.byte	0x50
 4978 089f 00       		.byte	0
 4979 08a0 20       		.uleb128 0x20
 4980 08a1 FE060000 		.4byte	.LASF86
 4981 08a5 01       		.byte	0x1
 4982 08a6 2C02     		.2byte	0x22c
 4983 08a8 00000000 		.4byte	.LFB19
 4984 08ac 0C000000 		.4byte	.LFE19-.LFB19
ARM GAS  C:\Users\Besitzer\AppData\Local\Temp\cczB0neC.s 			page 110


 4985 08b0 01       		.uleb128 0x1
 4986 08b1 9C       		.byte	0x9c
 4987 08b2 C3080000 		.4byte	0x8c3
 4988 08b6 17       		.uleb128 0x17
 4989 08b7 7700     		.ascii	"w\000"
 4990 08b9 01       		.byte	0x1
 4991 08ba 2C02     		.2byte	0x22c
 4992 08bc CD000000 		.4byte	0xcd
 4993 08c0 01       		.uleb128 0x1
 4994 08c1 50       		.byte	0x50
 4995 08c2 00       		.byte	0
 4996 08c3 20       		.uleb128 0x20
 4997 08c4 4E000000 		.4byte	.LASF87
 4998 08c8 01       		.byte	0x1
 4999 08c9 3602     		.2byte	0x236
 5000 08cb 00000000 		.4byte	.LFB20
 5001 08cf 44000000 		.4byte	.LFE20-.LFB20
 5002 08d3 01       		.uleb128 0x1
 5003 08d4 9C       		.byte	0x9c
 5004 08d5 E8080000 		.4byte	0x8e8
 5005 08d9 0F       		.uleb128 0xf
 5006 08da 7800     		.ascii	"x\000"
 5007 08dc 01       		.byte	0x1
 5008 08dd 3602     		.2byte	0x236
 5009 08df CD000000 		.4byte	0xcd
 5010 08e3 84060000 		.4byte	.LLST38
 5011 08e7 00       		.byte	0
 5012 08e8 20       		.uleb128 0x20
 5013 08e9 00000000 		.4byte	.LASF88
 5014 08ed 01       		.byte	0x1
 5015 08ee 6A02     		.2byte	0x26a
 5016 08f0 00000000 		.4byte	.LFB22
 5017 08f4 4C000000 		.4byte	.LFE22-.LFB22
 5018 08f8 01       		.uleb128 0x1
 5019 08f9 9C       		.byte	0x9c
 5020 08fa 55090000 		.4byte	0x955
 5021 08fe 0F       		.uleb128 0xf
 5022 08ff 7800     		.ascii	"x\000"
 5023 0901 01       		.byte	0x1
 5024 0902 6A02     		.2byte	0x26a
 5025 0904 D8000000 		.4byte	0xd8
 5026 0908 A5060000 		.4byte	.LLST39
 5027 090c 0F       		.uleb128 0xf
 5028 090d 7900     		.ascii	"y\000"
 5029 090f 01       		.byte	0x1
 5030 0910 6A02     		.2byte	0x26a
 5031 0912 D8000000 		.4byte	0xd8
 5032 0916 E8060000 		.4byte	.LLST40
 5033 091a 10       		.uleb128 0x10
 5034 091b 51050000 		.4byte	.LASF48
 5035 091f 01       		.byte	0x1
 5036 0920 6A02     		.2byte	0x26a
 5037 0922 E3000000 		.4byte	0xe3
 5038 0926 2B070000 		.4byte	.LLST41
 5039 092a 18       		.uleb128 0x18
 5040 092b 36000000 		.4byte	.LVL118
 5041 092f 54030000 		.4byte	0x354
ARM GAS  C:\Users\Besitzer\AppData\Local\Temp\cczB0neC.s 			page 111


 5042 0933 44090000 		.4byte	0x944
 5043 0937 19       		.uleb128 0x19
 5044 0938 01       		.uleb128 0x1
 5045 0939 50       		.byte	0x50
 5046 093a 02       		.uleb128 0x2
 5047 093b 91       		.byte	0x91
 5048 093c 76       		.sleb128 -10
 5049 093d 19       		.uleb128 0x19
 5050 093e 01       		.uleb128 0x1
 5051 093f 51       		.byte	0x51
 5052 0940 02       		.uleb128 0x2
 5053 0941 91       		.byte	0x91
 5054 0942 74       		.sleb128 -12
 5055 0943 00       		.byte	0
 5056 0944 1A       		.uleb128 0x1a
 5057 0945 44000000 		.4byte	.LVL119
 5058 0949 E4010000 		.4byte	0x1e4
 5059 094d 19       		.uleb128 0x19
 5060 094e 01       		.uleb128 0x1
 5061 094f 52       		.byte	0x52
 5062 0950 02       		.uleb128 0x2
 5063 0951 74       		.byte	0x74
 5064 0952 00       		.sleb128 0
 5065 0953 00       		.byte	0
 5066 0954 00       		.byte	0
 5067 0955 20       		.uleb128 0x20
 5068 0956 2F030000 		.4byte	.LASF89
 5069 095a 01       		.byte	0x1
 5070 095b AB02     		.2byte	0x2ab
 5071 095d 00000000 		.4byte	.LFB24
 5072 0961 D6000000 		.4byte	.LFE24-.LFB24
 5073 0965 01       		.uleb128 0x1
 5074 0966 9C       		.byte	0x9c
 5075 0967 780A0000 		.4byte	0xa78
 5076 096b 0F       		.uleb128 0xf
 5077 096c 783000   		.ascii	"x0\000"
 5078 096f 01       		.byte	0x1
 5079 0970 AB02     		.2byte	0x2ab
 5080 0972 D8000000 		.4byte	0xd8
 5081 0976 4C070000 		.4byte	.LLST42
 5082 097a 0F       		.uleb128 0xf
 5083 097b 793000   		.ascii	"y0\000"
 5084 097e 01       		.byte	0x1
 5085 097f AB02     		.2byte	0x2ab
 5086 0981 D8000000 		.4byte	0xd8
 5087 0985 99070000 		.4byte	.LLST43
 5088 0989 0F       		.uleb128 0xf
 5089 098a 783100   		.ascii	"x1\000"
 5090 098d 01       		.byte	0x1
 5091 098e AB02     		.2byte	0x2ab
 5092 0990 D8000000 		.4byte	0xd8
 5093 0994 E6070000 		.4byte	.LLST44
 5094 0998 0F       		.uleb128 0xf
 5095 0999 793100   		.ascii	"y1\000"
 5096 099c 01       		.byte	0x1
 5097 099d AB02     		.2byte	0x2ab
 5098 099f D8000000 		.4byte	0xd8
ARM GAS  C:\Users\Besitzer\AppData\Local\Temp\cczB0neC.s 			page 112


 5099 09a3 12080000 		.4byte	.LLST45
 5100 09a7 21       		.uleb128 0x21
 5101 09a8 51050000 		.4byte	.LASF48
 5102 09ac 01       		.byte	0x1
 5103 09ad AB02     		.2byte	0x2ab
 5104 09af E3000000 		.4byte	0xe3
 5105 09b3 02       		.uleb128 0x2
 5106 09b4 91       		.byte	0x91
 5107 09b5 00       		.sleb128 0
 5108 09b6 23       		.uleb128 0x23
 5109 09b7 7400     		.ascii	"t\000"
 5110 09b9 01       		.byte	0x1
 5111 09ba B302     		.2byte	0x2b3
 5112 09bc D8000000 		.4byte	0xd8
 5113 09c0 12       		.uleb128 0x12
 5114 09c1 82030000 		.4byte	.LASF90
 5115 09c5 01       		.byte	0x1
 5116 09c6 B502     		.2byte	0x2b5
 5117 09c8 D8000000 		.4byte	0xd8
 5118 09cc 6D080000 		.4byte	.LLST46
 5119 09d0 13       		.uleb128 0x13
 5120 09d1 647800   		.ascii	"dx\000"
 5121 09d4 01       		.byte	0x1
 5122 09d5 BE02     		.2byte	0x2be
 5123 09d7 D8000000 		.4byte	0xd8
 5124 09db 88080000 		.4byte	.LLST47
 5125 09df 13       		.uleb128 0x13
 5126 09e0 647900   		.ascii	"dy\000"
 5127 09e3 01       		.byte	0x1
 5128 09e4 BE02     		.2byte	0x2be
 5129 09e6 D8000000 		.4byte	0xd8
 5130 09ea A6080000 		.4byte	.LLST48
 5131 09ee 13       		.uleb128 0x13
 5132 09ef 65727200 		.ascii	"err\000"
 5133 09f3 01       		.byte	0x1
 5134 09f4 C102     		.2byte	0x2c1
 5135 09f6 D8000000 		.4byte	0xd8
 5136 09fa B9080000 		.4byte	.LLST49
 5137 09fe 12       		.uleb128 0x12
 5138 09ff 8C050000 		.4byte	.LASF91
 5139 0a03 01       		.byte	0x1
 5140 0a04 C202     		.2byte	0x2c2
 5141 0a06 D8000000 		.4byte	0xd8
 5142 0a0a ED080000 		.4byte	.LLST50
 5143 0a0e 18       		.uleb128 0x18
 5144 0a0f 28000000 		.4byte	.LVL125
 5145 0a13 9A030000 		.4byte	0x39a
 5146 0a17 370A0000 		.4byte	0xa37
 5147 0a1b 19       		.uleb128 0x19
 5148 0a1c 01       		.uleb128 0x1
 5149 0a1d 50       		.byte	0x50
 5150 0a1e 02       		.uleb128 0x2
 5151 0a1f 75       		.byte	0x75
 5152 0a20 00       		.sleb128 0
 5153 0a21 19       		.uleb128 0x19
 5154 0a22 01       		.uleb128 0x1
 5155 0a23 51       		.byte	0x51
ARM GAS  C:\Users\Besitzer\AppData\Local\Temp\cczB0neC.s 			page 113


 5156 0a24 02       		.uleb128 0x2
 5157 0a25 76       		.byte	0x76
 5158 0a26 00       		.sleb128 0
 5159 0a27 19       		.uleb128 0x19
 5160 0a28 01       		.uleb128 0x1
 5161 0a29 52       		.byte	0x52
 5162 0a2a 02       		.uleb128 0x2
 5163 0a2b 77       		.byte	0x77
 5164 0a2c 00       		.sleb128 0
 5165 0a2d 19       		.uleb128 0x19
 5166 0a2e 02       		.uleb128 0x2
 5167 0a2f 7D       		.byte	0x7d
 5168 0a30 00       		.sleb128 0
 5169 0a31 04       		.uleb128 0x4
 5170 0a32 91       		.byte	0x91
 5171 0a33 50       		.sleb128 -48
 5172 0a34 94       		.byte	0x94
 5173 0a35 02       		.byte	0x2
 5174 0a36 00       		.byte	0
 5175 0a37 18       		.uleb128 0x18
 5176 0a38 A4000000 		.4byte	.LVL142
 5177 0a3c E8080000 		.4byte	0x8e8
 5178 0a40 590A0000 		.4byte	0xa59
 5179 0a44 19       		.uleb128 0x19
 5180 0a45 01       		.uleb128 0x1
 5181 0a46 50       		.byte	0x50
 5182 0a47 02       		.uleb128 0x2
 5183 0a48 76       		.byte	0x76
 5184 0a49 00       		.sleb128 0
 5185 0a4a 19       		.uleb128 0x19
 5186 0a4b 01       		.uleb128 0x1
 5187 0a4c 51       		.byte	0x51
 5188 0a4d 02       		.uleb128 0x2
 5189 0a4e 75       		.byte	0x75
 5190 0a4f 00       		.sleb128 0
 5191 0a50 19       		.uleb128 0x19
 5192 0a51 01       		.uleb128 0x1
 5193 0a52 52       		.byte	0x52
 5194 0a53 04       		.uleb128 0x4
 5195 0a54 91       		.byte	0x91
 5196 0a55 50       		.sleb128 -48
 5197 0a56 94       		.byte	0x94
 5198 0a57 02       		.byte	0x2
 5199 0a58 00       		.byte	0
 5200 0a59 1A       		.uleb128 0x1a
 5201 0a5a B0000000 		.4byte	.LVL143
 5202 0a5e E8080000 		.4byte	0x8e8
 5203 0a62 19       		.uleb128 0x19
 5204 0a63 01       		.uleb128 0x1
 5205 0a64 50       		.byte	0x50
 5206 0a65 02       		.uleb128 0x2
 5207 0a66 75       		.byte	0x75
 5208 0a67 00       		.sleb128 0
 5209 0a68 19       		.uleb128 0x19
 5210 0a69 01       		.uleb128 0x1
 5211 0a6a 51       		.byte	0x51
 5212 0a6b 02       		.uleb128 0x2
ARM GAS  C:\Users\Besitzer\AppData\Local\Temp\cczB0neC.s 			page 114


 5213 0a6c 76       		.byte	0x76
 5214 0a6d 00       		.sleb128 0
 5215 0a6e 19       		.uleb128 0x19
 5216 0a6f 01       		.uleb128 0x1
 5217 0a70 52       		.byte	0x52
 5218 0a71 04       		.uleb128 0x4
 5219 0a72 91       		.byte	0x91
 5220 0a73 50       		.sleb128 -48
 5221 0a74 94       		.byte	0x94
 5222 0a75 02       		.byte	0x2
 5223 0a76 00       		.byte	0
 5224 0a77 00       		.byte	0
 5225 0a78 20       		.uleb128 0x20
 5226 0a79 6E030000 		.4byte	.LASF92
 5227 0a7d 01       		.byte	0x1
 5228 0a7e DF02     		.2byte	0x2df
 5229 0a80 00000000 		.4byte	.LFB25
 5230 0a84 56000000 		.4byte	.LFE25-.LFB25
 5231 0a88 01       		.uleb128 0x1
 5232 0a89 9C       		.byte	0x9c
 5233 0a8a 860B0000 		.4byte	0xb86
 5234 0a8e 0F       		.uleb128 0xf
 5235 0a8f 7800     		.ascii	"x\000"
 5236 0a91 01       		.byte	0x1
 5237 0a92 DF02     		.2byte	0x2df
 5238 0a94 D8000000 		.4byte	0xd8
 5239 0a98 01090000 		.4byte	.LLST51
 5240 0a9c 0F       		.uleb128 0xf
 5241 0a9d 7900     		.ascii	"y\000"
 5242 0a9f 01       		.byte	0x1
 5243 0aa0 DF02     		.2byte	0x2df
 5244 0aa2 D8000000 		.4byte	0xd8
 5245 0aa6 22090000 		.4byte	.LLST52
 5246 0aaa 0F       		.uleb128 0xf
 5247 0aab 7700     		.ascii	"w\000"
 5248 0aad 01       		.byte	0x1
 5249 0aae DF02     		.2byte	0x2df
 5250 0ab0 D8000000 		.4byte	0xd8
 5251 0ab4 43090000 		.4byte	.LLST53
 5252 0ab8 0F       		.uleb128 0xf
 5253 0ab9 6800     		.ascii	"h\000"
 5254 0abb 01       		.byte	0x1
 5255 0abc DF02     		.2byte	0x2df
 5256 0abe D8000000 		.4byte	0xd8
 5257 0ac2 64090000 		.4byte	.LLST54
 5258 0ac6 21       		.uleb128 0x21
 5259 0ac7 51050000 		.4byte	.LASF48
 5260 0acb 01       		.byte	0x1
 5261 0acc DF02     		.2byte	0x2df
 5262 0ace E3000000 		.4byte	0xe3
 5263 0ad2 02       		.uleb128 0x2
 5264 0ad3 91       		.byte	0x91
 5265 0ad4 00       		.sleb128 0
 5266 0ad5 18       		.uleb128 0x18
 5267 0ad6 20000000 		.4byte	.LVL156
 5268 0ada 55090000 		.4byte	0x955
 5269 0ade 020B0000 		.4byte	0xb02
ARM GAS  C:\Users\Besitzer\AppData\Local\Temp\cczB0neC.s 			page 115


 5270 0ae2 19       		.uleb128 0x19
 5271 0ae3 01       		.uleb128 0x1
 5272 0ae4 50       		.byte	0x50
 5273 0ae5 02       		.uleb128 0x2
 5274 0ae6 78       		.byte	0x78
 5275 0ae7 00       		.sleb128 0
 5276 0ae8 19       		.uleb128 0x19
 5277 0ae9 01       		.uleb128 0x1
 5278 0aea 51       		.byte	0x51
 5279 0aeb 02       		.uleb128 0x2
 5280 0aec 76       		.byte	0x76
 5281 0aed 00       		.sleb128 0
 5282 0aee 19       		.uleb128 0x19
 5283 0aef 01       		.uleb128 0x1
 5284 0af0 52       		.byte	0x52
 5285 0af1 02       		.uleb128 0x2
 5286 0af2 75       		.byte	0x75
 5287 0af3 00       		.sleb128 0
 5288 0af4 19       		.uleb128 0x19
 5289 0af5 01       		.uleb128 0x1
 5290 0af6 53       		.byte	0x53
 5291 0af7 02       		.uleb128 0x2
 5292 0af8 76       		.byte	0x76
 5293 0af9 00       		.sleb128 0
 5294 0afa 19       		.uleb128 0x19
 5295 0afb 02       		.uleb128 0x2
 5296 0afc 7D       		.byte	0x7d
 5297 0afd 00       		.sleb128 0
 5298 0afe 02       		.uleb128 0x2
 5299 0aff 77       		.byte	0x77
 5300 0b00 00       		.sleb128 0
 5301 0b01 00       		.byte	0
 5302 0b02 18       		.uleb128 0x18
 5303 0b03 34000000 		.4byte	.LVL157
 5304 0b07 55090000 		.4byte	0x955
 5305 0b0b 2F0B0000 		.4byte	0xb2f
 5306 0b0f 19       		.uleb128 0x19
 5307 0b10 01       		.uleb128 0x1
 5308 0b11 50       		.byte	0x50
 5309 0b12 02       		.uleb128 0x2
 5310 0b13 78       		.byte	0x78
 5311 0b14 00       		.sleb128 0
 5312 0b15 19       		.uleb128 0x19
 5313 0b16 01       		.uleb128 0x1
 5314 0b17 51       		.byte	0x51
 5315 0b18 02       		.uleb128 0x2
 5316 0b19 74       		.byte	0x74
 5317 0b1a 00       		.sleb128 0
 5318 0b1b 19       		.uleb128 0x19
 5319 0b1c 01       		.uleb128 0x1
 5320 0b1d 52       		.byte	0x52
 5321 0b1e 02       		.uleb128 0x2
 5322 0b1f 75       		.byte	0x75
 5323 0b20 00       		.sleb128 0
 5324 0b21 19       		.uleb128 0x19
 5325 0b22 01       		.uleb128 0x1
 5326 0b23 53       		.byte	0x53
ARM GAS  C:\Users\Besitzer\AppData\Local\Temp\cczB0neC.s 			page 116


 5327 0b24 02       		.uleb128 0x2
 5328 0b25 74       		.byte	0x74
 5329 0b26 00       		.sleb128 0
 5330 0b27 19       		.uleb128 0x19
 5331 0b28 02       		.uleb128 0x2
 5332 0b29 7D       		.byte	0x7d
 5333 0b2a 00       		.sleb128 0
 5334 0b2b 02       		.uleb128 0x2
 5335 0b2c 77       		.byte	0x77
 5336 0b2d 00       		.sleb128 0
 5337 0b2e 00       		.byte	0
 5338 0b2f 18       		.uleb128 0x18
 5339 0b30 42000000 		.4byte	.LVL158
 5340 0b34 55090000 		.4byte	0x955
 5341 0b38 5C0B0000 		.4byte	0xb5c
 5342 0b3c 19       		.uleb128 0x19
 5343 0b3d 01       		.uleb128 0x1
 5344 0b3e 50       		.byte	0x50
 5345 0b3f 02       		.uleb128 0x2
 5346 0b40 78       		.byte	0x78
 5347 0b41 00       		.sleb128 0
 5348 0b42 19       		.uleb128 0x19
 5349 0b43 01       		.uleb128 0x1
 5350 0b44 51       		.byte	0x51
 5351 0b45 02       		.uleb128 0x2
 5352 0b46 76       		.byte	0x76
 5353 0b47 00       		.sleb128 0
 5354 0b48 19       		.uleb128 0x19
 5355 0b49 01       		.uleb128 0x1
 5356 0b4a 52       		.byte	0x52
 5357 0b4b 02       		.uleb128 0x2
 5358 0b4c 78       		.byte	0x78
 5359 0b4d 00       		.sleb128 0
 5360 0b4e 19       		.uleb128 0x19
 5361 0b4f 01       		.uleb128 0x1
 5362 0b50 53       		.byte	0x53
 5363 0b51 02       		.uleb128 0x2
 5364 0b52 74       		.byte	0x74
 5365 0b53 00       		.sleb128 0
 5366 0b54 19       		.uleb128 0x19
 5367 0b55 02       		.uleb128 0x2
 5368 0b56 7D       		.byte	0x7d
 5369 0b57 00       		.sleb128 0
 5370 0b58 02       		.uleb128 0x2
 5371 0b59 77       		.byte	0x77
 5372 0b5a 00       		.sleb128 0
 5373 0b5b 00       		.byte	0
 5374 0b5c 1A       		.uleb128 0x1a
 5375 0b5d 50000000 		.4byte	.LVL159
 5376 0b61 55090000 		.4byte	0x955
 5377 0b65 19       		.uleb128 0x19
 5378 0b66 01       		.uleb128 0x1
 5379 0b67 50       		.byte	0x50
 5380 0b68 02       		.uleb128 0x2
 5381 0b69 75       		.byte	0x75
 5382 0b6a 00       		.sleb128 0
 5383 0b6b 19       		.uleb128 0x19
ARM GAS  C:\Users\Besitzer\AppData\Local\Temp\cczB0neC.s 			page 117


 5384 0b6c 01       		.uleb128 0x1
 5385 0b6d 51       		.byte	0x51
 5386 0b6e 02       		.uleb128 0x2
 5387 0b6f 76       		.byte	0x76
 5388 0b70 00       		.sleb128 0
 5389 0b71 19       		.uleb128 0x19
 5390 0b72 01       		.uleb128 0x1
 5391 0b73 52       		.byte	0x52
 5392 0b74 02       		.uleb128 0x2
 5393 0b75 75       		.byte	0x75
 5394 0b76 00       		.sleb128 0
 5395 0b77 19       		.uleb128 0x19
 5396 0b78 01       		.uleb128 0x1
 5397 0b79 53       		.byte	0x53
 5398 0b7a 02       		.uleb128 0x2
 5399 0b7b 74       		.byte	0x74
 5400 0b7c 00       		.sleb128 0
 5401 0b7d 19       		.uleb128 0x19
 5402 0b7e 02       		.uleb128 0x2
 5403 0b7f 7D       		.byte	0x7d
 5404 0b80 00       		.sleb128 0
 5405 0b81 02       		.uleb128 0x2
 5406 0b82 77       		.byte	0x77
 5407 0b83 00       		.sleb128 0
 5408 0b84 00       		.byte	0
 5409 0b85 00       		.byte	0
 5410 0b86 20       		.uleb128 0x20
 5411 0b87 EE040000 		.4byte	.LASF93
 5412 0b8b 01       		.byte	0x1
 5413 0b8c F102     		.2byte	0x2f1
 5414 0b8e 00000000 		.4byte	.LFB26
 5415 0b92 66000000 		.4byte	.LFE26-.LFB26
 5416 0b96 01       		.uleb128 0x1
 5417 0b97 9C       		.byte	0x9c
 5418 0b98 520C0000 		.4byte	0xc52
 5419 0b9c 0F       		.uleb128 0xf
 5420 0b9d 7800     		.ascii	"x\000"
 5421 0b9f 01       		.byte	0x1
 5422 0ba0 F102     		.2byte	0x2f1
 5423 0ba2 D8000000 		.4byte	0xd8
 5424 0ba6 85090000 		.4byte	.LLST55
 5425 0baa 0F       		.uleb128 0xf
 5426 0bab 7900     		.ascii	"y\000"
 5427 0bad 01       		.byte	0x1
 5428 0bae F102     		.2byte	0x2f1
 5429 0bb0 D8000000 		.4byte	0xd8
 5430 0bb4 BF090000 		.4byte	.LLST56
 5431 0bb8 0F       		.uleb128 0xf
 5432 0bb9 7700     		.ascii	"w\000"
 5433 0bbb 01       		.byte	0x1
 5434 0bbc F102     		.2byte	0x2f1
 5435 0bbe D8000000 		.4byte	0xd8
 5436 0bc2 F9090000 		.4byte	.LLST57
 5437 0bc6 0F       		.uleb128 0xf
 5438 0bc7 6800     		.ascii	"h\000"
 5439 0bc9 01       		.byte	0x1
 5440 0bca F102     		.2byte	0x2f1
ARM GAS  C:\Users\Besitzer\AppData\Local\Temp\cczB0neC.s 			page 118


 5441 0bcc D8000000 		.4byte	0xd8
 5442 0bd0 330A0000 		.4byte	.LLST58
 5443 0bd4 21       		.uleb128 0x21
 5444 0bd5 51050000 		.4byte	.LASF48
 5445 0bd9 01       		.byte	0x1
 5446 0bda F102     		.2byte	0x2f1
 5447 0bdc E3000000 		.4byte	0xe3
 5448 0be0 02       		.uleb128 0x2
 5449 0be1 91       		.byte	0x91
 5450 0be2 00       		.sleb128 0
 5451 0be3 13       		.uleb128 0x13
 5452 0be4 6900     		.ascii	"i\000"
 5453 0be6 01       		.byte	0x1
 5454 0be7 F202     		.2byte	0x2f2
 5455 0be9 D8000000 		.4byte	0xd8
 5456 0bed 6D0A0000 		.4byte	.LLST59
 5457 0bf1 18       		.uleb128 0x18
 5458 0bf2 30000000 		.4byte	.LVL163
 5459 0bf6 55090000 		.4byte	0x955
 5460 0bfa 230C0000 		.4byte	0xc23
 5461 0bfe 19       		.uleb128 0x19
 5462 0bff 01       		.uleb128 0x1
 5463 0c00 50       		.byte	0x50
 5464 0c01 02       		.uleb128 0x2
 5465 0c02 74       		.byte	0x74
 5466 0c03 00       		.sleb128 0
 5467 0c04 19       		.uleb128 0x19
 5468 0c05 01       		.uleb128 0x1
 5469 0c06 51       		.byte	0x51
 5470 0c07 02       		.uleb128 0x2
 5471 0c08 76       		.byte	0x76
 5472 0c09 00       		.sleb128 0
 5473 0c0a 19       		.uleb128 0x19
 5474 0c0b 01       		.uleb128 0x1
 5475 0c0c 52       		.byte	0x52
 5476 0c0d 02       		.uleb128 0x2
 5477 0c0e 74       		.byte	0x74
 5478 0c0f 00       		.sleb128 0
 5479 0c10 19       		.uleb128 0x19
 5480 0c11 01       		.uleb128 0x1
 5481 0c12 53       		.byte	0x53
 5482 0c13 07       		.uleb128 0x7
 5483 0c14 76       		.byte	0x76
 5484 0c15 00       		.sleb128 0
 5485 0c16 78       		.byte	0x78
 5486 0c17 00       		.sleb128 0
 5487 0c18 22       		.byte	0x22
 5488 0c19 31       		.byte	0x31
 5489 0c1a 1C       		.byte	0x1c
 5490 0c1b 19       		.uleb128 0x19
 5491 0c1c 02       		.uleb128 0x2
 5492 0c1d 7D       		.byte	0x7d
 5493 0c1e 00       		.sleb128 0
 5494 0c1f 02       		.uleb128 0x2
 5495 0c20 79       		.byte	0x79
 5496 0c21 00       		.sleb128 0
 5497 0c22 00       		.byte	0
ARM GAS  C:\Users\Besitzer\AppData\Local\Temp\cczB0neC.s 			page 119


 5498 0c23 1A       		.uleb128 0x1a
 5499 0c24 54000000 		.4byte	.LVL168
 5500 0c28 55090000 		.4byte	0x955
 5501 0c2c 19       		.uleb128 0x19
 5502 0c2d 01       		.uleb128 0x1
 5503 0c2e 50       		.byte	0x50
 5504 0c2f 02       		.uleb128 0x2
 5505 0c30 75       		.byte	0x75
 5506 0c31 00       		.sleb128 0
 5507 0c32 19       		.uleb128 0x19
 5508 0c33 01       		.uleb128 0x1
 5509 0c34 51       		.byte	0x51
 5510 0c35 02       		.uleb128 0x2
 5511 0c36 74       		.byte	0x74
 5512 0c37 00       		.sleb128 0
 5513 0c38 19       		.uleb128 0x19
 5514 0c39 01       		.uleb128 0x1
 5515 0c3a 52       		.byte	0x52
 5516 0c3b 07       		.uleb128 0x7
 5517 0c3c 75       		.byte	0x75
 5518 0c3d 00       		.sleb128 0
 5519 0c3e 77       		.byte	0x77
 5520 0c3f 00       		.sleb128 0
 5521 0c40 22       		.byte	0x22
 5522 0c41 31       		.byte	0x31
 5523 0c42 1C       		.byte	0x1c
 5524 0c43 19       		.uleb128 0x19
 5525 0c44 01       		.uleb128 0x1
 5526 0c45 53       		.byte	0x53
 5527 0c46 02       		.uleb128 0x2
 5528 0c47 74       		.byte	0x74
 5529 0c48 00       		.sleb128 0
 5530 0c49 19       		.uleb128 0x19
 5531 0c4a 02       		.uleb128 0x2
 5532 0c4b 7D       		.byte	0x7d
 5533 0c4c 00       		.sleb128 0
 5534 0c4d 02       		.uleb128 0x2
 5535 0c4e 79       		.byte	0x79
 5536 0c4f 00       		.sleb128 0
 5537 0c50 00       		.byte	0
 5538 0c51 00       		.byte	0
 5539 0c52 20       		.uleb128 0x20
 5540 0c53 6E020000 		.4byte	.LASF94
 5541 0c57 01       		.byte	0x1
 5542 0c58 0803     		.2byte	0x308
 5543 0c5a 00000000 		.4byte	.LFB27
 5544 0c5e 38010000 		.4byte	.LFE27-.LFB27
 5545 0c62 01       		.uleb128 0x1
 5546 0c63 9C       		.byte	0x9c
 5547 0c64 850E0000 		.4byte	0xe85
 5548 0c68 0F       		.uleb128 0xf
 5549 0c69 783000   		.ascii	"x0\000"
 5550 0c6c 01       		.byte	0x1
 5551 0c6d 0803     		.2byte	0x308
 5552 0c6f D8000000 		.4byte	0xd8
 5553 0c73 B90A0000 		.4byte	.LLST60
 5554 0c77 0F       		.uleb128 0xf
ARM GAS  C:\Users\Besitzer\AppData\Local\Temp\cczB0neC.s 			page 120


 5555 0c78 793000   		.ascii	"y0\000"
 5556 0c7b 01       		.byte	0x1
 5557 0c7c 0803     		.2byte	0x308
 5558 0c7e D8000000 		.4byte	0xd8
 5559 0c82 DA0A0000 		.4byte	.LLST61
 5560 0c86 0F       		.uleb128 0xf
 5561 0c87 7200     		.ascii	"r\000"
 5562 0c89 01       		.byte	0x1
 5563 0c8a 0803     		.2byte	0x308
 5564 0c8c D8000000 		.4byte	0xd8
 5565 0c90 F80A0000 		.4byte	.LLST62
 5566 0c94 10       		.uleb128 0x10
 5567 0c95 51050000 		.4byte	.LASF48
 5568 0c99 01       		.byte	0x1
 5569 0c9a 0803     		.2byte	0x308
 5570 0c9c E3000000 		.4byte	0xe3
 5571 0ca0 240B0000 		.4byte	.LLST63
 5572 0ca4 13       		.uleb128 0x13
 5573 0ca5 6600     		.ascii	"f\000"
 5574 0ca7 01       		.byte	0x1
 5575 0ca8 0A03     		.2byte	0x30a
 5576 0caa D8000000 		.4byte	0xd8
 5577 0cae 450B0000 		.4byte	.LLST64
 5578 0cb2 12       		.uleb128 0x12
 5579 0cb3 8F060000 		.4byte	.LASF95
 5580 0cb7 01       		.byte	0x1
 5581 0cb8 0B03     		.2byte	0x30b
 5582 0cba D8000000 		.4byte	0xd8
 5583 0cbe 6E0B0000 		.4byte	.LLST65
 5584 0cc2 15       		.uleb128 0x15
 5585 0cc3 95060000 		.4byte	.LASF96
 5586 0cc7 01       		.byte	0x1
 5587 0cc8 0C03     		.2byte	0x30c
 5588 0cca D8000000 		.4byte	0xd8
 5589 0cce 02       		.uleb128 0x2
 5590 0ccf 91       		.byte	0x91
 5591 0cd0 54       		.sleb128 -44
 5592 0cd1 13       		.uleb128 0x13
 5593 0cd2 7800     		.ascii	"x\000"
 5594 0cd4 01       		.byte	0x1
 5595 0cd5 0D03     		.2byte	0x30d
 5596 0cd7 D8000000 		.4byte	0xd8
 5597 0cdb 8E0B0000 		.4byte	.LLST66
 5598 0cdf 16       		.uleb128 0x16
 5599 0ce0 7900     		.ascii	"y\000"
 5600 0ce2 01       		.byte	0x1
 5601 0ce3 0E03     		.2byte	0x30e
 5602 0ce5 D8000000 		.4byte	0xd8
 5603 0ce9 02       		.uleb128 0x2
 5604 0cea 91       		.byte	0x91
 5605 0ceb 48       		.sleb128 -56
 5606 0cec 18       		.uleb128 0x18
 5607 0ced 32000000 		.4byte	.LVL177
 5608 0cf1 E8080000 		.4byte	0x8e8
 5609 0cf5 0F0D0000 		.4byte	0xd0f
 5610 0cf9 19       		.uleb128 0x19
 5611 0cfa 01       		.uleb128 0x1
ARM GAS  C:\Users\Besitzer\AppData\Local\Temp\cczB0neC.s 			page 121


 5612 0cfb 50       		.byte	0x50
 5613 0cfc 02       		.uleb128 0x2
 5614 0cfd 7A       		.byte	0x7a
 5615 0cfe 00       		.sleb128 0
 5616 0cff 19       		.uleb128 0x19
 5617 0d00 01       		.uleb128 0x1
 5618 0d01 51       		.byte	0x51
 5619 0d02 05       		.uleb128 0x5
 5620 0d03 75       		.byte	0x75
 5621 0d04 00       		.sleb128 0
 5622 0d05 7B       		.byte	0x7b
 5623 0d06 00       		.sleb128 0
 5624 0d07 22       		.byte	0x22
 5625 0d08 19       		.uleb128 0x19
 5626 0d09 01       		.uleb128 0x1
 5627 0d0a 52       		.byte	0x52
 5628 0d0b 02       		.uleb128 0x2
 5629 0d0c 77       		.byte	0x77
 5630 0d0d 00       		.sleb128 0
 5631 0d0e 00       		.byte	0
 5632 0d0f 18       		.uleb128 0x18
 5633 0d10 40000000 		.4byte	.LVL178
 5634 0d14 E8080000 		.4byte	0x8e8
 5635 0d18 320D0000 		.4byte	0xd32
 5636 0d1c 19       		.uleb128 0x19
 5637 0d1d 01       		.uleb128 0x1
 5638 0d1e 50       		.byte	0x50
 5639 0d1f 02       		.uleb128 0x2
 5640 0d20 7A       		.byte	0x7a
 5641 0d21 00       		.sleb128 0
 5642 0d22 19       		.uleb128 0x19
 5643 0d23 01       		.uleb128 0x1
 5644 0d24 51       		.byte	0x51
 5645 0d25 05       		.uleb128 0x5
 5646 0d26 7B       		.byte	0x7b
 5647 0d27 00       		.sleb128 0
 5648 0d28 75       		.byte	0x75
 5649 0d29 00       		.sleb128 0
 5650 0d2a 1C       		.byte	0x1c
 5651 0d2b 19       		.uleb128 0x19
 5652 0d2c 01       		.uleb128 0x1
 5653 0d2d 52       		.byte	0x52
 5654 0d2e 02       		.uleb128 0x2
 5655 0d2f 77       		.byte	0x77
 5656 0d30 00       		.sleb128 0
 5657 0d31 00       		.byte	0
 5658 0d32 18       		.uleb128 0x18
 5659 0d33 52000000 		.4byte	.LVL179
 5660 0d37 E8080000 		.4byte	0x8e8
 5661 0d3b 550D0000 		.4byte	0xd55
 5662 0d3f 19       		.uleb128 0x19
 5663 0d40 01       		.uleb128 0x1
 5664 0d41 50       		.byte	0x50
 5665 0d42 05       		.uleb128 0x5
 5666 0d43 75       		.byte	0x75
 5667 0d44 00       		.sleb128 0
 5668 0d45 7A       		.byte	0x7a
ARM GAS  C:\Users\Besitzer\AppData\Local\Temp\cczB0neC.s 			page 122


 5669 0d46 00       		.sleb128 0
 5670 0d47 22       		.byte	0x22
 5671 0d48 19       		.uleb128 0x19
 5672 0d49 01       		.uleb128 0x1
 5673 0d4a 51       		.byte	0x51
 5674 0d4b 02       		.uleb128 0x2
 5675 0d4c 76       		.byte	0x76
 5676 0d4d 00       		.sleb128 0
 5677 0d4e 19       		.uleb128 0x19
 5678 0d4f 01       		.uleb128 0x1
 5679 0d50 52       		.byte	0x52
 5680 0d51 02       		.uleb128 0x2
 5681 0d52 77       		.byte	0x77
 5682 0d53 00       		.sleb128 0
 5683 0d54 00       		.byte	0
 5684 0d55 18       		.uleb128 0x18
 5685 0d56 60000000 		.4byte	.LVL180
 5686 0d5a E8080000 		.4byte	0x8e8
 5687 0d5e 780D0000 		.4byte	0xd78
 5688 0d62 19       		.uleb128 0x19
 5689 0d63 01       		.uleb128 0x1
 5690 0d64 50       		.byte	0x50
 5691 0d65 05       		.uleb128 0x5
 5692 0d66 7A       		.byte	0x7a
 5693 0d67 00       		.sleb128 0
 5694 0d68 75       		.byte	0x75
 5695 0d69 00       		.sleb128 0
 5696 0d6a 1C       		.byte	0x1c
 5697 0d6b 19       		.uleb128 0x19
 5698 0d6c 01       		.uleb128 0x1
 5699 0d6d 51       		.byte	0x51
 5700 0d6e 02       		.uleb128 0x2
 5701 0d6f 76       		.byte	0x76
 5702 0d70 00       		.sleb128 0
 5703 0d71 19       		.uleb128 0x19
 5704 0d72 01       		.uleb128 0x1
 5705 0d73 52       		.byte	0x52
 5706 0d74 02       		.uleb128 0x2
 5707 0d75 77       		.byte	0x77
 5708 0d76 00       		.sleb128 0
 5709 0d77 00       		.byte	0
 5710 0d78 18       		.uleb128 0x18
 5711 0d79 BA000000 		.4byte	.LVL190
 5712 0d7d E8080000 		.4byte	0x8e8
 5713 0d81 9C0D0000 		.4byte	0xd9c
 5714 0d85 19       		.uleb128 0x19
 5715 0d86 01       		.uleb128 0x1
 5716 0d87 50       		.byte	0x50
 5717 0d88 04       		.uleb128 0x4
 5718 0d89 91       		.byte	0x91
 5719 0d8a 50       		.sleb128 -48
 5720 0d8b 94       		.byte	0x94
 5721 0d8c 02       		.byte	0x2
 5722 0d8d 19       		.uleb128 0x19
 5723 0d8e 01       		.uleb128 0x1
 5724 0d8f 51       		.byte	0x51
 5725 0d90 02       		.uleb128 0x2
ARM GAS  C:\Users\Besitzer\AppData\Local\Temp\cczB0neC.s 			page 123


 5726 0d91 78       		.byte	0x78
 5727 0d92 00       		.sleb128 0
 5728 0d93 19       		.uleb128 0x19
 5729 0d94 01       		.uleb128 0x1
 5730 0d95 52       		.byte	0x52
 5731 0d96 04       		.uleb128 0x4
 5732 0d97 91       		.byte	0x91
 5733 0d98 44       		.sleb128 -60
 5734 0d99 94       		.byte	0x94
 5735 0d9a 02       		.byte	0x2
 5736 0d9b 00       		.byte	0
 5737 0d9c 18       		.uleb128 0x18
 5738 0d9d CA000000 		.4byte	.LVL191
 5739 0da1 E8080000 		.4byte	0x8e8
 5740 0da5 BE0D0000 		.4byte	0xdbe
 5741 0da9 19       		.uleb128 0x19
 5742 0daa 01       		.uleb128 0x1
 5743 0dab 50       		.byte	0x50
 5744 0dac 02       		.uleb128 0x2
 5745 0dad 77       		.byte	0x77
 5746 0dae 00       		.sleb128 0
 5747 0daf 19       		.uleb128 0x19
 5748 0db0 01       		.uleb128 0x1
 5749 0db1 51       		.byte	0x51
 5750 0db2 02       		.uleb128 0x2
 5751 0db3 78       		.byte	0x78
 5752 0db4 00       		.sleb128 0
 5753 0db5 19       		.uleb128 0x19
 5754 0db6 01       		.uleb128 0x1
 5755 0db7 52       		.byte	0x52
 5756 0db8 04       		.uleb128 0x4
 5757 0db9 91       		.byte	0x91
 5758 0dba 44       		.sleb128 -60
 5759 0dbb 94       		.byte	0x94
 5760 0dbc 02       		.byte	0x2
 5761 0dbd 00       		.byte	0
 5762 0dbe 18       		.uleb128 0x18
 5763 0dbf DC000000 		.4byte	.LVL192
 5764 0dc3 E8080000 		.4byte	0x8e8
 5765 0dc7 E20D0000 		.4byte	0xde2
 5766 0dcb 19       		.uleb128 0x19
 5767 0dcc 01       		.uleb128 0x1
 5768 0dcd 50       		.byte	0x50
 5769 0dce 04       		.uleb128 0x4
 5770 0dcf 91       		.byte	0x91
 5771 0dd0 50       		.sleb128 -48
 5772 0dd1 94       		.byte	0x94
 5773 0dd2 02       		.byte	0x2
 5774 0dd3 19       		.uleb128 0x19
 5775 0dd4 01       		.uleb128 0x1
 5776 0dd5 51       		.byte	0x51
 5777 0dd6 02       		.uleb128 0x2
 5778 0dd7 78       		.byte	0x78
 5779 0dd8 00       		.sleb128 0
 5780 0dd9 19       		.uleb128 0x19
 5781 0dda 01       		.uleb128 0x1
 5782 0ddb 52       		.byte	0x52
ARM GAS  C:\Users\Besitzer\AppData\Local\Temp\cczB0neC.s 			page 124


 5783 0ddc 04       		.uleb128 0x4
 5784 0ddd 91       		.byte	0x91
 5785 0dde 44       		.sleb128 -60
 5786 0ddf 94       		.byte	0x94
 5787 0de0 02       		.byte	0x2
 5788 0de1 00       		.byte	0
 5789 0de2 18       		.uleb128 0x18
 5790 0de3 E6000000 		.4byte	.LVL193
 5791 0de7 E8080000 		.4byte	0x8e8
 5792 0deb 040E0000 		.4byte	0xe04
 5793 0def 19       		.uleb128 0x19
 5794 0df0 01       		.uleb128 0x1
 5795 0df1 50       		.byte	0x50
 5796 0df2 02       		.uleb128 0x2
 5797 0df3 77       		.byte	0x77
 5798 0df4 00       		.sleb128 0
 5799 0df5 19       		.uleb128 0x19
 5800 0df6 01       		.uleb128 0x1
 5801 0df7 51       		.byte	0x51
 5802 0df8 02       		.uleb128 0x2
 5803 0df9 78       		.byte	0x78
 5804 0dfa 00       		.sleb128 0
 5805 0dfb 19       		.uleb128 0x19
 5806 0dfc 01       		.uleb128 0x1
 5807 0dfd 52       		.byte	0x52
 5808 0dfe 04       		.uleb128 0x4
 5809 0dff 91       		.byte	0x91
 5810 0e00 44       		.sleb128 -60
 5811 0e01 94       		.byte	0x94
 5812 0e02 02       		.byte	0x2
 5813 0e03 00       		.byte	0
 5814 0e04 18       		.uleb128 0x18
 5815 0e05 FE000000 		.4byte	.LVL194
 5816 0e09 E8080000 		.4byte	0x8e8
 5817 0e0d 260E0000 		.4byte	0xe26
 5818 0e11 19       		.uleb128 0x19
 5819 0e12 01       		.uleb128 0x1
 5820 0e13 50       		.byte	0x50
 5821 0e14 02       		.uleb128 0x2
 5822 0e15 77       		.byte	0x77
 5823 0e16 00       		.sleb128 0
 5824 0e17 19       		.uleb128 0x19
 5825 0e18 01       		.uleb128 0x1
 5826 0e19 51       		.byte	0x51
 5827 0e1a 02       		.uleb128 0x2
 5828 0e1b 78       		.byte	0x78
 5829 0e1c 00       		.sleb128 0
 5830 0e1d 19       		.uleb128 0x19
 5831 0e1e 01       		.uleb128 0x1
 5832 0e1f 52       		.byte	0x52
 5833 0e20 04       		.uleb128 0x4
 5834 0e21 91       		.byte	0x91
 5835 0e22 44       		.sleb128 -60
 5836 0e23 94       		.byte	0x94
 5837 0e24 02       		.byte	0x2
 5838 0e25 00       		.byte	0
 5839 0e26 18       		.uleb128 0x18
ARM GAS  C:\Users\Besitzer\AppData\Local\Temp\cczB0neC.s 			page 125


 5840 0e27 0E010000 		.4byte	.LVL195
 5841 0e2b E8080000 		.4byte	0x8e8
 5842 0e2f 480E0000 		.4byte	0xe48
 5843 0e33 19       		.uleb128 0x19
 5844 0e34 01       		.uleb128 0x1
 5845 0e35 50       		.byte	0x50
 5846 0e36 02       		.uleb128 0x2
 5847 0e37 76       		.byte	0x76
 5848 0e38 00       		.sleb128 0
 5849 0e39 19       		.uleb128 0x19
 5850 0e3a 01       		.uleb128 0x1
 5851 0e3b 51       		.byte	0x51
 5852 0e3c 02       		.uleb128 0x2
 5853 0e3d 78       		.byte	0x78
 5854 0e3e 00       		.sleb128 0
 5855 0e3f 19       		.uleb128 0x19
 5856 0e40 01       		.uleb128 0x1
 5857 0e41 52       		.byte	0x52
 5858 0e42 04       		.uleb128 0x4
 5859 0e43 91       		.byte	0x91
 5860 0e44 44       		.sleb128 -60
 5861 0e45 94       		.byte	0x94
 5862 0e46 02       		.byte	0x2
 5863 0e47 00       		.byte	0
 5864 0e48 18       		.uleb128 0x18
 5865 0e49 22010000 		.4byte	.LVL196
 5866 0e4d E8080000 		.4byte	0x8e8
 5867 0e51 680E0000 		.4byte	0xe68
 5868 0e55 19       		.uleb128 0x19
 5869 0e56 01       		.uleb128 0x1
 5870 0e57 50       		.byte	0x50
 5871 0e58 02       		.uleb128 0x2
 5872 0e59 77       		.byte	0x77
 5873 0e5a 00       		.sleb128 0
 5874 0e5b 19       		.uleb128 0x19
 5875 0e5c 01       		.uleb128 0x1
 5876 0e5d 51       		.byte	0x51
 5877 0e5e 02       		.uleb128 0x2
 5878 0e5f 75       		.byte	0x75
 5879 0e60 00       		.sleb128 0
 5880 0e61 19       		.uleb128 0x19
 5881 0e62 01       		.uleb128 0x1
 5882 0e63 52       		.byte	0x52
 5883 0e64 02       		.uleb128 0x2
 5884 0e65 78       		.byte	0x78
 5885 0e66 00       		.sleb128 0
 5886 0e67 00       		.byte	0
 5887 0e68 1A       		.uleb128 0x1a
 5888 0e69 2C010000 		.4byte	.LVL197
 5889 0e6d E8080000 		.4byte	0x8e8
 5890 0e71 19       		.uleb128 0x19
 5891 0e72 01       		.uleb128 0x1
 5892 0e73 50       		.byte	0x50
 5893 0e74 02       		.uleb128 0x2
 5894 0e75 76       		.byte	0x76
 5895 0e76 00       		.sleb128 0
 5896 0e77 19       		.uleb128 0x19
ARM GAS  C:\Users\Besitzer\AppData\Local\Temp\cczB0neC.s 			page 126


 5897 0e78 01       		.uleb128 0x1
 5898 0e79 51       		.byte	0x51
 5899 0e7a 02       		.uleb128 0x2
 5900 0e7b 75       		.byte	0x75
 5901 0e7c 00       		.sleb128 0
 5902 0e7d 19       		.uleb128 0x19
 5903 0e7e 01       		.uleb128 0x1
 5904 0e7f 52       		.byte	0x52
 5905 0e80 02       		.uleb128 0x2
 5906 0e81 78       		.byte	0x78
 5907 0e82 00       		.sleb128 0
 5908 0e83 00       		.byte	0
 5909 0e84 00       		.byte	0
 5910 0e85 20       		.uleb128 0x20
 5911 0e86 58010000 		.4byte	.LASF97
 5912 0e8a 01       		.byte	0x1
 5913 0e8b 3003     		.2byte	0x330
 5914 0e8d 00000000 		.4byte	.LFB28
 5915 0e91 42000000 		.4byte	.LFE28-.LFB28
 5916 0e95 01       		.uleb128 0x1
 5917 0e96 9C       		.byte	0x9c
 5918 0e97 860F0000 		.4byte	0xf86
 5919 0e9b 0F       		.uleb128 0xf
 5920 0e9c 783000   		.ascii	"x0\000"
 5921 0e9f 01       		.byte	0x1
 5922 0ea0 3003     		.2byte	0x330
 5923 0ea2 D8000000 		.4byte	0xd8
 5924 0ea6 AD0B0000 		.4byte	.LLST67
 5925 0eaa 0F       		.uleb128 0xf
 5926 0eab 793000   		.ascii	"y0\000"
 5927 0eae 01       		.byte	0x1
 5928 0eaf 3003     		.2byte	0x330
 5929 0eb1 D8000000 		.4byte	0xd8
 5930 0eb5 CE0B0000 		.4byte	.LLST68
 5931 0eb9 0F       		.uleb128 0xf
 5932 0eba 783100   		.ascii	"x1\000"
 5933 0ebd 01       		.byte	0x1
 5934 0ebe 3003     		.2byte	0x330
 5935 0ec0 D8000000 		.4byte	0xd8
 5936 0ec4 EF0B0000 		.4byte	.LLST69
 5937 0ec8 0F       		.uleb128 0xf
 5938 0ec9 793100   		.ascii	"y1\000"
 5939 0ecc 01       		.byte	0x1
 5940 0ecd 3003     		.2byte	0x330
 5941 0ecf D8000000 		.4byte	0xd8
 5942 0ed3 100C0000 		.4byte	.LLST70
 5943 0ed7 17       		.uleb128 0x17
 5944 0ed8 783200   		.ascii	"x2\000"
 5945 0edb 01       		.byte	0x1
 5946 0edc 3003     		.2byte	0x330
 5947 0ede D8000000 		.4byte	0xd8
 5948 0ee2 02       		.uleb128 0x2
 5949 0ee3 91       		.byte	0x91
 5950 0ee4 00       		.sleb128 0
 5951 0ee5 17       		.uleb128 0x17
 5952 0ee6 793200   		.ascii	"y2\000"
 5953 0ee9 01       		.byte	0x1
ARM GAS  C:\Users\Besitzer\AppData\Local\Temp\cczB0neC.s 			page 127


 5954 0eea 3003     		.2byte	0x330
 5955 0eec D8000000 		.4byte	0xd8
 5956 0ef0 02       		.uleb128 0x2
 5957 0ef1 91       		.byte	0x91
 5958 0ef2 04       		.sleb128 4
 5959 0ef3 21       		.uleb128 0x21
 5960 0ef4 51050000 		.4byte	.LASF48
 5961 0ef8 01       		.byte	0x1
 5962 0ef9 3003     		.2byte	0x330
 5963 0efb E3000000 		.4byte	0xe3
 5964 0eff 02       		.uleb128 0x2
 5965 0f00 91       		.byte	0x91
 5966 0f01 08       		.sleb128 8
 5967 0f02 18       		.uleb128 0x18
 5968 0f03 20000000 		.4byte	.LVL199
 5969 0f07 55090000 		.4byte	0x955
 5970 0f0b 2F0F0000 		.4byte	0xf2f
 5971 0f0f 19       		.uleb128 0x19
 5972 0f10 01       		.uleb128 0x1
 5973 0f11 50       		.byte	0x50
 5974 0f12 02       		.uleb128 0x2
 5975 0f13 77       		.byte	0x77
 5976 0f14 00       		.sleb128 0
 5977 0f15 19       		.uleb128 0x19
 5978 0f16 01       		.uleb128 0x1
 5979 0f17 51       		.byte	0x51
 5980 0f18 02       		.uleb128 0x2
 5981 0f19 78       		.byte	0x78
 5982 0f1a 00       		.sleb128 0
 5983 0f1b 19       		.uleb128 0x19
 5984 0f1c 01       		.uleb128 0x1
 5985 0f1d 52       		.byte	0x52
 5986 0f1e 02       		.uleb128 0x2
 5987 0f1f 79       		.byte	0x79
 5988 0f20 00       		.sleb128 0
 5989 0f21 19       		.uleb128 0x19
 5990 0f22 01       		.uleb128 0x1
 5991 0f23 53       		.byte	0x53
 5992 0f24 02       		.uleb128 0x2
 5993 0f25 7A       		.byte	0x7a
 5994 0f26 00       		.sleb128 0
 5995 0f27 19       		.uleb128 0x19
 5996 0f28 02       		.uleb128 0x2
 5997 0f29 7D       		.byte	0x7d
 5998 0f2a 00       		.sleb128 0
 5999 0f2b 02       		.uleb128 0x2
 6000 0f2c 74       		.byte	0x74
 6001 0f2d 00       		.sleb128 0
 6002 0f2e 00       		.byte	0
 6003 0f2f 18       		.uleb128 0x18
 6004 0f30 2E000000 		.4byte	.LVL200
 6005 0f34 55090000 		.4byte	0x955
 6006 0f38 5C0F0000 		.4byte	0xf5c
 6007 0f3c 19       		.uleb128 0x19
 6008 0f3d 01       		.uleb128 0x1
 6009 0f3e 50       		.byte	0x50
 6010 0f3f 02       		.uleb128 0x2
ARM GAS  C:\Users\Besitzer\AppData\Local\Temp\cczB0neC.s 			page 128


 6011 0f40 79       		.byte	0x79
 6012 0f41 00       		.sleb128 0
 6013 0f42 19       		.uleb128 0x19
 6014 0f43 01       		.uleb128 0x1
 6015 0f44 51       		.byte	0x51
 6016 0f45 02       		.uleb128 0x2
 6017 0f46 7A       		.byte	0x7a
 6018 0f47 00       		.sleb128 0
 6019 0f48 19       		.uleb128 0x19
 6020 0f49 01       		.uleb128 0x1
 6021 0f4a 52       		.byte	0x52
 6022 0f4b 02       		.uleb128 0x2
 6023 0f4c 75       		.byte	0x75
 6024 0f4d 00       		.sleb128 0
 6025 0f4e 19       		.uleb128 0x19
 6026 0f4f 01       		.uleb128 0x1
 6027 0f50 53       		.byte	0x53
 6028 0f51 02       		.uleb128 0x2
 6029 0f52 76       		.byte	0x76
 6030 0f53 00       		.sleb128 0
 6031 0f54 19       		.uleb128 0x19
 6032 0f55 02       		.uleb128 0x2
 6033 0f56 7D       		.byte	0x7d
 6034 0f57 00       		.sleb128 0
 6035 0f58 02       		.uleb128 0x2
 6036 0f59 74       		.byte	0x74
 6037 0f5a 00       		.sleb128 0
 6038 0f5b 00       		.byte	0
 6039 0f5c 1A       		.uleb128 0x1a
 6040 0f5d 3C000000 		.4byte	.LVL201
 6041 0f61 55090000 		.4byte	0x955
 6042 0f65 19       		.uleb128 0x19
 6043 0f66 01       		.uleb128 0x1
 6044 0f67 50       		.byte	0x50
 6045 0f68 02       		.uleb128 0x2
 6046 0f69 75       		.byte	0x75
 6047 0f6a 00       		.sleb128 0
 6048 0f6b 19       		.uleb128 0x19
 6049 0f6c 01       		.uleb128 0x1
 6050 0f6d 51       		.byte	0x51
 6051 0f6e 02       		.uleb128 0x2
 6052 0f6f 76       		.byte	0x76
 6053 0f70 00       		.sleb128 0
 6054 0f71 19       		.uleb128 0x19
 6055 0f72 01       		.uleb128 0x1
 6056 0f73 52       		.byte	0x52
 6057 0f74 02       		.uleb128 0x2
 6058 0f75 77       		.byte	0x77
 6059 0f76 00       		.sleb128 0
 6060 0f77 19       		.uleb128 0x19
 6061 0f78 01       		.uleb128 0x1
 6062 0f79 53       		.byte	0x53
 6063 0f7a 02       		.uleb128 0x2
 6064 0f7b 78       		.byte	0x78
 6065 0f7c 00       		.sleb128 0
 6066 0f7d 19       		.uleb128 0x19
 6067 0f7e 02       		.uleb128 0x2
ARM GAS  C:\Users\Besitzer\AppData\Local\Temp\cczB0neC.s 			page 129


 6068 0f7f 7D       		.byte	0x7d
 6069 0f80 00       		.sleb128 0
 6070 0f81 02       		.uleb128 0x2
 6071 0f82 74       		.byte	0x74
 6072 0f83 00       		.sleb128 0
 6073 0f84 00       		.byte	0
 6074 0f85 00       		.byte	0
 6075 0f86 20       		.uleb128 0x20
 6076 0f87 47060000 		.4byte	.LASF98
 6077 0f8b 01       		.byte	0x1
 6078 0f8c 4303     		.2byte	0x343
 6079 0f8e 00000000 		.4byte	.LFB29
 6080 0f92 EC000000 		.4byte	.LFE29-.LFB29
 6081 0f96 01       		.uleb128 0x1
 6082 0f97 9C       		.byte	0x9c
 6083 0f98 F6100000 		.4byte	0x10f6
 6084 0f9c 0F       		.uleb128 0xf
 6085 0f9d 7800     		.ascii	"x\000"
 6086 0f9f 01       		.byte	0x1
 6087 0fa0 4303     		.2byte	0x343
 6088 0fa2 D8000000 		.4byte	0xd8
 6089 0fa6 310C0000 		.4byte	.LLST71
 6090 0faa 0F       		.uleb128 0xf
 6091 0fab 7900     		.ascii	"y\000"
 6092 0fad 01       		.byte	0x1
 6093 0fae 4303     		.2byte	0x343
 6094 0fb0 D8000000 		.4byte	0xd8
 6095 0fb4 520C0000 		.4byte	.LLST72
 6096 0fb8 0F       		.uleb128 0xf
 6097 0fb9 6300     		.ascii	"c\000"
 6098 0fbb 01       		.byte	0x1
 6099 0fbc 4303     		.2byte	0x343
 6100 0fbe 5E000000 		.4byte	0x5e
 6101 0fc2 730C0000 		.4byte	.LLST73
 6102 0fc6 10       		.uleb128 0x10
 6103 0fc7 51050000 		.4byte	.LASF48
 6104 0fcb 01       		.byte	0x1
 6105 0fcc 4303     		.2byte	0x343
 6106 0fce E3000000 		.4byte	0xe3
 6107 0fd2 940C0000 		.4byte	.LLST74
 6108 0fd6 0F       		.uleb128 0xf
 6109 0fd7 626700   		.ascii	"bg\000"
 6110 0fda 01       		.byte	0x1
 6111 0fdb 4303     		.2byte	0x343
 6112 0fdd E3000000 		.4byte	0xe3
 6113 0fe1 B50C0000 		.4byte	.LLST75
 6114 0fe5 10       		.uleb128 0x10
 6115 0fe6 34010000 		.4byte	.LASF59
 6116 0fea 01       		.byte	0x1
 6117 0feb 4303     		.2byte	0x343
 6118 0fed CD000000 		.4byte	0xcd
 6119 0ff1 D50C0000 		.4byte	.LLST76
 6120 0ff5 13       		.uleb128 0x13
 6121 0ff6 6900     		.ascii	"i\000"
 6122 0ff8 01       		.byte	0x1
 6123 0ff9 4A03     		.2byte	0x34a
 6124 0ffb C2000000 		.4byte	0xc2
ARM GAS  C:\Users\Besitzer\AppData\Local\Temp\cczB0neC.s 			page 130


 6125 0fff F50C0000 		.4byte	.LLST77
 6126 1003 14       		.uleb128 0x14
 6127 1004 42000000 		.4byte	.LBB7
 6128 1008 92000000 		.4byte	.LBE7-.LBB7
 6129 100c 12       		.uleb128 0x12
 6130 100d 42060000 		.4byte	.LASF99
 6131 1011 01       		.byte	0x1
 6132 1012 4C03     		.2byte	0x34c
 6133 1014 CD000000 		.4byte	0xcd
 6134 1018 130D0000 		.4byte	.LLST78
 6135 101c 13       		.uleb128 0x13
 6136 101d 6A00     		.ascii	"j\000"
 6137 101f 01       		.byte	0x1
 6138 1020 5103     		.2byte	0x351
 6139 1022 C2000000 		.4byte	0xc2
 6140 1026 310D0000 		.4byte	.LLST79
 6141 102a 18       		.uleb128 0x18
 6142 102b 76000000 		.4byte	.LVL207
 6143 102f E8080000 		.4byte	0x8e8
 6144 1033 50100000 		.4byte	0x1050
 6145 1037 19       		.uleb128 0x19
 6146 1038 01       		.uleb128 0x1
 6147 1039 50       		.byte	0x50
 6148 103a 05       		.uleb128 0x5
 6149 103b 77       		.byte	0x77
 6150 103c 00       		.sleb128 0
 6151 103d 79       		.byte	0x79
 6152 103e 00       		.sleb128 0
 6153 103f 22       		.byte	0x22
 6154 1040 19       		.uleb128 0x19
 6155 1041 01       		.uleb128 0x1
 6156 1042 51       		.byte	0x51
 6157 1043 05       		.uleb128 0x5
 6158 1044 74       		.byte	0x74
 6159 1045 00       		.sleb128 0
 6160 1046 7A       		.byte	0x7a
 6161 1047 00       		.sleb128 0
 6162 1048 22       		.byte	0x22
 6163 1049 19       		.uleb128 0x19
 6164 104a 01       		.uleb128 0x1
 6165 104b 52       		.byte	0x52
 6166 104c 02       		.uleb128 0x2
 6167 104d 78       		.byte	0x78
 6168 104e 00       		.sleb128 0
 6169 104f 00       		.byte	0
 6170 1050 18       		.uleb128 0x18
 6171 1051 92000000 		.4byte	.LVL208
 6172 1055 860B0000 		.4byte	0xb86
 6173 1059 91100000 		.4byte	0x1091
 6174 105d 19       		.uleb128 0x19
 6175 105e 01       		.uleb128 0x1
 6176 105f 50       		.byte	0x50
 6177 1060 0C       		.uleb128 0xc
 6178 1061 76       		.byte	0x76
 6179 1062 00       		.sleb128 0
 6180 1063 0A       		.byte	0xa
 6181 1064 FFFF     		.2byte	0xffff
ARM GAS  C:\Users\Besitzer\AppData\Local\Temp\cczB0neC.s 			page 131


 6182 1066 1A       		.byte	0x1a
 6183 1067 77       		.byte	0x77
 6184 1068 00       		.sleb128 0
 6185 1069 1E       		.byte	0x1e
 6186 106a 79       		.byte	0x79
 6187 106b 00       		.sleb128 0
 6188 106c 22       		.byte	0x22
 6189 106d 19       		.uleb128 0x19
 6190 106e 01       		.uleb128 0x1
 6191 106f 51       		.byte	0x51
 6192 1070 0C       		.uleb128 0xc
 6193 1071 76       		.byte	0x76
 6194 1072 00       		.sleb128 0
 6195 1073 0A       		.byte	0xa
 6196 1074 FFFF     		.2byte	0xffff
 6197 1076 1A       		.byte	0x1a
 6198 1077 74       		.byte	0x74
 6199 1078 00       		.sleb128 0
 6200 1079 1E       		.byte	0x1e
 6201 107a 7A       		.byte	0x7a
 6202 107b 00       		.sleb128 0
 6203 107c 22       		.byte	0x22
 6204 107d 19       		.uleb128 0x19
 6205 107e 01       		.uleb128 0x1
 6206 107f 52       		.byte	0x52
 6207 1080 02       		.uleb128 0x2
 6208 1081 76       		.byte	0x76
 6209 1082 00       		.sleb128 0
 6210 1083 19       		.uleb128 0x19
 6211 1084 01       		.uleb128 0x1
 6212 1085 53       		.byte	0x53
 6213 1086 02       		.uleb128 0x2
 6214 1087 76       		.byte	0x76
 6215 1088 00       		.sleb128 0
 6216 1089 19       		.uleb128 0x19
 6217 108a 02       		.uleb128 0x2
 6218 108b 7D       		.byte	0x7d
 6219 108c 00       		.sleb128 0
 6220 108d 02       		.uleb128 0x2
 6221 108e 78       		.byte	0x78
 6222 108f 00       		.sleb128 0
 6223 1090 00       		.byte	0
 6224 1091 18       		.uleb128 0x18
 6225 1092 AE000000 		.4byte	.LVL209
 6226 1096 E8080000 		.4byte	0x8e8
 6227 109a B7100000 		.4byte	0x10b7
 6228 109e 19       		.uleb128 0x19
 6229 109f 01       		.uleb128 0x1
 6230 10a0 50       		.byte	0x50
 6231 10a1 05       		.uleb128 0x5
 6232 10a2 77       		.byte	0x77
 6233 10a3 00       		.sleb128 0
 6234 10a4 79       		.byte	0x79
 6235 10a5 00       		.sleb128 0
 6236 10a6 22       		.byte	0x22
 6237 10a7 19       		.uleb128 0x19
 6238 10a8 01       		.uleb128 0x1
ARM GAS  C:\Users\Besitzer\AppData\Local\Temp\cczB0neC.s 			page 132


 6239 10a9 51       		.byte	0x51
 6240 10aa 05       		.uleb128 0x5
 6241 10ab 74       		.byte	0x74
 6242 10ac 00       		.sleb128 0
 6243 10ad 7A       		.byte	0x7a
 6244 10ae 00       		.sleb128 0
 6245 10af 22       		.byte	0x22
 6246 10b0 19       		.uleb128 0x19
 6247 10b1 01       		.uleb128 0x1
 6248 10b2 52       		.byte	0x52
 6249 10b3 02       		.uleb128 0x2
 6250 10b4 7B       		.byte	0x7b
 6251 10b5 00       		.sleb128 0
 6252 10b6 00       		.byte	0
 6253 10b7 1A       		.uleb128 0x1a
 6254 10b8 CA000000 		.4byte	.LVL210
 6255 10bc 860B0000 		.4byte	0xb86
 6256 10c0 19       		.uleb128 0x19
 6257 10c1 01       		.uleb128 0x1
 6258 10c2 50       		.byte	0x50
 6259 10c3 0C       		.uleb128 0xc
 6260 10c4 76       		.byte	0x76
 6261 10c5 00       		.sleb128 0
 6262 10c6 0A       		.byte	0xa
 6263 10c7 FFFF     		.2byte	0xffff
 6264 10c9 1A       		.byte	0x1a
 6265 10ca 77       		.byte	0x77
 6266 10cb 00       		.sleb128 0
 6267 10cc 1E       		.byte	0x1e
 6268 10cd 79       		.byte	0x79
 6269 10ce 00       		.sleb128 0
 6270 10cf 22       		.byte	0x22
 6271 10d0 19       		.uleb128 0x19
 6272 10d1 01       		.uleb128 0x1
 6273 10d2 51       		.byte	0x51
 6274 10d3 0C       		.uleb128 0xc
 6275 10d4 76       		.byte	0x76
 6276 10d5 00       		.sleb128 0
 6277 10d6 0A       		.byte	0xa
 6278 10d7 FFFF     		.2byte	0xffff
 6279 10d9 1A       		.byte	0x1a
 6280 10da 74       		.byte	0x74
 6281 10db 00       		.sleb128 0
 6282 10dc 1E       		.byte	0x1e
 6283 10dd 7A       		.byte	0x7a
 6284 10de 00       		.sleb128 0
 6285 10df 22       		.byte	0x22
 6286 10e0 19       		.uleb128 0x19
 6287 10e1 01       		.uleb128 0x1
 6288 10e2 52       		.byte	0x52
 6289 10e3 02       		.uleb128 0x2
 6290 10e4 76       		.byte	0x76
 6291 10e5 00       		.sleb128 0
 6292 10e6 19       		.uleb128 0x19
 6293 10e7 01       		.uleb128 0x1
 6294 10e8 53       		.byte	0x53
 6295 10e9 02       		.uleb128 0x2
ARM GAS  C:\Users\Besitzer\AppData\Local\Temp\cczB0neC.s 			page 133


 6296 10ea 76       		.byte	0x76
 6297 10eb 00       		.sleb128 0
 6298 10ec 19       		.uleb128 0x19
 6299 10ed 02       		.uleb128 0x2
 6300 10ee 7D       		.byte	0x7d
 6301 10ef 00       		.sleb128 0
 6302 10f0 02       		.uleb128 0x2
 6303 10f1 7B       		.byte	0x7b
 6304 10f2 00       		.sleb128 0
 6305 10f3 00       		.byte	0
 6306 10f4 00       		.byte	0
 6307 10f5 00       		.byte	0
 6308 10f6 20       		.uleb128 0x20
 6309 10f7 38050000 		.4byte	.LASF100
 6310 10fb 01       		.byte	0x1
 6311 10fc 6B03     		.2byte	0x36b
 6312 10fe 00000000 		.4byte	.LFB30
 6313 1102 78000000 		.4byte	.LFE30-.LFB30
 6314 1106 01       		.uleb128 0x1
 6315 1107 9C       		.byte	0x9c
 6316 1108 2D110000 		.4byte	0x112d
 6317 110c 0F       		.uleb128 0xf
 6318 110d 636800   		.ascii	"ch\000"
 6319 1110 01       		.byte	0x1
 6320 1111 6B03     		.2byte	0x36b
 6321 1113 CD000000 		.4byte	0xcd
 6322 1117 4F0D0000 		.4byte	.LLST80
 6323 111b 1A       		.uleb128 0x1a
 6324 111c 38000000 		.4byte	.LVL220
 6325 1120 860F0000 		.4byte	0xf86
 6326 1124 19       		.uleb128 0x19
 6327 1125 02       		.uleb128 0x2
 6328 1126 7D       		.byte	0x7d
 6329 1127 00       		.sleb128 0
 6330 1128 02       		.uleb128 0x2
 6331 1129 75       		.byte	0x75
 6332 112a 00       		.sleb128 0
 6333 112b 00       		.byte	0
 6334 112c 00       		.byte	0
 6335 112d 20       		.uleb128 0x20
 6336 112e 82050000 		.4byte	.LASF101
 6337 1132 01       		.byte	0x1
 6338 1133 8103     		.2byte	0x381
 6339 1135 00000000 		.4byte	.LFB31
 6340 1139 1C000000 		.4byte	.LFE31-.LFB31
 6341 113d 01       		.uleb128 0x1
 6342 113e 9C       		.byte	0x9c
 6343 113f 8D110000 		.4byte	0x118d
 6344 1143 0F       		.uleb128 0xf
 6345 1144 7300     		.ascii	"s\000"
 6346 1146 01       		.byte	0x1
 6347 1147 8103     		.2byte	0x381
 6348 1149 B7000000 		.4byte	0xb7
 6349 114d 700D0000 		.4byte	.LLST81
 6350 1151 13       		.uleb128 0x13
 6351 1152 6C656E00 		.ascii	"len\000"
 6352 1156 01       		.byte	0x1
ARM GAS  C:\Users\Besitzer\AppData\Local\Temp\cczB0neC.s 			page 134


 6353 1157 8303     		.2byte	0x383
 6354 1159 25000000 		.4byte	0x25
 6355 115d 8E0D0000 		.4byte	.LLST82
 6356 1161 13       		.uleb128 0x13
 6357 1162 6900     		.ascii	"i\000"
 6358 1164 01       		.byte	0x1
 6359 1165 8403     		.2byte	0x384
 6360 1167 25000000 		.4byte	0x25
 6361 116b AC0D0000 		.4byte	.LLST83
 6362 116f 18       		.uleb128 0x18
 6363 1170 08000000 		.4byte	.LVL222
 6364 1174 C6140000 		.4byte	0x14c6
 6365 1178 83110000 		.4byte	0x1183
 6366 117c 19       		.uleb128 0x19
 6367 117d 01       		.uleb128 0x1
 6368 117e 50       		.byte	0x50
 6369 117f 02       		.uleb128 0x2
 6370 1180 76       		.byte	0x76
 6371 1181 00       		.sleb128 0
 6372 1182 00       		.byte	0
 6373 1183 1C       		.uleb128 0x1c
 6374 1184 14000000 		.4byte	.LVL225
 6375 1188 F6100000 		.4byte	0x10f6
 6376 118c 00       		.byte	0
 6377 118d 20       		.uleb128 0x20
 6378 118e 2C050000 		.4byte	.LASF102
 6379 1192 01       		.byte	0x1
 6380 1193 9003     		.2byte	0x390
 6381 1195 00000000 		.4byte	.LFB32
 6382 1199 0E000000 		.4byte	.LFE32-.LFB32
 6383 119d 01       		.uleb128 0x1
 6384 119e 9C       		.byte	0x9c
 6385 119f D6110000 		.4byte	0x11d6
 6386 11a3 0F       		.uleb128 0xf
 6387 11a4 7300     		.ascii	"s\000"
 6388 11a6 01       		.byte	0x1
 6389 11a7 9003     		.2byte	0x390
 6390 11a9 B7000000 		.4byte	0xb7
 6391 11ad CB0D0000 		.4byte	.LLST84
 6392 11b1 18       		.uleb128 0x18
 6393 11b2 06000000 		.4byte	.LVL228
 6394 11b6 2D110000 		.4byte	0x112d
 6395 11ba C6110000 		.4byte	0x11c6
 6396 11be 19       		.uleb128 0x19
 6397 11bf 01       		.uleb128 0x1
 6398 11c0 50       		.byte	0x50
 6399 11c1 03       		.uleb128 0x3
 6400 11c2 F3       		.byte	0xf3
 6401 11c3 01       		.uleb128 0x1
 6402 11c4 50       		.byte	0x50
 6403 11c5 00       		.byte	0
 6404 11c6 1A       		.uleb128 0x1a
 6405 11c7 0C000000 		.4byte	.LVL229
 6406 11cb F6100000 		.4byte	0x10f6
 6407 11cf 19       		.uleb128 0x19
 6408 11d0 01       		.uleb128 0x1
 6409 11d1 50       		.byte	0x50
ARM GAS  C:\Users\Besitzer\AppData\Local\Temp\cczB0neC.s 			page 135


 6410 11d2 01       		.uleb128 0x1
 6411 11d3 3A       		.byte	0x3a
 6412 11d4 00       		.byte	0
 6413 11d5 00       		.byte	0
 6414 11d6 20       		.uleb128 0x20
 6415 11d7 B4010000 		.4byte	.LASF103
 6416 11db 01       		.byte	0x1
 6417 11dc CB03     		.2byte	0x3cb
 6418 11de 00000000 		.4byte	.LFB34
 6419 11e2 14000000 		.4byte	.LFE34-.LFB34
 6420 11e6 01       		.uleb128 0x1
 6421 11e7 9C       		.byte	0x9c
 6422 11e8 1F120000 		.4byte	0x121f
 6423 11ec 10       		.uleb128 0x10
 6424 11ed 67050000 		.4byte	.LASF104
 6425 11f1 01       		.byte	0x1
 6426 11f2 CB03     		.2byte	0x3cb
 6427 11f4 1F120000 		.4byte	0x121f
 6428 11f8 EC0D0000 		.4byte	.LLST85
 6429 11fc 18       		.uleb128 0x18
 6430 11fd 0A000000 		.4byte	.LVL232
 6431 1201 D1140000 		.4byte	0x14d1
 6432 1205 0F120000 		.4byte	0x120f
 6433 1209 19       		.uleb128 0x19
 6434 120a 01       		.uleb128 0x1
 6435 120b 50       		.byte	0x50
 6436 120c 01       		.uleb128 0x1
 6437 120d 30       		.byte	0x30
 6438 120e 00       		.byte	0
 6439 120f 1A       		.uleb128 0x1a
 6440 1210 12000000 		.4byte	.LVL235
 6441 1214 D1140000 		.4byte	0x14d1
 6442 1218 19       		.uleb128 0x19
 6443 1219 01       		.uleb128 0x1
 6444 121a 50       		.byte	0x50
 6445 121b 01       		.uleb128 0x1
 6446 121c 31       		.byte	0x31
 6447 121d 00       		.byte	0
 6448 121e 00       		.byte	0
 6449 121f 02       		.uleb128 0x2
 6450 1220 01       		.byte	0x1
 6451 1221 02       		.byte	0x2
 6452 1222 94020000 		.4byte	.LASF105
 6453 1226 1F       		.uleb128 0x1f
 6454 1227 E0030000 		.4byte	.LASF106
 6455 122b 01       		.byte	0x1
 6456 122c 9B       		.byte	0x9b
 6457 122d 00000000 		.4byte	.LFB0
 6458 1231 64000000 		.4byte	.LFE0-.LFB0
 6459 1235 01       		.uleb128 0x1
 6460 1236 9C       		.byte	0x9c
 6461 1237 EB120000 		.4byte	0x12eb
 6462 123b 0D       		.uleb128 0xd
 6463 123c 46000000 		.4byte	.LASF107
 6464 1240 01       		.byte	0x1
 6465 1241 9B       		.byte	0x9b
 6466 1242 CD000000 		.4byte	0xcd
ARM GAS  C:\Users\Besitzer\AppData\Local\Temp\cczB0neC.s 			page 136


 6467 1246 260E0000 		.4byte	.LLST86
 6468 124a 24       		.uleb128 0x24
 6469 124b A0050000 		.4byte	.LASF63
 6470 124f 01       		.byte	0x1
 6471 1250 A8       		.byte	0xa8
 6472 1251 EB120000 		.4byte	0x12eb
 6473 1255 02       		.uleb128 0x2
 6474 1256 91       		.byte	0x91
 6475 1257 50       		.sleb128 -48
 6476 1258 1C       		.uleb128 0x1c
 6477 1259 0A000000 		.4byte	.LVL237
 6478 125d DC140000 		.4byte	0x14dc
 6479 1261 1C       		.uleb128 0x1c
 6480 1262 0E000000 		.4byte	.LVL238
 6481 1266 E7140000 		.4byte	0x14e7
 6482 126a 18       		.uleb128 0x18
 6483 126b 1A000000 		.4byte	.LVL239
 6484 126f 89070000 		.4byte	0x789
 6485 1273 84120000 		.4byte	0x1284
 6486 1277 19       		.uleb128 0x19
 6487 1278 01       		.uleb128 0x1
 6488 1279 50       		.byte	0x50
 6489 127a 02       		.uleb128 0x2
 6490 127b 08       		.byte	0x8
 6491 127c 80       		.byte	0x80
 6492 127d 19       		.uleb128 0x19
 6493 127e 01       		.uleb128 0x1
 6494 127f 51       		.byte	0x51
 6495 1280 02       		.uleb128 0x2
 6496 1281 08       		.byte	0x8
 6497 1282 40       		.byte	0x40
 6498 1283 00       		.byte	0
 6499 1284 18       		.uleb128 0x18
 6500 1285 20000000 		.4byte	.LVL240
 6501 1289 D6110000 		.4byte	0x11d6
 6502 128d 97120000 		.4byte	0x1297
 6503 1291 19       		.uleb128 0x19
 6504 1292 01       		.uleb128 0x1
 6505 1293 50       		.byte	0x50
 6506 1294 01       		.uleb128 0x1
 6507 1295 31       		.byte	0x31
 6508 1296 00       		.byte	0
 6509 1297 18       		.uleb128 0x18
 6510 1298 28000000 		.4byte	.LVL241
 6511 129c F2140000 		.4byte	0x14f2
 6512 12a0 AC120000 		.4byte	0x12ac
 6513 12a4 19       		.uleb128 0x19
 6514 12a5 01       		.uleb128 0x1
 6515 12a6 50       		.byte	0x50
 6516 12a7 03       		.uleb128 0x3
 6517 12a8 0A       		.byte	0xa
 6518 12a9 F401     		.2byte	0x1f4
 6519 12ab 00       		.byte	0
 6520 12ac 18       		.uleb128 0x18
 6521 12ad 2E000000 		.4byte	.LVL242
 6522 12b1 D6110000 		.4byte	0x11d6
 6523 12b5 BF120000 		.4byte	0x12bf
ARM GAS  C:\Users\Besitzer\AppData\Local\Temp\cczB0neC.s 			page 137


 6524 12b9 19       		.uleb128 0x19
 6525 12ba 01       		.uleb128 0x1
 6526 12bb 50       		.byte	0x50
 6527 12bc 01       		.uleb128 0x1
 6528 12bd 30       		.byte	0x30
 6529 12be 00       		.byte	0
 6530 12bf 18       		.uleb128 0x18
 6531 12c0 36000000 		.4byte	.LVL243
 6532 12c4 F2140000 		.4byte	0x14f2
 6533 12c8 D4120000 		.4byte	0x12d4
 6534 12cc 19       		.uleb128 0x19
 6535 12cd 01       		.uleb128 0x1
 6536 12ce 50       		.byte	0x50
 6537 12cf 03       		.uleb128 0x3
 6538 12d0 0A       		.byte	0xa
 6539 12d1 2003     		.2byte	0x320
 6540 12d3 00       		.byte	0
 6541 12d4 1A       		.uleb128 0x1a
 6542 12d5 56000000 		.4byte	.LVL244
 6543 12d9 5E040000 		.4byte	0x45e
 6544 12dd 19       		.uleb128 0x19
 6545 12de 01       		.uleb128 0x1
 6546 12df 50       		.byte	0x50
 6547 12e0 02       		.uleb128 0x2
 6548 12e1 7D       		.byte	0x7d
 6549 12e2 00       		.sleb128 0
 6550 12e3 19       		.uleb128 0x19
 6551 12e4 01       		.uleb128 0x1
 6552 12e5 51       		.byte	0x51
 6553 12e6 02       		.uleb128 0x2
 6554 12e7 08       		.byte	0x8
 6555 12e8 20       		.byte	0x20
 6556 12e9 00       		.byte	0
 6557 12ea 00       		.byte	0
 6558 12eb 1D       		.uleb128 0x1d
 6559 12ec CD000000 		.4byte	0xcd
 6560 12f0 FB120000 		.4byte	0x12fb
 6561 12f4 1E       		.uleb128 0x1e
 6562 12f5 A9000000 		.4byte	0xa9
 6563 12f9 1F       		.byte	0x1f
 6564 12fa 00       		.byte	0
 6565 12fb 20       		.uleb128 0x20
 6566 12fc EC050000 		.4byte	.LASF108
 6567 1300 01       		.byte	0x1
 6568 1301 DA03     		.2byte	0x3da
 6569 1303 00000000 		.4byte	.LFB35
 6570 1307 02000000 		.4byte	.LFE35-.LFB35
 6571 130b 01       		.uleb128 0x1
 6572 130c 9C       		.byte	0x9c
 6573 130d 1F130000 		.4byte	0x131f
 6574 1311 17       		.uleb128 0x17
 6575 1312 637300   		.ascii	"cs\000"
 6576 1315 01       		.byte	0x1
 6577 1316 DA03     		.2byte	0x3da
 6578 1318 1F120000 		.4byte	0x121f
 6579 131c 01       		.uleb128 0x1
 6580 131d 50       		.byte	0x50
ARM GAS  C:\Users\Besitzer\AppData\Local\Temp\cczB0neC.s 			page 138


 6581 131e 00       		.byte	0
 6582 131f 20       		.uleb128 0x20
 6583 1320 54060000 		.4byte	.LASF109
 6584 1324 01       		.byte	0x1
 6585 1325 EA03     		.2byte	0x3ea
 6586 1327 00000000 		.4byte	.LFB36
 6587 132b 02000000 		.4byte	.LFE36-.LFB36
 6588 132f 01       		.uleb128 0x1
 6589 1330 9C       		.byte	0x9c
 6590 1331 43130000 		.4byte	0x1343
 6591 1335 17       		.uleb128 0x17
 6592 1336 646300   		.ascii	"dc\000"
 6593 1339 01       		.byte	0x1
 6594 133a EA03     		.2byte	0x3ea
 6595 133c 1F120000 		.4byte	0x121f
 6596 1340 01       		.uleb128 0x1
 6597 1341 50       		.byte	0x50
 6598 1342 00       		.byte	0
 6599 1343 1D       		.uleb128 0x1d
 6600 1344 54130000 		.4byte	0x1354
 6601 1348 54130000 		.4byte	0x1354
 6602 134c 25       		.uleb128 0x25
 6603 134d A9000000 		.4byte	0xa9
 6604 1351 FA04     		.2byte	0x4fa
 6605 1353 00       		.byte	0
 6606 1354 06       		.uleb128 0x6
 6607 1355 5E000000 		.4byte	0x5e
 6608 1359 24       		.uleb128 0x24
 6609 135a 92050000 		.4byte	.LASF110
 6610 135e 06       		.byte	0x6
 6611 135f 05       		.byte	0x5
 6612 1360 6A130000 		.4byte	0x136a
 6613 1364 05       		.uleb128 0x5
 6614 1365 03       		.byte	0x3
 6615 1366 00000000 		.4byte	font
 6616 136a 06       		.uleb128 0x6
 6617 136b 43130000 		.4byte	0x1343
 6618 136f 1D       		.uleb128 0x1d
 6619 1370 CD000000 		.4byte	0xcd
 6620 1374 80130000 		.4byte	0x1380
 6621 1378 25       		.uleb128 0x25
 6622 1379 A9000000 		.4byte	0xa9
 6623 137d 0004     		.2byte	0x400
 6624 137f 00       		.byte	0
 6625 1380 24       		.uleb128 0x24
 6626 1381 0A030000 		.4byte	.LASF111
 6627 1385 01       		.byte	0x1
 6628 1386 80       		.byte	0x80
 6629 1387 6F130000 		.4byte	0x136f
 6630 138b 05       		.uleb128 0x5
 6631 138c 03       		.byte	0x3
 6632 138d 00000000 		.4byte	SSD1306_buffer
 6633 1391 24       		.uleb128 0x24
 6634 1392 72060000 		.4byte	.LASF112
 6635 1396 01       		.byte	0x1
 6636 1397 82       		.byte	0x82
 6637 1398 A3130000 		.4byte	0x13a3
ARM GAS  C:\Users\Besitzer\AppData\Local\Temp\cczB0neC.s 			page 139


 6638 139c 06       		.uleb128 0x6
 6639 139d 03       		.byte	0x3
 6640 139e 01000000 		.4byte	SSD1306_buffer+1
 6641 13a2 9F       		.byte	0x9f
 6642 13a3 06       		.uleb128 0x6
 6643 13a4 4E030000 		.4byte	0x34e
 6644 13a8 26       		.uleb128 0x26
 6645 13a9 18040000 		.4byte	.LASF113
 6646 13ad 01       		.byte	0x1
 6647 13ae 83       		.byte	0x83
 6648 13af B5130000 		.4byte	0x13b5
 6649 13b3 0004     		.2byte	0x400
 6650 13b5 06       		.uleb128 0x6
 6651 13b6 E3000000 		.4byte	0xe3
 6652 13ba 24       		.uleb128 0x24
 6653 13bb 4F040000 		.4byte	.LASF114
 6654 13bf 01       		.byte	0x1
 6655 13c0 8A       		.byte	0x8a
 6656 13c1 AD010000 		.4byte	0x1ad
 6657 13c5 05       		.uleb128 0x5
 6658 13c6 03       		.byte	0x3
 6659 13c7 00000000 		.4byte	_i2caddr
 6660 13cb 24       		.uleb128 0x24
 6661 13cc 7B030000 		.4byte	.LASF115
 6662 13d0 01       		.byte	0x1
 6663 13d1 8C       		.byte	0x8c
 6664 13d2 D8000000 		.4byte	0xd8
 6665 13d6 05       		.uleb128 0x5
 6666 13d7 03       		.byte	0x3
 6667 13d8 02000000 		.4byte	_width
 6668 13dc 24       		.uleb128 0x24
 6669 13dd 04040000 		.4byte	.LASF116
 6670 13e1 01       		.byte	0x1
 6671 13e2 8C       		.byte	0x8c
 6672 13e3 D8000000 		.4byte	0xd8
 6673 13e7 05       		.uleb128 0x5
 6674 13e8 03       		.byte	0x3
 6675 13e9 04000000 		.4byte	_height
 6676 13ed 24       		.uleb128 0x24
 6677 13ee 46010000 		.4byte	.LASF117
 6678 13f2 01       		.byte	0x1
 6679 13f3 8D       		.byte	0x8d
 6680 13f4 D8000000 		.4byte	0xd8
 6681 13f8 05       		.uleb128 0x5
 6682 13f9 03       		.byte	0x3
 6683 13fa 06000000 		.4byte	cursor_x
 6684 13fe 24       		.uleb128 0x24
 6685 13ff 4F010000 		.4byte	.LASF118
 6686 1403 01       		.byte	0x1
 6687 1404 8D       		.byte	0x8d
 6688 1405 D8000000 		.4byte	0xd8
 6689 1409 05       		.uleb128 0x5
 6690 140a 03       		.byte	0x3
 6691 140b 08000000 		.4byte	cursor_y
 6692 140f 24       		.uleb128 0x24
 6693 1410 DA060000 		.4byte	.LASF119
 6694 1414 01       		.byte	0x1
ARM GAS  C:\Users\Besitzer\AppData\Local\Temp\cczB0neC.s 			page 140


 6695 1415 8E       		.byte	0x8e
 6696 1416 E3000000 		.4byte	0xe3
 6697 141a 05       		.uleb128 0x5
 6698 141b 03       		.byte	0x3
 6699 141c 0E000000 		.4byte	textcolor
 6700 1420 24       		.uleb128 0x24
 6701 1421 E4060000 		.4byte	.LASF120
 6702 1425 01       		.byte	0x1
 6703 1426 8E       		.byte	0x8e
 6704 1427 E3000000 		.4byte	0xe3
 6705 142b 05       		.uleb128 0x5
 6706 142c 03       		.byte	0x3
 6707 142d 0C000000 		.4byte	textbgcolor
 6708 1431 24       		.uleb128 0x24
 6709 1432 69010000 		.4byte	.LASF121
 6710 1436 01       		.byte	0x1
 6711 1437 8F       		.byte	0x8f
 6712 1438 CD000000 		.4byte	0xcd
 6713 143c 05       		.uleb128 0x5
 6714 143d 03       		.byte	0x3
 6715 143e 0A000000 		.4byte	textsize
 6716 1442 27       		.uleb128 0x27
 6717 1443 DD040000 		.4byte	.LASF122
 6718 1447 01       		.byte	0x1
 6719 1448 92       		.byte	0x92
 6720 1449 CD000000 		.4byte	0xcd
 6721 144d 27       		.uleb128 0x27
 6722 144e 42040000 		.4byte	.LASF123
 6723 1452 01       		.byte	0x1
 6724 1453 93       		.byte	0x93
 6725 1454 CD000000 		.4byte	0xcd
 6726 1458 28       		.uleb128 0x28
 6727 1459 DA010000 		.4byte	.LASF124
 6728 145d 01       		.byte	0x1
 6729 145e 8B       		.byte	0x8b
 6730 145f D8000000 		.4byte	0xd8
 6731 1463 05       		.uleb128 0x5
 6732 1464 03       		.byte	0x3
 6733 1465 00000000 		.4byte	WIDTH
 6734 1469 28       		.uleb128 0x28
 6735 146a 1D010000 		.4byte	.LASF125
 6736 146e 01       		.byte	0x1
 6737 146f 8B       		.byte	0x8b
 6738 1470 D8000000 		.4byte	0xd8
 6739 1474 05       		.uleb128 0x5
 6740 1475 03       		.byte	0x3
 6741 1476 00000000 		.4byte	HEIGHT
 6742 147a 28       		.uleb128 0x28
 6743 147b 81000000 		.4byte	.LASF126
 6744 147f 01       		.byte	0x1
 6745 1480 90       		.byte	0x90
 6746 1481 CD000000 		.4byte	0xcd
 6747 1485 05       		.uleb128 0x5
 6748 1486 03       		.byte	0x3
 6749 1487 00000000 		.4byte	rotation
 6750 148b 28       		.uleb128 0x28
 6751 148c E7050000 		.4byte	.LASF127
ARM GAS  C:\Users\Besitzer\AppData\Local\Temp\cczB0neC.s 			page 141


 6752 1490 01       		.byte	0x1
 6753 1491 91       		.byte	0x91
 6754 1492 CD000000 		.4byte	0xcd
 6755 1496 05       		.uleb128 0x5
 6756 1497 03       		.byte	0x3
 6757 1498 00000000 		.4byte	wrap
 6758 149c 29       		.uleb128 0x29
 6759 149d 0D050000 		.4byte	.LASF128
 6760 14a1 0D050000 		.4byte	.LASF128
 6761 14a5 07       		.byte	0x7
 6762 14a6 B1       		.byte	0xb1
 6763 14a7 29       		.uleb128 0x29
 6764 14a8 19030000 		.4byte	.LASF129
 6765 14ac 19030000 		.4byte	.LASF129
 6766 14b0 07       		.byte	0x7
 6767 14b1 B6       		.byte	0xb6
 6768 14b2 29       		.uleb128 0x29
 6769 14b3 08010000 		.4byte	.LASF130
 6770 14b7 08010000 		.4byte	.LASF130
 6771 14bb 07       		.byte	0x7
 6772 14bc B5       		.byte	0xb5
 6773 14bd 2A       		.uleb128 0x2a
 6774 14be 0C040000 		.4byte	.LASF140
 6775 14c2 0C040000 		.4byte	.LASF140
 6776 14c6 29       		.uleb128 0x29
 6777 14c7 0E000000 		.4byte	.LASF131
 6778 14cb 0E000000 		.4byte	.LASF131
 6779 14cf 08       		.byte	0x8
 6780 14d0 21       		.byte	0x21
 6781 14d1 29       		.uleb128 0x29
 6782 14d2 C5050000 		.4byte	.LASF132
 6783 14d6 C5050000 		.4byte	.LASF132
 6784 14da 09       		.byte	0x9
 6785 14db 26       		.byte	0x26
 6786 14dc 29       		.uleb128 0x29
 6787 14dd F7030000 		.4byte	.LASF133
 6788 14e1 F7030000 		.4byte	.LASF133
 6789 14e5 07       		.byte	0x7
 6790 14e6 91       		.byte	0x91
 6791 14e7 29       		.uleb128 0x29
 6792 14e8 18060000 		.4byte	.LASF134
 6793 14ec 18060000 		.4byte	.LASF134
 6794 14f0 07       		.byte	0x7
 6795 14f1 93       		.byte	0x93
 6796 14f2 29       		.uleb128 0x29
 6797 14f3 50030000 		.4byte	.LASF135
 6798 14f7 50030000 		.4byte	.LASF135
 6799 14fb 0A       		.byte	0xa
 6800 14fc 76       		.byte	0x76
 6801 14fd 00       		.byte	0
 6802              		.section	.debug_abbrev,"",%progbits
 6803              	.Ldebug_abbrev0:
 6804 0000 01       		.uleb128 0x1
 6805 0001 11       		.uleb128 0x11
 6806 0002 01       		.byte	0x1
 6807 0003 25       		.uleb128 0x25
 6808 0004 0E       		.uleb128 0xe
ARM GAS  C:\Users\Besitzer\AppData\Local\Temp\cczB0neC.s 			page 142


 6809 0005 13       		.uleb128 0x13
 6810 0006 0B       		.uleb128 0xb
 6811 0007 03       		.uleb128 0x3
 6812 0008 0E       		.uleb128 0xe
 6813 0009 1B       		.uleb128 0x1b
 6814 000a 0E       		.uleb128 0xe
 6815 000b 55       		.uleb128 0x55
 6816 000c 17       		.uleb128 0x17
 6817 000d 11       		.uleb128 0x11
 6818 000e 01       		.uleb128 0x1
 6819 000f 10       		.uleb128 0x10
 6820 0010 17       		.uleb128 0x17
 6821 0011 00       		.byte	0
 6822 0012 00       		.byte	0
 6823 0013 02       		.uleb128 0x2
 6824 0014 24       		.uleb128 0x24
 6825 0015 00       		.byte	0
 6826 0016 0B       		.uleb128 0xb
 6827 0017 0B       		.uleb128 0xb
 6828 0018 3E       		.uleb128 0x3e
 6829 0019 0B       		.uleb128 0xb
 6830 001a 03       		.uleb128 0x3
 6831 001b 0E       		.uleb128 0xe
 6832 001c 00       		.byte	0
 6833 001d 00       		.byte	0
 6834 001e 03       		.uleb128 0x3
 6835 001f 24       		.uleb128 0x24
 6836 0020 00       		.byte	0
 6837 0021 0B       		.uleb128 0xb
 6838 0022 0B       		.uleb128 0xb
 6839 0023 3E       		.uleb128 0x3e
 6840 0024 0B       		.uleb128 0xb
 6841 0025 03       		.uleb128 0x3
 6842 0026 08       		.uleb128 0x8
 6843 0027 00       		.byte	0
 6844 0028 00       		.byte	0
 6845 0029 04       		.uleb128 0x4
 6846 002a 16       		.uleb128 0x16
 6847 002b 00       		.byte	0
 6848 002c 03       		.uleb128 0x3
 6849 002d 0E       		.uleb128 0xe
 6850 002e 3A       		.uleb128 0x3a
 6851 002f 0B       		.uleb128 0xb
 6852 0030 3B       		.uleb128 0x3b
 6853 0031 0B       		.uleb128 0xb
 6854 0032 49       		.uleb128 0x49
 6855 0033 13       		.uleb128 0x13
 6856 0034 00       		.byte	0
 6857 0035 00       		.byte	0
 6858 0036 05       		.uleb128 0x5
 6859 0037 0F       		.uleb128 0xf
 6860 0038 00       		.byte	0
 6861 0039 0B       		.uleb128 0xb
 6862 003a 0B       		.uleb128 0xb
 6863 003b 49       		.uleb128 0x49
 6864 003c 13       		.uleb128 0x13
 6865 003d 00       		.byte	0
ARM GAS  C:\Users\Besitzer\AppData\Local\Temp\cczB0neC.s 			page 143


 6866 003e 00       		.byte	0
 6867 003f 06       		.uleb128 0x6
 6868 0040 26       		.uleb128 0x26
 6869 0041 00       		.byte	0
 6870 0042 49       		.uleb128 0x49
 6871 0043 13       		.uleb128 0x13
 6872 0044 00       		.byte	0
 6873 0045 00       		.byte	0
 6874 0046 07       		.uleb128 0x7
 6875 0047 04       		.uleb128 0x4
 6876 0048 01       		.byte	0x1
 6877 0049 0B       		.uleb128 0xb
 6878 004a 0B       		.uleb128 0xb
 6879 004b 49       		.uleb128 0x49
 6880 004c 13       		.uleb128 0x13
 6881 004d 3A       		.uleb128 0x3a
 6882 004e 0B       		.uleb128 0xb
 6883 004f 3B       		.uleb128 0x3b
 6884 0050 0B       		.uleb128 0xb
 6885 0051 01       		.uleb128 0x1
 6886 0052 13       		.uleb128 0x13
 6887 0053 00       		.byte	0
 6888 0054 00       		.byte	0
 6889 0055 08       		.uleb128 0x8
 6890 0056 28       		.uleb128 0x28
 6891 0057 00       		.byte	0
 6892 0058 03       		.uleb128 0x3
 6893 0059 0E       		.uleb128 0xe
 6894 005a 1C       		.uleb128 0x1c
 6895 005b 0B       		.uleb128 0xb
 6896 005c 00       		.byte	0
 6897 005d 00       		.byte	0
 6898 005e 09       		.uleb128 0x9
 6899 005f 16       		.uleb128 0x16
 6900 0060 00       		.byte	0
 6901 0061 03       		.uleb128 0x3
 6902 0062 0E       		.uleb128 0xe
 6903 0063 3A       		.uleb128 0x3a
 6904 0064 0B       		.uleb128 0xb
 6905 0065 3B       		.uleb128 0x3b
 6906 0066 05       		.uleb128 0x5
 6907 0067 49       		.uleb128 0x49
 6908 0068 13       		.uleb128 0x13
 6909 0069 00       		.byte	0
 6910 006a 00       		.byte	0
 6911 006b 0A       		.uleb128 0xa
 6912 006c 35       		.uleb128 0x35
 6913 006d 00       		.byte	0
 6914 006e 49       		.uleb128 0x49
 6915 006f 13       		.uleb128 0x13
 6916 0070 00       		.byte	0
 6917 0071 00       		.byte	0
 6918 0072 0B       		.uleb128 0xb
 6919 0073 2E       		.uleb128 0x2e
 6920 0074 01       		.byte	0x1
 6921 0075 03       		.uleb128 0x3
 6922 0076 0E       		.uleb128 0xe
ARM GAS  C:\Users\Besitzer\AppData\Local\Temp\cczB0neC.s 			page 144


 6923 0077 3A       		.uleb128 0x3a
 6924 0078 0B       		.uleb128 0xb
 6925 0079 3B       		.uleb128 0x3b
 6926 007a 0B       		.uleb128 0xb
 6927 007b 27       		.uleb128 0x27
 6928 007c 19       		.uleb128 0x19
 6929 007d 11       		.uleb128 0x11
 6930 007e 01       		.uleb128 0x1
 6931 007f 12       		.uleb128 0x12
 6932 0080 06       		.uleb128 0x6
 6933 0081 40       		.uleb128 0x40
 6934 0082 18       		.uleb128 0x18
 6935 0083 9742     		.uleb128 0x2117
 6936 0085 19       		.uleb128 0x19
 6937 0086 01       		.uleb128 0x1
 6938 0087 13       		.uleb128 0x13
 6939 0088 00       		.byte	0
 6940 0089 00       		.byte	0
 6941 008a 0C       		.uleb128 0xc
 6942 008b 05       		.uleb128 0x5
 6943 008c 00       		.byte	0
 6944 008d 03       		.uleb128 0x3
 6945 008e 08       		.uleb128 0x8
 6946 008f 3A       		.uleb128 0x3a
 6947 0090 0B       		.uleb128 0xb
 6948 0091 3B       		.uleb128 0x3b
 6949 0092 0B       		.uleb128 0xb
 6950 0093 49       		.uleb128 0x49
 6951 0094 13       		.uleb128 0x13
 6952 0095 02       		.uleb128 0x2
 6953 0096 17       		.uleb128 0x17
 6954 0097 00       		.byte	0
 6955 0098 00       		.byte	0
 6956 0099 0D       		.uleb128 0xd
 6957 009a 05       		.uleb128 0x5
 6958 009b 00       		.byte	0
 6959 009c 03       		.uleb128 0x3
 6960 009d 0E       		.uleb128 0xe
 6961 009e 3A       		.uleb128 0x3a
 6962 009f 0B       		.uleb128 0xb
 6963 00a0 3B       		.uleb128 0x3b
 6964 00a1 0B       		.uleb128 0xb
 6965 00a2 49       		.uleb128 0x49
 6966 00a3 13       		.uleb128 0x13
 6967 00a4 02       		.uleb128 0x2
 6968 00a5 17       		.uleb128 0x17
 6969 00a6 00       		.byte	0
 6970 00a7 00       		.byte	0
 6971 00a8 0E       		.uleb128 0xe
 6972 00a9 2E       		.uleb128 0x2e
 6973 00aa 01       		.byte	0x1
 6974 00ab 03       		.uleb128 0x3
 6975 00ac 0E       		.uleb128 0xe
 6976 00ad 3A       		.uleb128 0x3a
 6977 00ae 0B       		.uleb128 0xb
 6978 00af 3B       		.uleb128 0x3b
 6979 00b0 05       		.uleb128 0x5
ARM GAS  C:\Users\Besitzer\AppData\Local\Temp\cczB0neC.s 			page 145


 6980 00b1 27       		.uleb128 0x27
 6981 00b2 19       		.uleb128 0x19
 6982 00b3 11       		.uleb128 0x11
 6983 00b4 01       		.uleb128 0x1
 6984 00b5 12       		.uleb128 0x12
 6985 00b6 06       		.uleb128 0x6
 6986 00b7 40       		.uleb128 0x40
 6987 00b8 18       		.uleb128 0x18
 6988 00b9 9742     		.uleb128 0x2117
 6989 00bb 19       		.uleb128 0x19
 6990 00bc 01       		.uleb128 0x1
 6991 00bd 13       		.uleb128 0x13
 6992 00be 00       		.byte	0
 6993 00bf 00       		.byte	0
 6994 00c0 0F       		.uleb128 0xf
 6995 00c1 05       		.uleb128 0x5
 6996 00c2 00       		.byte	0
 6997 00c3 03       		.uleb128 0x3
 6998 00c4 08       		.uleb128 0x8
 6999 00c5 3A       		.uleb128 0x3a
 7000 00c6 0B       		.uleb128 0xb
 7001 00c7 3B       		.uleb128 0x3b
 7002 00c8 05       		.uleb128 0x5
 7003 00c9 49       		.uleb128 0x49
 7004 00ca 13       		.uleb128 0x13
 7005 00cb 02       		.uleb128 0x2
 7006 00cc 17       		.uleb128 0x17
 7007 00cd 00       		.byte	0
 7008 00ce 00       		.byte	0
 7009 00cf 10       		.uleb128 0x10
 7010 00d0 05       		.uleb128 0x5
 7011 00d1 00       		.byte	0
 7012 00d2 03       		.uleb128 0x3
 7013 00d3 0E       		.uleb128 0xe
 7014 00d4 3A       		.uleb128 0x3a
 7015 00d5 0B       		.uleb128 0xb
 7016 00d6 3B       		.uleb128 0x3b
 7017 00d7 05       		.uleb128 0x5
 7018 00d8 49       		.uleb128 0x49
 7019 00d9 13       		.uleb128 0x13
 7020 00da 02       		.uleb128 0x2
 7021 00db 17       		.uleb128 0x17
 7022 00dc 00       		.byte	0
 7023 00dd 00       		.byte	0
 7024 00de 11       		.uleb128 0x11
 7025 00df 0B       		.uleb128 0xb
 7026 00e0 01       		.byte	0x1
 7027 00e1 11       		.uleb128 0x11
 7028 00e2 01       		.uleb128 0x1
 7029 00e3 12       		.uleb128 0x12
 7030 00e4 06       		.uleb128 0x6
 7031 00e5 01       		.uleb128 0x1
 7032 00e6 13       		.uleb128 0x13
 7033 00e7 00       		.byte	0
 7034 00e8 00       		.byte	0
 7035 00e9 12       		.uleb128 0x12
 7036 00ea 34       		.uleb128 0x34
ARM GAS  C:\Users\Besitzer\AppData\Local\Temp\cczB0neC.s 			page 146


 7037 00eb 00       		.byte	0
 7038 00ec 03       		.uleb128 0x3
 7039 00ed 0E       		.uleb128 0xe
 7040 00ee 3A       		.uleb128 0x3a
 7041 00ef 0B       		.uleb128 0xb
 7042 00f0 3B       		.uleb128 0x3b
 7043 00f1 05       		.uleb128 0x5
 7044 00f2 49       		.uleb128 0x49
 7045 00f3 13       		.uleb128 0x13
 7046 00f4 02       		.uleb128 0x2
 7047 00f5 17       		.uleb128 0x17
 7048 00f6 00       		.byte	0
 7049 00f7 00       		.byte	0
 7050 00f8 13       		.uleb128 0x13
 7051 00f9 34       		.uleb128 0x34
 7052 00fa 00       		.byte	0
 7053 00fb 03       		.uleb128 0x3
 7054 00fc 08       		.uleb128 0x8
 7055 00fd 3A       		.uleb128 0x3a
 7056 00fe 0B       		.uleb128 0xb
 7057 00ff 3B       		.uleb128 0x3b
 7058 0100 05       		.uleb128 0x5
 7059 0101 49       		.uleb128 0x49
 7060 0102 13       		.uleb128 0x13
 7061 0103 02       		.uleb128 0x2
 7062 0104 17       		.uleb128 0x17
 7063 0105 00       		.byte	0
 7064 0106 00       		.byte	0
 7065 0107 14       		.uleb128 0x14
 7066 0108 0B       		.uleb128 0xb
 7067 0109 01       		.byte	0x1
 7068 010a 11       		.uleb128 0x11
 7069 010b 01       		.uleb128 0x1
 7070 010c 12       		.uleb128 0x12
 7071 010d 06       		.uleb128 0x6
 7072 010e 00       		.byte	0
 7073 010f 00       		.byte	0
 7074 0110 15       		.uleb128 0x15
 7075 0111 34       		.uleb128 0x34
 7076 0112 00       		.byte	0
 7077 0113 03       		.uleb128 0x3
 7078 0114 0E       		.uleb128 0xe
 7079 0115 3A       		.uleb128 0x3a
 7080 0116 0B       		.uleb128 0xb
 7081 0117 3B       		.uleb128 0x3b
 7082 0118 05       		.uleb128 0x5
 7083 0119 49       		.uleb128 0x49
 7084 011a 13       		.uleb128 0x13
 7085 011b 02       		.uleb128 0x2
 7086 011c 18       		.uleb128 0x18
 7087 011d 00       		.byte	0
 7088 011e 00       		.byte	0
 7089 011f 16       		.uleb128 0x16
 7090 0120 34       		.uleb128 0x34
 7091 0121 00       		.byte	0
 7092 0122 03       		.uleb128 0x3
 7093 0123 08       		.uleb128 0x8
ARM GAS  C:\Users\Besitzer\AppData\Local\Temp\cczB0neC.s 			page 147


 7094 0124 3A       		.uleb128 0x3a
 7095 0125 0B       		.uleb128 0xb
 7096 0126 3B       		.uleb128 0x3b
 7097 0127 05       		.uleb128 0x5
 7098 0128 49       		.uleb128 0x49
 7099 0129 13       		.uleb128 0x13
 7100 012a 02       		.uleb128 0x2
 7101 012b 18       		.uleb128 0x18
 7102 012c 00       		.byte	0
 7103 012d 00       		.byte	0
 7104 012e 17       		.uleb128 0x17
 7105 012f 05       		.uleb128 0x5
 7106 0130 00       		.byte	0
 7107 0131 03       		.uleb128 0x3
 7108 0132 08       		.uleb128 0x8
 7109 0133 3A       		.uleb128 0x3a
 7110 0134 0B       		.uleb128 0xb
 7111 0135 3B       		.uleb128 0x3b
 7112 0136 05       		.uleb128 0x5
 7113 0137 49       		.uleb128 0x49
 7114 0138 13       		.uleb128 0x13
 7115 0139 02       		.uleb128 0x2
 7116 013a 18       		.uleb128 0x18
 7117 013b 00       		.byte	0
 7118 013c 00       		.byte	0
 7119 013d 18       		.uleb128 0x18
 7120 013e 898201   		.uleb128 0x4109
 7121 0141 01       		.byte	0x1
 7122 0142 11       		.uleb128 0x11
 7123 0143 01       		.uleb128 0x1
 7124 0144 31       		.uleb128 0x31
 7125 0145 13       		.uleb128 0x13
 7126 0146 01       		.uleb128 0x1
 7127 0147 13       		.uleb128 0x13
 7128 0148 00       		.byte	0
 7129 0149 00       		.byte	0
 7130 014a 19       		.uleb128 0x19
 7131 014b 8A8201   		.uleb128 0x410a
 7132 014e 00       		.byte	0
 7133 014f 02       		.uleb128 0x2
 7134 0150 18       		.uleb128 0x18
 7135 0151 9142     		.uleb128 0x2111
 7136 0153 18       		.uleb128 0x18
 7137 0154 00       		.byte	0
 7138 0155 00       		.byte	0
 7139 0156 1A       		.uleb128 0x1a
 7140 0157 898201   		.uleb128 0x4109
 7141 015a 01       		.byte	0x1
 7142 015b 11       		.uleb128 0x11
 7143 015c 01       		.uleb128 0x1
 7144 015d 31       		.uleb128 0x31
 7145 015e 13       		.uleb128 0x13
 7146 015f 00       		.byte	0
 7147 0160 00       		.byte	0
 7148 0161 1B       		.uleb128 0x1b
 7149 0162 2E       		.uleb128 0x2e
 7150 0163 01       		.byte	0x1
ARM GAS  C:\Users\Besitzer\AppData\Local\Temp\cczB0neC.s 			page 148


 7151 0164 03       		.uleb128 0x3
 7152 0165 0E       		.uleb128 0xe
 7153 0166 3A       		.uleb128 0x3a
 7154 0167 0B       		.uleb128 0xb
 7155 0168 3B       		.uleb128 0x3b
 7156 0169 05       		.uleb128 0x5
 7157 016a 27       		.uleb128 0x27
 7158 016b 19       		.uleb128 0x19
 7159 016c 49       		.uleb128 0x49
 7160 016d 13       		.uleb128 0x13
 7161 016e 11       		.uleb128 0x11
 7162 016f 01       		.uleb128 0x1
 7163 0170 12       		.uleb128 0x12
 7164 0171 06       		.uleb128 0x6
 7165 0172 40       		.uleb128 0x40
 7166 0173 18       		.uleb128 0x18
 7167 0174 9742     		.uleb128 0x2117
 7168 0176 19       		.uleb128 0x19
 7169 0177 01       		.uleb128 0x1
 7170 0178 13       		.uleb128 0x13
 7171 0179 00       		.byte	0
 7172 017a 00       		.byte	0
 7173 017b 1C       		.uleb128 0x1c
 7174 017c 898201   		.uleb128 0x4109
 7175 017f 00       		.byte	0
 7176 0180 11       		.uleb128 0x11
 7177 0181 01       		.uleb128 0x1
 7178 0182 31       		.uleb128 0x31
 7179 0183 13       		.uleb128 0x13
 7180 0184 00       		.byte	0
 7181 0185 00       		.byte	0
 7182 0186 1D       		.uleb128 0x1d
 7183 0187 01       		.uleb128 0x1
 7184 0188 01       		.byte	0x1
 7185 0189 49       		.uleb128 0x49
 7186 018a 13       		.uleb128 0x13
 7187 018b 01       		.uleb128 0x1
 7188 018c 13       		.uleb128 0x13
 7189 018d 00       		.byte	0
 7190 018e 00       		.byte	0
 7191 018f 1E       		.uleb128 0x1e
 7192 0190 21       		.uleb128 0x21
 7193 0191 00       		.byte	0
 7194 0192 49       		.uleb128 0x49
 7195 0193 13       		.uleb128 0x13
 7196 0194 2F       		.uleb128 0x2f
 7197 0195 0B       		.uleb128 0xb
 7198 0196 00       		.byte	0
 7199 0197 00       		.byte	0
 7200 0198 1F       		.uleb128 0x1f
 7201 0199 2E       		.uleb128 0x2e
 7202 019a 01       		.byte	0x1
 7203 019b 3F       		.uleb128 0x3f
 7204 019c 19       		.uleb128 0x19
 7205 019d 03       		.uleb128 0x3
 7206 019e 0E       		.uleb128 0xe
 7207 019f 3A       		.uleb128 0x3a
ARM GAS  C:\Users\Besitzer\AppData\Local\Temp\cczB0neC.s 			page 149


 7208 01a0 0B       		.uleb128 0xb
 7209 01a1 3B       		.uleb128 0x3b
 7210 01a2 0B       		.uleb128 0xb
 7211 01a3 27       		.uleb128 0x27
 7212 01a4 19       		.uleb128 0x19
 7213 01a5 11       		.uleb128 0x11
 7214 01a6 01       		.uleb128 0x1
 7215 01a7 12       		.uleb128 0x12
 7216 01a8 06       		.uleb128 0x6
 7217 01a9 40       		.uleb128 0x40
 7218 01aa 18       		.uleb128 0x18
 7219 01ab 9742     		.uleb128 0x2117
 7220 01ad 19       		.uleb128 0x19
 7221 01ae 01       		.uleb128 0x1
 7222 01af 13       		.uleb128 0x13
 7223 01b0 00       		.byte	0
 7224 01b1 00       		.byte	0
 7225 01b2 20       		.uleb128 0x20
 7226 01b3 2E       		.uleb128 0x2e
 7227 01b4 01       		.byte	0x1
 7228 01b5 3F       		.uleb128 0x3f
 7229 01b6 19       		.uleb128 0x19
 7230 01b7 03       		.uleb128 0x3
 7231 01b8 0E       		.uleb128 0xe
 7232 01b9 3A       		.uleb128 0x3a
 7233 01ba 0B       		.uleb128 0xb
 7234 01bb 3B       		.uleb128 0x3b
 7235 01bc 05       		.uleb128 0x5
 7236 01bd 27       		.uleb128 0x27
 7237 01be 19       		.uleb128 0x19
 7238 01bf 11       		.uleb128 0x11
 7239 01c0 01       		.uleb128 0x1
 7240 01c1 12       		.uleb128 0x12
 7241 01c2 06       		.uleb128 0x6
 7242 01c3 40       		.uleb128 0x40
 7243 01c4 18       		.uleb128 0x18
 7244 01c5 9742     		.uleb128 0x2117
 7245 01c7 19       		.uleb128 0x19
 7246 01c8 01       		.uleb128 0x1
 7247 01c9 13       		.uleb128 0x13
 7248 01ca 00       		.byte	0
 7249 01cb 00       		.byte	0
 7250 01cc 21       		.uleb128 0x21
 7251 01cd 05       		.uleb128 0x5
 7252 01ce 00       		.byte	0
 7253 01cf 03       		.uleb128 0x3
 7254 01d0 0E       		.uleb128 0xe
 7255 01d1 3A       		.uleb128 0x3a
 7256 01d2 0B       		.uleb128 0xb
 7257 01d3 3B       		.uleb128 0x3b
 7258 01d4 05       		.uleb128 0x5
 7259 01d5 49       		.uleb128 0x49
 7260 01d6 13       		.uleb128 0x13
 7261 01d7 02       		.uleb128 0x2
 7262 01d8 18       		.uleb128 0x18
 7263 01d9 00       		.byte	0
 7264 01da 00       		.byte	0
ARM GAS  C:\Users\Besitzer\AppData\Local\Temp\cczB0neC.s 			page 150


 7265 01db 22       		.uleb128 0x22
 7266 01dc 2E       		.uleb128 0x2e
 7267 01dd 00       		.byte	0
 7268 01de 3F       		.uleb128 0x3f
 7269 01df 19       		.uleb128 0x19
 7270 01e0 03       		.uleb128 0x3
 7271 01e1 0E       		.uleb128 0xe
 7272 01e2 3A       		.uleb128 0x3a
 7273 01e3 0B       		.uleb128 0xb
 7274 01e4 3B       		.uleb128 0x3b
 7275 01e5 05       		.uleb128 0x5
 7276 01e6 27       		.uleb128 0x27
 7277 01e7 19       		.uleb128 0x19
 7278 01e8 49       		.uleb128 0x49
 7279 01e9 13       		.uleb128 0x13
 7280 01ea 11       		.uleb128 0x11
 7281 01eb 01       		.uleb128 0x1
 7282 01ec 12       		.uleb128 0x12
 7283 01ed 06       		.uleb128 0x6
 7284 01ee 40       		.uleb128 0x40
 7285 01ef 18       		.uleb128 0x18
 7286 01f0 9742     		.uleb128 0x2117
 7287 01f2 19       		.uleb128 0x19
 7288 01f3 00       		.byte	0
 7289 01f4 00       		.byte	0
 7290 01f5 23       		.uleb128 0x23
 7291 01f6 34       		.uleb128 0x34
 7292 01f7 00       		.byte	0
 7293 01f8 03       		.uleb128 0x3
 7294 01f9 08       		.uleb128 0x8
 7295 01fa 3A       		.uleb128 0x3a
 7296 01fb 0B       		.uleb128 0xb
 7297 01fc 3B       		.uleb128 0x3b
 7298 01fd 05       		.uleb128 0x5
 7299 01fe 49       		.uleb128 0x49
 7300 01ff 13       		.uleb128 0x13
 7301 0200 00       		.byte	0
 7302 0201 00       		.byte	0
 7303 0202 24       		.uleb128 0x24
 7304 0203 34       		.uleb128 0x34
 7305 0204 00       		.byte	0
 7306 0205 03       		.uleb128 0x3
 7307 0206 0E       		.uleb128 0xe
 7308 0207 3A       		.uleb128 0x3a
 7309 0208 0B       		.uleb128 0xb
 7310 0209 3B       		.uleb128 0x3b
 7311 020a 0B       		.uleb128 0xb
 7312 020b 49       		.uleb128 0x49
 7313 020c 13       		.uleb128 0x13
 7314 020d 02       		.uleb128 0x2
 7315 020e 18       		.uleb128 0x18
 7316 020f 00       		.byte	0
 7317 0210 00       		.byte	0
 7318 0211 25       		.uleb128 0x25
 7319 0212 21       		.uleb128 0x21
 7320 0213 00       		.byte	0
 7321 0214 49       		.uleb128 0x49
ARM GAS  C:\Users\Besitzer\AppData\Local\Temp\cczB0neC.s 			page 151


 7322 0215 13       		.uleb128 0x13
 7323 0216 2F       		.uleb128 0x2f
 7324 0217 05       		.uleb128 0x5
 7325 0218 00       		.byte	0
 7326 0219 00       		.byte	0
 7327 021a 26       		.uleb128 0x26
 7328 021b 34       		.uleb128 0x34
 7329 021c 00       		.byte	0
 7330 021d 03       		.uleb128 0x3
 7331 021e 0E       		.uleb128 0xe
 7332 021f 3A       		.uleb128 0x3a
 7333 0220 0B       		.uleb128 0xb
 7334 0221 3B       		.uleb128 0x3b
 7335 0222 0B       		.uleb128 0xb
 7336 0223 49       		.uleb128 0x49
 7337 0224 13       		.uleb128 0x13
 7338 0225 1C       		.uleb128 0x1c
 7339 0226 05       		.uleb128 0x5
 7340 0227 00       		.byte	0
 7341 0228 00       		.byte	0
 7342 0229 27       		.uleb128 0x27
 7343 022a 34       		.uleb128 0x34
 7344 022b 00       		.byte	0
 7345 022c 03       		.uleb128 0x3
 7346 022d 0E       		.uleb128 0xe
 7347 022e 3A       		.uleb128 0x3a
 7348 022f 0B       		.uleb128 0xb
 7349 0230 3B       		.uleb128 0x3b
 7350 0231 0B       		.uleb128 0xb
 7351 0232 49       		.uleb128 0x49
 7352 0233 13       		.uleb128 0x13
 7353 0234 00       		.byte	0
 7354 0235 00       		.byte	0
 7355 0236 28       		.uleb128 0x28
 7356 0237 34       		.uleb128 0x34
 7357 0238 00       		.byte	0
 7358 0239 03       		.uleb128 0x3
 7359 023a 0E       		.uleb128 0xe
 7360 023b 3A       		.uleb128 0x3a
 7361 023c 0B       		.uleb128 0xb
 7362 023d 3B       		.uleb128 0x3b
 7363 023e 0B       		.uleb128 0xb
 7364 023f 49       		.uleb128 0x49
 7365 0240 13       		.uleb128 0x13
 7366 0241 3F       		.uleb128 0x3f
 7367 0242 19       		.uleb128 0x19
 7368 0243 02       		.uleb128 0x2
 7369 0244 18       		.uleb128 0x18
 7370 0245 00       		.byte	0
 7371 0246 00       		.byte	0
 7372 0247 29       		.uleb128 0x29
 7373 0248 2E       		.uleb128 0x2e
 7374 0249 00       		.byte	0
 7375 024a 3F       		.uleb128 0x3f
 7376 024b 19       		.uleb128 0x19
 7377 024c 3C       		.uleb128 0x3c
 7378 024d 19       		.uleb128 0x19
ARM GAS  C:\Users\Besitzer\AppData\Local\Temp\cczB0neC.s 			page 152


 7379 024e 6E       		.uleb128 0x6e
 7380 024f 0E       		.uleb128 0xe
 7381 0250 03       		.uleb128 0x3
 7382 0251 0E       		.uleb128 0xe
 7383 0252 3A       		.uleb128 0x3a
 7384 0253 0B       		.uleb128 0xb
 7385 0254 3B       		.uleb128 0x3b
 7386 0255 0B       		.uleb128 0xb
 7387 0256 00       		.byte	0
 7388 0257 00       		.byte	0
 7389 0258 2A       		.uleb128 0x2a
 7390 0259 2E       		.uleb128 0x2e
 7391 025a 00       		.byte	0
 7392 025b 3F       		.uleb128 0x3f
 7393 025c 19       		.uleb128 0x19
 7394 025d 3C       		.uleb128 0x3c
 7395 025e 19       		.uleb128 0x19
 7396 025f 6E       		.uleb128 0x6e
 7397 0260 0E       		.uleb128 0xe
 7398 0261 03       		.uleb128 0x3
 7399 0262 0E       		.uleb128 0xe
 7400 0263 00       		.byte	0
 7401 0264 00       		.byte	0
 7402 0265 00       		.byte	0
 7403              		.section	.debug_loc,"",%progbits
 7404              	.Ldebug_loc0:
 7405              	.LLST0:
 7406 0000 00000000 		.4byte	.LVL0
 7407 0004 2A000000 		.4byte	.LVL2
 7408 0008 0100     		.2byte	0x1
 7409 000a 50       		.byte	0x50
 7410 000b 2A000000 		.4byte	.LVL2
 7411 000f 3C000000 		.4byte	.LVL4
 7412 0013 0400     		.2byte	0x4
 7413 0015 F3       		.byte	0xf3
 7414 0016 01       		.uleb128 0x1
 7415 0017 50       		.byte	0x50
 7416 0018 9F       		.byte	0x9f
 7417 0019 3C000000 		.4byte	.LVL4
 7418 001d 4C000000 		.4byte	.LVL6
 7419 0021 0100     		.2byte	0x1
 7420 0023 50       		.byte	0x50
 7421 0024 4C000000 		.4byte	.LVL6
 7422 0028 60000000 		.4byte	.LVL8
 7423 002c 0400     		.2byte	0x4
 7424 002e F3       		.byte	0xf3
 7425 002f 01       		.uleb128 0x1
 7426 0030 50       		.byte	0x50
 7427 0031 9F       		.byte	0x9f
 7428 0032 60000000 		.4byte	.LVL8
 7429 0036 70000000 		.4byte	.LVL10
 7430 003a 0100     		.2byte	0x1
 7431 003c 50       		.byte	0x50
 7432 003d 70000000 		.4byte	.LVL10
 7433 0041 88000000 		.4byte	.LFE1
 7434 0045 0400     		.2byte	0x4
 7435 0047 F3       		.byte	0xf3
ARM GAS  C:\Users\Besitzer\AppData\Local\Temp\cczB0neC.s 			page 153


 7436 0048 01       		.uleb128 0x1
 7437 0049 50       		.byte	0x50
 7438 004a 9F       		.byte	0x9f
 7439 004b 00000000 		.4byte	0
 7440 004f 00000000 		.4byte	0
 7441              	.LLST1:
 7442 0053 00000000 		.4byte	.LVL0
 7443 0057 2E000000 		.4byte	.LVL3
 7444 005b 0100     		.2byte	0x1
 7445 005d 51       		.byte	0x51
 7446 005e 2E000000 		.4byte	.LVL3
 7447 0062 3C000000 		.4byte	.LVL4
 7448 0066 0400     		.2byte	0x4
 7449 0068 F3       		.byte	0xf3
 7450 0069 01       		.uleb128 0x1
 7451 006a 51       		.byte	0x51
 7452 006b 9F       		.byte	0x9f
 7453 006c 3C000000 		.4byte	.LVL4
 7454 0070 50000000 		.4byte	.LVL7
 7455 0074 0100     		.2byte	0x1
 7456 0076 51       		.byte	0x51
 7457 0077 50000000 		.4byte	.LVL7
 7458 007b 60000000 		.4byte	.LVL8
 7459 007f 0400     		.2byte	0x4
 7460 0081 F3       		.byte	0xf3
 7461 0082 01       		.uleb128 0x1
 7462 0083 51       		.byte	0x51
 7463 0084 9F       		.byte	0x9f
 7464 0085 60000000 		.4byte	.LVL8
 7465 0089 74000000 		.4byte	.LVL11
 7466 008d 0100     		.2byte	0x1
 7467 008f 51       		.byte	0x51
 7468 0090 74000000 		.4byte	.LVL11
 7469 0094 88000000 		.4byte	.LFE1
 7470 0098 0400     		.2byte	0x4
 7471 009a F3       		.byte	0xf3
 7472 009b 01       		.uleb128 0x1
 7473 009c 51       		.byte	0x51
 7474 009d 9F       		.byte	0x9f
 7475 009e 00000000 		.4byte	0
 7476 00a2 00000000 		.4byte	0
 7477              	.LLST2:
 7478 00a6 00000000 		.4byte	.LVL0
 7479 00aa 1C000000 		.4byte	.LVL1
 7480 00ae 0100     		.2byte	0x1
 7481 00b0 52       		.byte	0x52
 7482 00b1 1C000000 		.4byte	.LVL1
 7483 00b5 3C000000 		.4byte	.LVL4
 7484 00b9 0400     		.2byte	0x4
 7485 00bb F3       		.byte	0xf3
 7486 00bc 01       		.uleb128 0x1
 7487 00bd 52       		.byte	0x52
 7488 00be 9F       		.byte	0x9f
 7489 00bf 3C000000 		.4byte	.LVL4
 7490 00c3 3E000000 		.4byte	.LVL5
 7491 00c7 0100     		.2byte	0x1
 7492 00c9 52       		.byte	0x52
ARM GAS  C:\Users\Besitzer\AppData\Local\Temp\cczB0neC.s 			page 154


 7493 00ca 3E000000 		.4byte	.LVL5
 7494 00ce 60000000 		.4byte	.LVL8
 7495 00d2 0400     		.2byte	0x4
 7496 00d4 F3       		.byte	0xf3
 7497 00d5 01       		.uleb128 0x1
 7498 00d6 52       		.byte	0x52
 7499 00d7 9F       		.byte	0x9f
 7500 00d8 60000000 		.4byte	.LVL8
 7501 00dc 62000000 		.4byte	.LVL9
 7502 00e0 0100     		.2byte	0x1
 7503 00e2 52       		.byte	0x52
 7504 00e3 62000000 		.4byte	.LVL9
 7505 00e7 88000000 		.4byte	.LFE1
 7506 00eb 0400     		.2byte	0x4
 7507 00ed F3       		.byte	0xf3
 7508 00ee 01       		.uleb128 0x1
 7509 00ef 52       		.byte	0x52
 7510 00f0 9F       		.byte	0x9f
 7511 00f1 00000000 		.4byte	0
 7512 00f5 00000000 		.4byte	0
 7513              	.LLST3:
 7514 00f9 00000000 		.4byte	.LVL12
 7515 00fd 18000000 		.4byte	.LVL13
 7516 0101 0100     		.2byte	0x1
 7517 0103 50       		.byte	0x50
 7518 0104 18000000 		.4byte	.LVL13
 7519 0108 DA000000 		.4byte	.LVL27
 7520 010c 0400     		.2byte	0x4
 7521 010e F3       		.byte	0xf3
 7522 010f 01       		.uleb128 0x1
 7523 0110 50       		.byte	0x50
 7524 0111 9F       		.byte	0x9f
 7525 0112 DA000000 		.4byte	.LVL27
 7526 0116 F6000000 		.4byte	.LVL33
 7527 011a 0100     		.2byte	0x1
 7528 011c 50       		.byte	0x50
 7529 011d F6000000 		.4byte	.LVL33
 7530 0121 34010000 		.4byte	.LFE8
 7531 0125 0400     		.2byte	0x4
 7532 0127 F3       		.byte	0xf3
 7533 0128 01       		.uleb128 0x1
 7534 0129 50       		.byte	0x50
 7535 012a 9F       		.byte	0x9f
 7536 012b 00000000 		.4byte	0
 7537 012f 00000000 		.4byte	0
 7538              	.LLST4:
 7539 0133 00000000 		.4byte	.LVL12
 7540 0137 F4000000 		.4byte	.LVL32
 7541 013b 0100     		.2byte	0x1
 7542 013d 51       		.byte	0x51
 7543 013e F4000000 		.4byte	.LVL32
 7544 0142 34010000 		.4byte	.LFE8
 7545 0146 0400     		.2byte	0x4
 7546 0148 F3       		.byte	0xf3
 7547 0149 01       		.uleb128 0x1
 7548 014a 51       		.byte	0x51
 7549 014b 9F       		.byte	0x9f
ARM GAS  C:\Users\Besitzer\AppData\Local\Temp\cczB0neC.s 			page 155


 7550 014c 00000000 		.4byte	0
 7551 0150 00000000 		.4byte	0
 7552              	.LLST5:
 7553 0154 00000000 		.4byte	.LVL12
 7554 0158 2A000000 		.4byte	.LVL15
 7555 015c 0100     		.2byte	0x1
 7556 015e 52       		.byte	0x52
 7557 015f 2A000000 		.4byte	.LVL15
 7558 0163 DA000000 		.4byte	.LVL27
 7559 0167 0400     		.2byte	0x4
 7560 0169 F3       		.byte	0xf3
 7561 016a 01       		.uleb128 0x1
 7562 016b 52       		.byte	0x52
 7563 016c 9F       		.byte	0x9f
 7564 016d DA000000 		.4byte	.LVL27
 7565 0171 EE000000 		.4byte	.LVL30
 7566 0175 0100     		.2byte	0x1
 7567 0177 52       		.byte	0x52
 7568 0178 EE000000 		.4byte	.LVL30
 7569 017c 34010000 		.4byte	.LFE8
 7570 0180 0400     		.2byte	0x4
 7571 0182 F3       		.byte	0xf3
 7572 0183 01       		.uleb128 0x1
 7573 0184 52       		.byte	0x52
 7574 0185 9F       		.byte	0x9f
 7575 0186 00000000 		.4byte	0
 7576 018a 00000000 		.4byte	0
 7577              	.LLST6:
 7578 018e 00000000 		.4byte	.LVL12
 7579 0192 DC000000 		.4byte	.LVL28
 7580 0196 0100     		.2byte	0x1
 7581 0198 53       		.byte	0x53
 7582 0199 DC000000 		.4byte	.LVL28
 7583 019d 34010000 		.4byte	.LFE8
 7584 01a1 0400     		.2byte	0x4
 7585 01a3 F3       		.byte	0xf3
 7586 01a4 01       		.uleb128 0x1
 7587 01a5 53       		.byte	0x53
 7588 01a6 9F       		.byte	0x9f
 7589 01a7 00000000 		.4byte	0
 7590 01ab 00000000 		.4byte	0
 7591              	.LLST7:
 7592 01af 00000000 		.4byte	.LVL12
 7593 01b3 DA000000 		.4byte	.LVL27
 7594 01b7 0200     		.2byte	0x2
 7595 01b9 91       		.byte	0x91
 7596 01ba 00       		.sleb128 0
 7597 01bb DA000000 		.4byte	.LVL27
 7598 01bf 2A010000 		.4byte	.LVL37
 7599 01c3 0200     		.2byte	0x2
 7600 01c5 91       		.byte	0x91
 7601 01c6 00       		.sleb128 0
 7602 01c7 2A010000 		.4byte	.LVL37
 7603 01cb 34010000 		.4byte	.LFE8
 7604 01cf 0200     		.2byte	0x2
 7605 01d1 7D       		.byte	0x7d
 7606 01d2 00       		.sleb128 0
ARM GAS  C:\Users\Besitzer\AppData\Local\Temp\cczB0neC.s 			page 156


 7607 01d3 00000000 		.4byte	0
 7608 01d7 00000000 		.4byte	0
 7609              	.LLST8:
 7610 01db 1C000000 		.4byte	.LVL14
 7611 01df DA000000 		.4byte	.LVL27
 7612 01e3 0100     		.2byte	0x1
 7613 01e5 57       		.byte	0x57
 7614 01e6 00000000 		.4byte	0
 7615 01ea 00000000 		.4byte	0
 7616              	.LLST9:
 7617 01ee 2E000000 		.4byte	.LVL16
 7618 01f2 DA000000 		.4byte	.LVL27
 7619 01f6 0100     		.2byte	0x1
 7620 01f8 50       		.byte	0x50
 7621 01f9 00000000 		.4byte	0
 7622 01fd 00000000 		.4byte	0
 7623              	.LLST10:
 7624 0201 2E000000 		.4byte	.LVL16
 7625 0205 32000000 		.4byte	.LVL17
 7626 0209 0100     		.2byte	0x1
 7627 020b 57       		.byte	0x57
 7628 020c 32000000 		.4byte	.LVL17
 7629 0210 DA000000 		.4byte	.LVL27
 7630 0214 0100     		.2byte	0x1
 7631 0216 52       		.byte	0x52
 7632 0217 00000000 		.4byte	0
 7633 021b 00000000 		.4byte	0
 7634              	.LLST11:
 7635 021f 32000000 		.4byte	.LVL17
 7636 0223 46000000 		.4byte	.LVL18
 7637 0227 0100     		.2byte	0x1
 7638 0229 56       		.byte	0x56
 7639 022a 66000000 		.4byte	.LVL23
 7640 022e 7E000000 		.4byte	.LVL24
 7641 0232 0100     		.2byte	0x1
 7642 0234 56       		.byte	0x56
 7643 0235 86000000 		.4byte	.LVL25
 7644 0239 DA000000 		.4byte	.LVL27
 7645 023d 0100     		.2byte	0x1
 7646 023f 56       		.byte	0x56
 7647 0240 00000000 		.4byte	0
 7648 0244 00000000 		.4byte	0
 7649              	.LLST12:
 7650 0248 46000000 		.4byte	.LVL18
 7651 024c 64000000 		.4byte	.LVL22
 7652 0250 0100     		.2byte	0x1
 7653 0252 56       		.byte	0x56
 7654 0253 00000000 		.4byte	0
 7655 0257 00000000 		.4byte	0
 7656              	.LLST13:
 7657 025b 4C000000 		.4byte	.LVL19
 7658 025f 54000000 		.4byte	.LVL21
 7659 0263 0100     		.2byte	0x1
 7660 0265 55       		.byte	0x55
 7661 0266 00000000 		.4byte	0
 7662 026a 00000000 		.4byte	0
 7663              	.LLST14:
ARM GAS  C:\Users\Besitzer\AppData\Local\Temp\cczB0neC.s 			page 157


 7664 026e EC000000 		.4byte	.LVL29
 7665 0272 FE000000 		.4byte	.LVL35
 7666 0276 0100     		.2byte	0x1
 7667 0278 53       		.byte	0x53
 7668 0279 00000000 		.4byte	0
 7669 027d 00000000 		.4byte	0
 7670              	.LLST15:
 7671 0281 FC000000 		.4byte	.LVL34
 7672 0285 2A010000 		.4byte	.LVL37
 7673 0289 0100     		.2byte	0x1
 7674 028b 55       		.byte	0x55
 7675 028c 2A010000 		.4byte	.LVL37
 7676 0290 34010000 		.4byte	.LFE8
 7677 0294 0100     		.2byte	0x1
 7678 0296 51       		.byte	0x51
 7679 0297 00000000 		.4byte	0
 7680 029b 00000000 		.4byte	0
 7681              	.LLST16:
 7682 029f 04000000 		.4byte	.LVL39
 7683 02a3 20000000 		.4byte	.LVL40
 7684 02a7 0100     		.2byte	0x1
 7685 02a9 52       		.byte	0x52
 7686 02aa 26000000 		.4byte	.LVL41
 7687 02ae 2A000000 		.4byte	.LVL42
 7688 02b2 0100     		.2byte	0x1
 7689 02b4 52       		.byte	0x52
 7690 02b5 2A000000 		.4byte	.LVL42
 7691 02b9 34000000 		.4byte	.LVL43
 7692 02bd 0200     		.2byte	0x2
 7693 02bf 71       		.byte	0x71
 7694 02c0 00       		.sleb128 0
 7695 02c1 44000000 		.4byte	.LVL44
 7696 02c5 68000000 		.4byte	.LFE21
 7697 02c9 0100     		.2byte	0x1
 7698 02cb 52       		.byte	0x52
 7699 02cc 00000000 		.4byte	0
 7700 02d0 00000000 		.4byte	0
 7701              	.LLST17:
 7702 02d4 00000000 		.4byte	.LVL45
 7703 02d8 9C000000 		.4byte	.LVL52
 7704 02dc 0100     		.2byte	0x1
 7705 02de 50       		.byte	0x50
 7706 02df 9C000000 		.4byte	.LVL52
 7707 02e3 9F000000 		.4byte	.LVL53-1
 7708 02e7 0200     		.2byte	0x2
 7709 02e9 70       		.byte	0x70
 7710 02ea 00       		.sleb128 0
 7711 02eb 9F000000 		.4byte	.LVL53-1
 7712 02ef 08010000 		.4byte	.LVL61
 7713 02f3 0200     		.2byte	0x2
 7714 02f5 91       		.byte	0x91
 7715 02f6 76       		.sleb128 -10
 7716 02f7 08010000 		.4byte	.LVL61
 7717 02fb 14010000 		.4byte	.LFE23
 7718 02ff 0200     		.2byte	0x2
 7719 0301 7D       		.byte	0x7d
 7720 0302 76       		.sleb128 -10
ARM GAS  C:\Users\Besitzer\AppData\Local\Temp\cczB0neC.s 			page 158


 7721 0303 00000000 		.4byte	0
 7722 0307 00000000 		.4byte	0
 7723              	.LLST18:
 7724 030b 00000000 		.4byte	.LVL45
 7725 030f 1A000000 		.4byte	.LVL46
 7726 0313 0100     		.2byte	0x1
 7727 0315 51       		.byte	0x51
 7728 0316 1A000000 		.4byte	.LVL46
 7729 031a 98000000 		.4byte	.LVL51
 7730 031e 0200     		.2byte	0x2
 7731 0320 91       		.byte	0x91
 7732 0321 74       		.sleb128 -12
 7733 0322 98000000 		.4byte	.LVL51
 7734 0326 9F000000 		.4byte	.LVL53-1
 7735 032a 0200     		.2byte	0x2
 7736 032c 71       		.byte	0x71
 7737 032d 00       		.sleb128 0
 7738 032e 9F000000 		.4byte	.LVL53-1
 7739 0332 08010000 		.4byte	.LVL61
 7740 0336 0200     		.2byte	0x2
 7741 0338 91       		.byte	0x91
 7742 0339 74       		.sleb128 -12
 7743 033a 08010000 		.4byte	.LVL61
 7744 033e 14010000 		.4byte	.LFE23
 7745 0342 0200     		.2byte	0x2
 7746 0344 7D       		.byte	0x7d
 7747 0345 74       		.sleb128 -12
 7748 0346 00000000 		.4byte	0
 7749 034a 00000000 		.4byte	0
 7750              	.LLST19:
 7751 034e 00000000 		.4byte	.LVL45
 7752 0352 4C000000 		.4byte	.LVL48
 7753 0356 0100     		.2byte	0x1
 7754 0358 52       		.byte	0x52
 7755 0359 4C000000 		.4byte	.LVL48
 7756 035d 62000000 		.4byte	.LVL49
 7757 0361 0200     		.2byte	0x2
 7758 0363 91       		.byte	0x91
 7759 0364 72       		.sleb128 -14
 7760 0365 62000000 		.4byte	.LVL49
 7761 0369 96000000 		.4byte	.LVL50
 7762 036d 0100     		.2byte	0x1
 7763 036f 52       		.byte	0x52
 7764 0370 96000000 		.4byte	.LVL50
 7765 0374 A6000000 		.4byte	.LVL55
 7766 0378 0200     		.2byte	0x2
 7767 037a 91       		.byte	0x91
 7768 037b 72       		.sleb128 -14
 7769 037c A6000000 		.4byte	.LVL55
 7770 0380 A9000000 		.4byte	.LVL56-1
 7771 0384 0200     		.2byte	0x2
 7772 0386 70       		.byte	0x70
 7773 0387 00       		.sleb128 0
 7774 0388 A9000000 		.4byte	.LVL56-1
 7775 038c 08010000 		.4byte	.LVL61
 7776 0390 0200     		.2byte	0x2
 7777 0392 91       		.byte	0x91
ARM GAS  C:\Users\Besitzer\AppData\Local\Temp\cczB0neC.s 			page 159


 7778 0393 72       		.sleb128 -14
 7779 0394 08010000 		.4byte	.LVL61
 7780 0398 14010000 		.4byte	.LFE23
 7781 039c 0200     		.2byte	0x2
 7782 039e 7D       		.byte	0x7d
 7783 039f 72       		.sleb128 -14
 7784 03a0 00000000 		.4byte	0
 7785 03a4 00000000 		.4byte	0
 7786              	.LLST20:
 7787 03a8 00000000 		.4byte	.LVL45
 7788 03ac 1C000000 		.4byte	.LVL47
 7789 03b0 0100     		.2byte	0x1
 7790 03b2 53       		.byte	0x53
 7791 03b3 1C000000 		.4byte	.LVL47
 7792 03b7 A2000000 		.4byte	.LVL54
 7793 03bb 0200     		.2byte	0x2
 7794 03bd 91       		.byte	0x91
 7795 03be 70       		.sleb128 -16
 7796 03bf A2000000 		.4byte	.LVL54
 7797 03c3 A9000000 		.4byte	.LVL56-1
 7798 03c7 0200     		.2byte	0x2
 7799 03c9 71       		.byte	0x71
 7800 03ca 00       		.sleb128 0
 7801 03cb A9000000 		.4byte	.LVL56-1
 7802 03cf 08010000 		.4byte	.LVL61
 7803 03d3 0200     		.2byte	0x2
 7804 03d5 91       		.byte	0x91
 7805 03d6 70       		.sleb128 -16
 7806 03d7 08010000 		.4byte	.LVL61
 7807 03db 14010000 		.4byte	.LFE23
 7808 03df 0200     		.2byte	0x2
 7809 03e1 7D       		.byte	0x7d
 7810 03e2 70       		.sleb128 -16
 7811 03e3 00000000 		.4byte	0
 7812 03e7 00000000 		.4byte	0
 7813              	.LLST21:
 7814 03eb 00000000 		.4byte	.LVL45
 7815 03ef 08010000 		.4byte	.LVL61
 7816 03f3 0200     		.2byte	0x2
 7817 03f5 91       		.byte	0x91
 7818 03f6 00       		.sleb128 0
 7819 03f7 08010000 		.4byte	.LVL61
 7820 03fb 14010000 		.4byte	.LFE23
 7821 03ff 0200     		.2byte	0x2
 7822 0401 7D       		.byte	0x7d
 7823 0402 00       		.sleb128 0
 7824 0403 00000000 		.4byte	0
 7825 0407 00000000 		.4byte	0
 7826              	.LLST22:
 7827 040b D2000000 		.4byte	.LVL57
 7828 040f EA000000 		.4byte	.LVL59
 7829 0413 0100     		.2byte	0x1
 7830 0415 53       		.byte	0x53
 7831 0416 00000000 		.4byte	0
 7832 041a 00000000 		.4byte	0
 7833              	.LLST23:
 7834 041e 00000000 		.4byte	.LVL62
ARM GAS  C:\Users\Besitzer\AppData\Local\Temp\cczB0neC.s 			page 160


 7835 0422 14000000 		.4byte	.LVL65
 7836 0426 0100     		.2byte	0x1
 7837 0428 50       		.byte	0x50
 7838 0429 14000000 		.4byte	.LVL65
 7839 042d 1E000000 		.4byte	.LVL68
 7840 0431 0100     		.2byte	0x1
 7841 0433 55       		.byte	0x55
 7842 0434 1E000000 		.4byte	.LVL68
 7843 0438 2E000000 		.4byte	.LVL73
 7844 043c 0100     		.2byte	0x1
 7845 043e 56       		.byte	0x56
 7846 043f 2E000000 		.4byte	.LVL73
 7847 0443 34000000 		.4byte	.LVL75
 7848 0447 0100     		.2byte	0x1
 7849 0449 55       		.byte	0x55
 7850 044a 00000000 		.4byte	0
 7851 044e 00000000 		.4byte	0
 7852              	.LLST24:
 7853 0452 00000000 		.4byte	.LVL62
 7854 0456 10000000 		.4byte	.LVL64
 7855 045a 0100     		.2byte	0x1
 7856 045c 51       		.byte	0x51
 7857 045d 10000000 		.4byte	.LVL64
 7858 0461 50000000 		.4byte	.LFE33
 7859 0465 0400     		.2byte	0x4
 7860 0467 F3       		.byte	0xf3
 7861 0468 01       		.uleb128 0x1
 7862 0469 51       		.byte	0x51
 7863 046a 9F       		.byte	0x9f
 7864 046b 00000000 		.4byte	0
 7865 046f 00000000 		.4byte	0
 7866              	.LLST25:
 7867 0473 06000000 		.4byte	.LVL63
 7868 0477 40000000 		.4byte	.LVL77
 7869 047b 0300     		.2byte	0x3
 7870 047d 08       		.byte	0x8
 7871 047e FF       		.byte	0xff
 7872 047f 9F       		.byte	0x9f
 7873 0480 40000000 		.4byte	.LVL77
 7874 0484 50000000 		.4byte	.LFE33
 7875 0488 0200     		.2byte	0x2
 7876 048a 30       		.byte	0x30
 7877 048b 9F       		.byte	0x9f
 7878 048c 00000000 		.4byte	0
 7879 0490 00000000 		.4byte	0
 7880              	.LLST26:
 7881 0494 18000000 		.4byte	.LVL66
 7882 0498 20000000 		.4byte	.LVL69
 7883 049c 0100     		.2byte	0x1
 7884 049e 50       		.byte	0x50
 7885 049f 24000000 		.4byte	.LVL70
 7886 04a3 37000000 		.4byte	.LVL76-1
 7887 04a7 0100     		.2byte	0x1
 7888 04a9 50       		.byte	0x50
 7889 04aa 00000000 		.4byte	0
 7890 04ae 00000000 		.4byte	0
 7891              	.LLST27:
ARM GAS  C:\Users\Besitzer\AppData\Local\Temp\cczB0neC.s 			page 161


 7892 04b2 06000000 		.4byte	.LVL63
 7893 04b6 1C000000 		.4byte	.LVL67
 7894 04ba 0200     		.2byte	0x2
 7895 04bc 30       		.byte	0x30
 7896 04bd 9F       		.byte	0x9f
 7897 04be 1C000000 		.4byte	.LVL67
 7898 04c2 28000000 		.4byte	.LVL71
 7899 04c6 0100     		.2byte	0x1
 7900 04c8 54       		.byte	0x54
 7901 04c9 2A000000 		.4byte	.LVL72
 7902 04cd 2E000000 		.4byte	.LVL73
 7903 04d1 0100     		.2byte	0x1
 7904 04d3 54       		.byte	0x54
 7905 04d4 2E000000 		.4byte	.LVL73
 7906 04d8 30000000 		.4byte	.LVL74
 7907 04dc 0200     		.2byte	0x2
 7908 04de 30       		.byte	0x30
 7909 04df 9F       		.byte	0x9f
 7910 04e0 30000000 		.4byte	.LVL74
 7911 04e4 38000000 		.4byte	.LVL76
 7912 04e8 0100     		.2byte	0x1
 7913 04ea 54       		.byte	0x54
 7914 04eb 00000000 		.4byte	0
 7915 04ef 00000000 		.4byte	0
 7916              	.LLST28:
 7917 04f3 00000000 		.4byte	.LVL78
 7918 04f7 1E000000 		.4byte	.LVL79
 7919 04fb 0100     		.2byte	0x1
 7920 04fd 50       		.byte	0x50
 7921 04fe 1E000000 		.4byte	.LVL79
 7922 0502 30000000 		.4byte	.LVL81
 7923 0506 0400     		.2byte	0x4
 7924 0508 F3       		.byte	0xf3
 7925 0509 01       		.uleb128 0x1
 7926 050a 50       		.byte	0x50
 7927 050b 9F       		.byte	0x9f
 7928 050c 30000000 		.4byte	.LVL81
 7929 0510 32000000 		.4byte	.LFE7
 7930 0514 0100     		.2byte	0x1
 7931 0516 50       		.byte	0x50
 7932 0517 00000000 		.4byte	0
 7933 051b 00000000 		.4byte	0
 7934              	.LLST29:
 7935 051f 00000000 		.4byte	.LVL83
 7936 0523 18000000 		.4byte	.LVL84
 7937 0527 0100     		.2byte	0x1
 7938 0529 50       		.byte	0x50
 7939 052a 18000000 		.4byte	.LVL84
 7940 052e 1B000000 		.4byte	.LVL85-1
 7941 0532 0200     		.2byte	0x2
 7942 0534 91       		.byte	0x91
 7943 0535 76       		.sleb128 -10
 7944 0536 1B000000 		.4byte	.LVL85-1
 7945 053a 22000000 		.4byte	.LFE3
 7946 053e 0400     		.2byte	0x4
 7947 0540 F3       		.byte	0xf3
 7948 0541 01       		.uleb128 0x1
ARM GAS  C:\Users\Besitzer\AppData\Local\Temp\cczB0neC.s 			page 162


 7949 0542 50       		.byte	0x50
 7950 0543 9F       		.byte	0x9f
 7951 0544 00000000 		.4byte	0
 7952 0548 00000000 		.4byte	0
 7953              	.LLST30:
 7954 054c 00000000 		.4byte	.LVL86
 7955 0550 1A000000 		.4byte	.LVL87
 7956 0554 0100     		.2byte	0x1
 7957 0556 50       		.byte	0x50
 7958 0557 1A000000 		.4byte	.LVL87
 7959 055b 24000000 		.4byte	.LFE4
 7960 055f 0400     		.2byte	0x4
 7961 0561 F3       		.byte	0xf3
 7962 0562 01       		.uleb128 0x1
 7963 0563 50       		.byte	0x50
 7964 0564 9F       		.byte	0x9f
 7965 0565 00000000 		.4byte	0
 7966 0569 00000000 		.4byte	0
 7967              	.LLST31:
 7968 056d 00000000 		.4byte	.LVL89
 7969 0571 12000000 		.4byte	.LVL90
 7970 0575 0100     		.2byte	0x1
 7971 0577 50       		.byte	0x50
 7972 0578 12000000 		.4byte	.LVL90
 7973 057c 24000000 		.4byte	.LVL92
 7974 0580 0400     		.2byte	0x4
 7975 0582 F3       		.byte	0xf3
 7976 0583 01       		.uleb128 0x1
 7977 0584 50       		.byte	0x50
 7978 0585 9F       		.byte	0x9f
 7979 0586 24000000 		.4byte	.LVL92
 7980 058a 26000000 		.4byte	.LFE6
 7981 058e 0100     		.2byte	0x1
 7982 0590 50       		.byte	0x50
 7983 0591 00000000 		.4byte	0
 7984 0595 00000000 		.4byte	0
 7985              	.LLST32:
 7986 0599 00000000 		.4byte	.LVL97
 7987 059d 32000000 		.4byte	.LVL100
 7988 05a1 0100     		.2byte	0x1
 7989 05a3 50       		.byte	0x50
 7990 05a4 32000000 		.4byte	.LVL100
 7991 05a8 35000000 		.4byte	.LVL101-1
 7992 05ac 0200     		.2byte	0x2
 7993 05ae 91       		.byte	0x91
 7994 05af 6F       		.sleb128 -17
 7995 05b0 35000000 		.4byte	.LVL101-1
 7996 05b4 3A000000 		.4byte	.LFE10
 7997 05b8 0400     		.2byte	0x4
 7998 05ba F3       		.byte	0xf3
 7999 05bb 01       		.uleb128 0x1
 8000 05bc 50       		.byte	0x50
 8001 05bd 9F       		.byte	0x9f
 8002 05be 00000000 		.4byte	0
 8003 05c2 00000000 		.4byte	0
 8004              	.LLST33:
 8005 05c6 00000000 		.4byte	.LVL97
ARM GAS  C:\Users\Besitzer\AppData\Local\Temp\cczB0neC.s 			page 163


 8006 05ca 30000000 		.4byte	.LVL99
 8007 05ce 0100     		.2byte	0x1
 8008 05d0 51       		.byte	0x51
 8009 05d1 30000000 		.4byte	.LVL99
 8010 05d5 35000000 		.4byte	.LVL101-1
 8011 05d9 0200     		.2byte	0x2
 8012 05db 91       		.byte	0x91
 8013 05dc 71       		.sleb128 -15
 8014 05dd 35000000 		.4byte	.LVL101-1
 8015 05e1 3A000000 		.4byte	.LFE10
 8016 05e5 0400     		.2byte	0x4
 8017 05e7 F3       		.byte	0xf3
 8018 05e8 01       		.uleb128 0x1
 8019 05e9 51       		.byte	0x51
 8020 05ea 9F       		.byte	0x9f
 8021 05eb 00000000 		.4byte	0
 8022 05ef 00000000 		.4byte	0
 8023              	.LLST34:
 8024 05f3 00000000 		.4byte	.LVL97
 8025 05f7 35000000 		.4byte	.LVL101-1
 8026 05fb 0100     		.2byte	0x1
 8027 05fd 52       		.byte	0x52
 8028 05fe 35000000 		.4byte	.LVL101-1
 8029 0602 3A000000 		.4byte	.LFE10
 8030 0606 0400     		.2byte	0x4
 8031 0608 F3       		.byte	0xf3
 8032 0609 01       		.uleb128 0x1
 8033 060a 52       		.byte	0x52
 8034 060b 9F       		.byte	0x9f
 8035 060c 00000000 		.4byte	0
 8036 0610 00000000 		.4byte	0
 8037              	.LLST35:
 8038 0614 00000000 		.4byte	.LVL97
 8039 0618 24000000 		.4byte	.LVL98
 8040 061c 0100     		.2byte	0x1
 8041 061e 53       		.byte	0x53
 8042 061f 24000000 		.4byte	.LVL98
 8043 0623 35000000 		.4byte	.LVL101-1
 8044 0627 0200     		.2byte	0x2
 8045 0629 91       		.byte	0x91
 8046 062a 70       		.sleb128 -16
 8047 062b 35000000 		.4byte	.LVL101-1
 8048 062f 3A000000 		.4byte	.LFE10
 8049 0633 0400     		.2byte	0x4
 8050 0635 F3       		.byte	0xf3
 8051 0636 01       		.uleb128 0x1
 8052 0637 53       		.byte	0x53
 8053 0638 9F       		.byte	0x9f
 8054 0639 00000000 		.4byte	0
 8055 063d 00000000 		.4byte	0
 8056              	.LLST36:
 8057 0641 00000000 		.4byte	.LVL102
 8058 0645 12000000 		.4byte	.LVL103
 8059 0649 0100     		.2byte	0x1
 8060 064b 51       		.byte	0x51
 8061 064c 12000000 		.4byte	.LVL103
 8062 0650 40000000 		.4byte	.LFE11
ARM GAS  C:\Users\Besitzer\AppData\Local\Temp\cczB0neC.s 			page 164


 8063 0654 0500     		.2byte	0x5
 8064 0656 03       		.byte	0x3
 8065 0657 00000000 		.4byte	HEIGHT
 8066 065b 00000000 		.4byte	0
 8067 065f 00000000 		.4byte	0
 8068              	.LLST37:
 8069 0663 00000000 		.4byte	.LVL105
 8070 0667 04000000 		.4byte	.LVL106
 8071 066b 0100     		.2byte	0x1
 8072 066d 50       		.byte	0x50
 8073 066e 04000000 		.4byte	.LVL106
 8074 0672 10000000 		.4byte	.LFE16
 8075 0676 0400     		.2byte	0x4
 8076 0678 F3       		.byte	0xf3
 8077 0679 01       		.uleb128 0x1
 8078 067a 50       		.byte	0x50
 8079 067b 9F       		.byte	0x9f
 8080 067c 00000000 		.4byte	0
 8081 0680 00000000 		.4byte	0
 8082              	.LLST38:
 8083 0684 00000000 		.4byte	.LVL111
 8084 0688 04000000 		.4byte	.LVL112
 8085 068c 0100     		.2byte	0x1
 8086 068e 50       		.byte	0x50
 8087 068f 04000000 		.4byte	.LVL112
 8088 0693 44000000 		.4byte	.LFE20
 8089 0697 0400     		.2byte	0x4
 8090 0699 F3       		.byte	0xf3
 8091 069a 01       		.uleb128 0x1
 8092 069b 50       		.byte	0x50
 8093 069c 9F       		.byte	0x9f
 8094 069d 00000000 		.4byte	0
 8095 06a1 00000000 		.4byte	0
 8096              	.LLST39:
 8097 06a5 00000000 		.4byte	.LVL113
 8098 06a9 0E000000 		.4byte	.LVL114
 8099 06ad 0100     		.2byte	0x1
 8100 06af 50       		.byte	0x50
 8101 06b0 0E000000 		.4byte	.LVL114
 8102 06b4 32000000 		.4byte	.LVL117
 8103 06b8 0200     		.2byte	0x2
 8104 06ba 91       		.byte	0x91
 8105 06bb 76       		.sleb128 -10
 8106 06bc 32000000 		.4byte	.LVL117
 8107 06c0 35000000 		.4byte	.LVL118-1
 8108 06c4 0200     		.2byte	0x2
 8109 06c6 70       		.byte	0x70
 8110 06c7 00       		.sleb128 0
 8111 06c8 35000000 		.4byte	.LVL118-1
 8112 06cc 48000000 		.4byte	.LVL120
 8113 06d0 0200     		.2byte	0x2
 8114 06d2 91       		.byte	0x91
 8115 06d3 76       		.sleb128 -10
 8116 06d4 48000000 		.4byte	.LVL120
 8117 06d8 4C000000 		.4byte	.LFE22
 8118 06dc 0200     		.2byte	0x2
 8119 06de 7D       		.byte	0x7d
ARM GAS  C:\Users\Besitzer\AppData\Local\Temp\cczB0neC.s 			page 165


 8120 06df 76       		.sleb128 -10
 8121 06e0 00000000 		.4byte	0
 8122 06e4 00000000 		.4byte	0
 8123              	.LLST40:
 8124 06e8 00000000 		.4byte	.LVL113
 8125 06ec 22000000 		.4byte	.LVL115
 8126 06f0 0100     		.2byte	0x1
 8127 06f2 51       		.byte	0x51
 8128 06f3 22000000 		.4byte	.LVL115
 8129 06f7 2E000000 		.4byte	.LVL116
 8130 06fb 0200     		.2byte	0x2
 8131 06fd 91       		.byte	0x91
 8132 06fe 74       		.sleb128 -12
 8133 06ff 2E000000 		.4byte	.LVL116
 8134 0703 35000000 		.4byte	.LVL118-1
 8135 0707 0200     		.2byte	0x2
 8136 0709 71       		.byte	0x71
 8137 070a 00       		.sleb128 0
 8138 070b 35000000 		.4byte	.LVL118-1
 8139 070f 48000000 		.4byte	.LVL120
 8140 0713 0200     		.2byte	0x2
 8141 0715 91       		.byte	0x91
 8142 0716 74       		.sleb128 -12
 8143 0717 48000000 		.4byte	.LVL120
 8144 071b 4C000000 		.4byte	.LFE22
 8145 071f 0200     		.2byte	0x2
 8146 0721 7D       		.byte	0x7d
 8147 0722 74       		.sleb128 -12
 8148 0723 00000000 		.4byte	0
 8149 0727 00000000 		.4byte	0
 8150              	.LLST41:
 8151 072b 00000000 		.4byte	.LVL113
 8152 072f 35000000 		.4byte	.LVL118-1
 8153 0733 0100     		.2byte	0x1
 8154 0735 52       		.byte	0x52
 8155 0736 35000000 		.4byte	.LVL118-1
 8156 073a 4C000000 		.4byte	.LFE22
 8157 073e 0400     		.2byte	0x4
 8158 0740 F3       		.byte	0xf3
 8159 0741 01       		.uleb128 0x1
 8160 0742 52       		.byte	0x52
 8161 0743 9F       		.byte	0x9f
 8162 0744 00000000 		.4byte	0
 8163 0748 00000000 		.4byte	0
 8164              	.LLST42:
 8165 074c 00000000 		.4byte	.LVL121
 8166 0750 24000000 		.4byte	.LVL124
 8167 0754 0100     		.2byte	0x1
 8168 0756 50       		.byte	0x50
 8169 0757 24000000 		.4byte	.LVL124
 8170 075b 2A000000 		.4byte	.LVL126
 8171 075f 0400     		.2byte	0x4
 8172 0761 F3       		.byte	0xf3
 8173 0762 01       		.uleb128 0x1
 8174 0763 50       		.byte	0x50
 8175 0764 9F       		.byte	0x9f
 8176 0765 2A000000 		.4byte	.LVL126
ARM GAS  C:\Users\Besitzer\AppData\Local\Temp\cczB0neC.s 			page 166


 8177 0769 54000000 		.4byte	.LVL129
 8178 076d 0100     		.2byte	0x1
 8179 076f 50       		.byte	0x50
 8180 0770 54000000 		.4byte	.LVL129
 8181 0774 62000000 		.4byte	.LVL132
 8182 0778 0100     		.2byte	0x1
 8183 077a 55       		.byte	0x55
 8184 077b 64000000 		.4byte	.LVL133
 8185 077f CA000000 		.4byte	.LVL150
 8186 0783 0100     		.2byte	0x1
 8187 0785 55       		.byte	0x55
 8188 0786 CC000000 		.4byte	.LVL151
 8189 078a D0000000 		.4byte	.LVL152
 8190 078e 0100     		.2byte	0x1
 8191 0790 55       		.byte	0x55
 8192 0791 00000000 		.4byte	0
 8193 0795 00000000 		.4byte	0
 8194              	.LLST43:
 8195 0799 00000000 		.4byte	.LVL121
 8196 079d 22000000 		.4byte	.LVL123
 8197 07a1 0100     		.2byte	0x1
 8198 07a3 51       		.byte	0x51
 8199 07a4 22000000 		.4byte	.LVL123
 8200 07a8 2A000000 		.4byte	.LVL126
 8201 07ac 0400     		.2byte	0x4
 8202 07ae F3       		.byte	0xf3
 8203 07af 01       		.uleb128 0x1
 8204 07b0 51       		.byte	0x51
 8205 07b1 9F       		.byte	0x9f
 8206 07b2 2A000000 		.4byte	.LVL126
 8207 07b6 54000000 		.4byte	.LVL129
 8208 07ba 0100     		.2byte	0x1
 8209 07bc 51       		.byte	0x51
 8210 07bd 54000000 		.4byte	.LVL129
 8211 07c1 5C000000 		.4byte	.LVL130
 8212 07c5 0100     		.2byte	0x1
 8213 07c7 56       		.byte	0x56
 8214 07c8 64000000 		.4byte	.LVL133
 8215 07cc C0000000 		.4byte	.LVL146
 8216 07d0 0100     		.2byte	0x1
 8217 07d2 56       		.byte	0x56
 8218 07d3 C2000000 		.4byte	.LVL147
 8219 07d7 D0000000 		.4byte	.LVL152
 8220 07db 0100     		.2byte	0x1
 8221 07dd 56       		.byte	0x56
 8222 07de 00000000 		.4byte	0
 8223 07e2 00000000 		.4byte	0
 8224              	.LLST44:
 8225 07e6 00000000 		.4byte	.LVL121
 8226 07ea 10000000 		.4byte	.LVL122
 8227 07ee 0100     		.2byte	0x1
 8228 07f0 52       		.byte	0x52
 8229 07f1 10000000 		.4byte	.LVL122
 8230 07f5 54000000 		.4byte	.LVL129
 8231 07f9 0400     		.2byte	0x4
 8232 07fb F3       		.byte	0xf3
 8233 07fc 01       		.uleb128 0x1
ARM GAS  C:\Users\Besitzer\AppData\Local\Temp\cczB0neC.s 			page 167


 8234 07fd 52       		.byte	0x52
 8235 07fe 9F       		.byte	0x9f
 8236 07ff 54000000 		.4byte	.LVL129
 8237 0803 D0000000 		.4byte	.LVL152
 8238 0807 0100     		.2byte	0x1
 8239 0809 57       		.byte	0x57
 8240 080a 00000000 		.4byte	0
 8241 080e 00000000 		.4byte	0
 8242              	.LLST45:
 8243 0812 00000000 		.4byte	.LVL121
 8244 0816 27000000 		.4byte	.LVL125-1
 8245 081a 0100     		.2byte	0x1
 8246 081c 53       		.byte	0x53
 8247 081d 27000000 		.4byte	.LVL125-1
 8248 0821 2A000000 		.4byte	.LVL126
 8249 0825 0400     		.2byte	0x4
 8250 0827 F3       		.byte	0xf3
 8251 0828 01       		.uleb128 0x1
 8252 0829 53       		.byte	0x53
 8253 082a 9F       		.byte	0x9f
 8254 082b 2A000000 		.4byte	.LVL126
 8255 082f 50000000 		.4byte	.LVL128
 8256 0833 0100     		.2byte	0x1
 8257 0835 53       		.byte	0x53
 8258 0836 50000000 		.4byte	.LVL128
 8259 083a 54000000 		.4byte	.LVL129
 8260 083e 0400     		.2byte	0x4
 8261 0840 F3       		.byte	0xf3
 8262 0841 01       		.uleb128 0x1
 8263 0842 53       		.byte	0x53
 8264 0843 9F       		.byte	0x9f
 8265 0844 54000000 		.4byte	.LVL129
 8266 0848 5E000000 		.4byte	.LVL131
 8267 084c 0100     		.2byte	0x1
 8268 084e 53       		.byte	0x53
 8269 084f 64000000 		.4byte	.LVL133
 8270 0853 8A000000 		.4byte	.LVL138
 8271 0857 0100     		.2byte	0x1
 8272 0859 53       		.byte	0x53
 8273 085a 8E000000 		.4byte	.LVL139
 8274 085e 92000000 		.4byte	.LVL140
 8275 0862 0100     		.2byte	0x1
 8276 0864 53       		.byte	0x53
 8277 0865 00000000 		.4byte	0
 8278 0869 00000000 		.4byte	0
 8279              	.LLST46:
 8280 086d 46000000 		.4byte	.LVL127
 8281 0871 D0000000 		.4byte	.LVL152
 8282 0875 0900     		.2byte	0x9
 8283 0877 78       		.byte	0x78
 8284 0878 00       		.sleb128 0
 8285 0879 79       		.byte	0x79
 8286 087a 00       		.sleb128 0
 8287 087b 2B       		.byte	0x2b
 8288 087c 08       		.byte	0x8
 8289 087d FF       		.byte	0xff
 8290 087e 1A       		.byte	0x1a
ARM GAS  C:\Users\Besitzer\AppData\Local\Temp\cczB0neC.s 			page 168


 8291 087f 9F       		.byte	0x9f
 8292 0880 00000000 		.4byte	0
 8293 0884 00000000 		.4byte	0
 8294              	.LLST47:
 8295 0888 70000000 		.4byte	.LVL134
 8296 088c 82000000 		.4byte	.LVL136
 8297 0890 0100     		.2byte	0x1
 8298 0892 54       		.byte	0x54
 8299 0893 82000000 		.4byte	.LVL136
 8300 0897 D0000000 		.4byte	.LVL152
 8301 089b 0100     		.2byte	0x1
 8302 089d 5B       		.byte	0x5b
 8303 089e 00000000 		.4byte	0
 8304 08a2 00000000 		.4byte	0
 8305              	.LLST48:
 8306 08a6 7E000000 		.4byte	.LVL135
 8307 08aa D0000000 		.4byte	.LVL152
 8308 08ae 0100     		.2byte	0x1
 8309 08b0 5A       		.byte	0x5a
 8310 08b1 00000000 		.4byte	0
 8311 08b5 00000000 		.4byte	0
 8312              	.LLST49:
 8313 08b9 84000000 		.4byte	.LVL137
 8314 08bd B4000000 		.4byte	.LVL144
 8315 08c1 0100     		.2byte	0x1
 8316 08c3 54       		.byte	0x54
 8317 08c4 B8000000 		.4byte	.LVL145
 8318 08c8 C6000000 		.4byte	.LVL148
 8319 08cc 0100     		.2byte	0x1
 8320 08ce 54       		.byte	0x54
 8321 08cf C6000000 		.4byte	.LVL148
 8322 08d3 C8000000 		.4byte	.LVL149
 8323 08d7 0100     		.2byte	0x1
 8324 08d9 53       		.byte	0x53
 8325 08da C8000000 		.4byte	.LVL149
 8326 08de D0000000 		.4byte	.LVL152
 8327 08e2 0100     		.2byte	0x1
 8328 08e4 54       		.byte	0x54
 8329 08e5 00000000 		.4byte	0
 8330 08e9 00000000 		.4byte	0
 8331              	.LLST50:
 8332 08ed 96000000 		.4byte	.LVL141
 8333 08f1 D0000000 		.4byte	.LVL152
 8334 08f5 0200     		.2byte	0x2
 8335 08f7 91       		.byte	0x91
 8336 08f8 54       		.sleb128 -44
 8337 08f9 00000000 		.4byte	0
 8338 08fd 00000000 		.4byte	0
 8339              	.LLST51:
 8340 0901 00000000 		.4byte	.LVL153
 8341 0905 1F000000 		.4byte	.LVL156-1
 8342 0909 0100     		.2byte	0x1
 8343 090b 50       		.byte	0x50
 8344 090c 1F000000 		.4byte	.LVL156-1
 8345 0910 56000000 		.4byte	.LFE25
 8346 0914 0400     		.2byte	0x4
 8347 0916 F3       		.byte	0xf3
ARM GAS  C:\Users\Besitzer\AppData\Local\Temp\cczB0neC.s 			page 169


 8348 0917 01       		.uleb128 0x1
 8349 0918 50       		.byte	0x50
 8350 0919 9F       		.byte	0x9f
 8351 091a 00000000 		.4byte	0
 8352 091e 00000000 		.4byte	0
 8353              	.LLST52:
 8354 0922 00000000 		.4byte	.LVL153
 8355 0926 1F000000 		.4byte	.LVL156-1
 8356 092a 0100     		.2byte	0x1
 8357 092c 51       		.byte	0x51
 8358 092d 1F000000 		.4byte	.LVL156-1
 8359 0931 56000000 		.4byte	.LFE25
 8360 0935 0400     		.2byte	0x4
 8361 0937 F3       		.byte	0xf3
 8362 0938 01       		.uleb128 0x1
 8363 0939 51       		.byte	0x51
 8364 093a 9F       		.byte	0x9f
 8365 093b 00000000 		.4byte	0
 8366 093f 00000000 		.4byte	0
 8367              	.LLST53:
 8368 0943 00000000 		.4byte	.LVL153
 8369 0947 12000000 		.4byte	.LVL154
 8370 094b 0100     		.2byte	0x1
 8371 094d 52       		.byte	0x52
 8372 094e 12000000 		.4byte	.LVL154
 8373 0952 56000000 		.4byte	.LFE25
 8374 0956 0400     		.2byte	0x4
 8375 0958 F3       		.byte	0xf3
 8376 0959 01       		.uleb128 0x1
 8377 095a 52       		.byte	0x52
 8378 095b 9F       		.byte	0x9f
 8379 095c 00000000 		.4byte	0
 8380 0960 00000000 		.4byte	0
 8381              	.LLST54:
 8382 0964 00000000 		.4byte	.LVL153
 8383 0968 1A000000 		.4byte	.LVL155
 8384 096c 0100     		.2byte	0x1
 8385 096e 53       		.byte	0x53
 8386 096f 1A000000 		.4byte	.LVL155
 8387 0973 56000000 		.4byte	.LFE25
 8388 0977 0400     		.2byte	0x4
 8389 0979 F3       		.byte	0xf3
 8390 097a 01       		.uleb128 0x1
 8391 097b 53       		.byte	0x53
 8392 097c 9F       		.byte	0x9f
 8393 097d 00000000 		.4byte	0
 8394 0981 00000000 		.4byte	0
 8395              	.LLST55:
 8396 0985 00000000 		.4byte	.LVL160
 8397 0989 1A000000 		.4byte	.LVL162
 8398 098d 0100     		.2byte	0x1
 8399 098f 50       		.byte	0x50
 8400 0990 1A000000 		.4byte	.LVL162
 8401 0994 36000000 		.4byte	.LVL166
 8402 0998 0400     		.2byte	0x4
 8403 099a F3       		.byte	0xf3
 8404 099b 01       		.uleb128 0x1
ARM GAS  C:\Users\Besitzer\AppData\Local\Temp\cczB0neC.s 			page 170


 8405 099c 50       		.byte	0x50
 8406 099d 9F       		.byte	0x9f
 8407 099e 36000000 		.4byte	.LVL166
 8408 09a2 38000000 		.4byte	.LVL167
 8409 09a6 0100     		.2byte	0x1
 8410 09a8 50       		.byte	0x50
 8411 09a9 38000000 		.4byte	.LVL167
 8412 09ad 66000000 		.4byte	.LFE26
 8413 09b1 0400     		.2byte	0x4
 8414 09b3 F3       		.byte	0xf3
 8415 09b4 01       		.uleb128 0x1
 8416 09b5 50       		.byte	0x50
 8417 09b6 9F       		.byte	0x9f
 8418 09b7 00000000 		.4byte	0
 8419 09bb 00000000 		.4byte	0
 8420              	.LLST56:
 8421 09bf 00000000 		.4byte	.LVL160
 8422 09c3 1A000000 		.4byte	.LVL162
 8423 09c7 0100     		.2byte	0x1
 8424 09c9 51       		.byte	0x51
 8425 09ca 1A000000 		.4byte	.LVL162
 8426 09ce 36000000 		.4byte	.LVL166
 8427 09d2 0400     		.2byte	0x4
 8428 09d4 F3       		.byte	0xf3
 8429 09d5 01       		.uleb128 0x1
 8430 09d6 51       		.byte	0x51
 8431 09d7 9F       		.byte	0x9f
 8432 09d8 36000000 		.4byte	.LVL166
 8433 09dc 38000000 		.4byte	.LVL167
 8434 09e0 0100     		.2byte	0x1
 8435 09e2 51       		.byte	0x51
 8436 09e3 38000000 		.4byte	.LVL167
 8437 09e7 66000000 		.4byte	.LFE26
 8438 09eb 0400     		.2byte	0x4
 8439 09ed F3       		.byte	0xf3
 8440 09ee 01       		.uleb128 0x1
 8441 09ef 51       		.byte	0x51
 8442 09f0 9F       		.byte	0x9f
 8443 09f1 00000000 		.4byte	0
 8444 09f5 00000000 		.4byte	0
 8445              	.LLST57:
 8446 09f9 00000000 		.4byte	.LVL160
 8447 09fd 1A000000 		.4byte	.LVL162
 8448 0a01 0100     		.2byte	0x1
 8449 0a03 52       		.byte	0x52
 8450 0a04 1A000000 		.4byte	.LVL162
 8451 0a08 36000000 		.4byte	.LVL166
 8452 0a0c 0400     		.2byte	0x4
 8453 0a0e F3       		.byte	0xf3
 8454 0a0f 01       		.uleb128 0x1
 8455 0a10 52       		.byte	0x52
 8456 0a11 9F       		.byte	0x9f
 8457 0a12 36000000 		.4byte	.LVL166
 8458 0a16 38000000 		.4byte	.LVL167
 8459 0a1a 0100     		.2byte	0x1
 8460 0a1c 52       		.byte	0x52
 8461 0a1d 38000000 		.4byte	.LVL167
ARM GAS  C:\Users\Besitzer\AppData\Local\Temp\cczB0neC.s 			page 171


 8462 0a21 66000000 		.4byte	.LFE26
 8463 0a25 0400     		.2byte	0x4
 8464 0a27 F3       		.byte	0xf3
 8465 0a28 01       		.uleb128 0x1
 8466 0a29 52       		.byte	0x52
 8467 0a2a 9F       		.byte	0x9f
 8468 0a2b 00000000 		.4byte	0
 8469 0a2f 00000000 		.4byte	0
 8470              	.LLST58:
 8471 0a33 00000000 		.4byte	.LVL160
 8472 0a37 1A000000 		.4byte	.LVL162
 8473 0a3b 0100     		.2byte	0x1
 8474 0a3d 53       		.byte	0x53
 8475 0a3e 1A000000 		.4byte	.LVL162
 8476 0a42 36000000 		.4byte	.LVL166
 8477 0a46 0400     		.2byte	0x4
 8478 0a48 F3       		.byte	0xf3
 8479 0a49 01       		.uleb128 0x1
 8480 0a4a 53       		.byte	0x53
 8481 0a4b 9F       		.byte	0x9f
 8482 0a4c 36000000 		.4byte	.LVL166
 8483 0a50 38000000 		.4byte	.LVL167
 8484 0a54 0100     		.2byte	0x1
 8485 0a56 53       		.byte	0x53
 8486 0a57 38000000 		.4byte	.LVL167
 8487 0a5b 66000000 		.4byte	.LFE26
 8488 0a5f 0400     		.2byte	0x4
 8489 0a61 F3       		.byte	0xf3
 8490 0a62 01       		.uleb128 0x1
 8491 0a63 53       		.byte	0x53
 8492 0a64 9F       		.byte	0x9f
 8493 0a65 00000000 		.4byte	0
 8494 0a69 00000000 		.4byte	0
 8495              	.LLST59:
 8496 0a6d 12000000 		.4byte	.LVL161
 8497 0a71 1A000000 		.4byte	.LVL162
 8498 0a75 0200     		.2byte	0x2
 8499 0a77 30       		.byte	0x30
 8500 0a78 9F       		.byte	0x9f
 8501 0a79 1A000000 		.4byte	.LVL162
 8502 0a7d 32000000 		.4byte	.LVL164
 8503 0a81 0100     		.2byte	0x1
 8504 0a83 54       		.byte	0x54
 8505 0a84 34000000 		.4byte	.LVL165
 8506 0a88 36000000 		.4byte	.LVL166
 8507 0a8c 0100     		.2byte	0x1
 8508 0a8e 54       		.byte	0x54
 8509 0a8f 36000000 		.4byte	.LVL166
 8510 0a93 38000000 		.4byte	.LVL167
 8511 0a97 0200     		.2byte	0x2
 8512 0a99 30       		.byte	0x30
 8513 0a9a 9F       		.byte	0x9f
 8514 0a9b 38000000 		.4byte	.LVL167
 8515 0a9f 56000000 		.4byte	.LVL169
 8516 0aa3 0100     		.2byte	0x1
 8517 0aa5 54       		.byte	0x54
 8518 0aa6 58000000 		.4byte	.LVL170
ARM GAS  C:\Users\Besitzer\AppData\Local\Temp\cczB0neC.s 			page 172


 8519 0aaa 66000000 		.4byte	.LFE26
 8520 0aae 0100     		.2byte	0x1
 8521 0ab0 54       		.byte	0x54
 8522 0ab1 00000000 		.4byte	0
 8523 0ab5 00000000 		.4byte	0
 8524              	.LLST60:
 8525 0ab9 00000000 		.4byte	.LVL171
 8526 0abd 31000000 		.4byte	.LVL177-1
 8527 0ac1 0100     		.2byte	0x1
 8528 0ac3 50       		.byte	0x50
 8529 0ac4 31000000 		.4byte	.LVL177-1
 8530 0ac8 38010000 		.4byte	.LFE27
 8531 0acc 0400     		.2byte	0x4
 8532 0ace F3       		.byte	0xf3
 8533 0acf 01       		.uleb128 0x1
 8534 0ad0 50       		.byte	0x50
 8535 0ad1 9F       		.byte	0x9f
 8536 0ad2 00000000 		.4byte	0
 8537 0ad6 00000000 		.4byte	0
 8538              	.LLST61:
 8539 0ada 00000000 		.4byte	.LVL171
 8540 0ade 2A000000 		.4byte	.LVL176
 8541 0ae2 0100     		.2byte	0x1
 8542 0ae4 51       		.byte	0x51
 8543 0ae5 2A000000 		.4byte	.LVL176
 8544 0ae9 38010000 		.4byte	.LFE27
 8545 0aed 0100     		.2byte	0x1
 8546 0aef 5B       		.byte	0x5b
 8547 0af0 00000000 		.4byte	0
 8548 0af4 00000000 		.4byte	0
 8549              	.LLST62:
 8550 0af8 00000000 		.4byte	.LVL171
 8551 0afc 1C000000 		.4byte	.LVL173
 8552 0b00 0100     		.2byte	0x1
 8553 0b02 52       		.byte	0x52
 8554 0b03 1C000000 		.4byte	.LVL173
 8555 0b07 6A000000 		.4byte	.LVL181
 8556 0b0b 0100     		.2byte	0x1
 8557 0b0d 55       		.byte	0x55
 8558 0b0e 6A000000 		.4byte	.LVL181
 8559 0b12 38010000 		.4byte	.LFE27
 8560 0b16 0400     		.2byte	0x4
 8561 0b18 F3       		.byte	0xf3
 8562 0b19 01       		.uleb128 0x1
 8563 0b1a 52       		.byte	0x52
 8564 0b1b 9F       		.byte	0x9f
 8565 0b1c 00000000 		.4byte	0
 8566 0b20 00000000 		.4byte	0
 8567              	.LLST63:
 8568 0b24 00000000 		.4byte	.LVL171
 8569 0b28 1E000000 		.4byte	.LVL174
 8570 0b2c 0100     		.2byte	0x1
 8571 0b2e 53       		.byte	0x53
 8572 0b2f 1E000000 		.4byte	.LVL174
 8573 0b33 38010000 		.4byte	.LFE27
 8574 0b37 0400     		.2byte	0x4
 8575 0b39 F3       		.byte	0xf3
ARM GAS  C:\Users\Besitzer\AppData\Local\Temp\cczB0neC.s 			page 173


 8576 0b3a 01       		.uleb128 0x1
 8577 0b3b 53       		.byte	0x53
 8578 0b3c 9F       		.byte	0x9f
 8579 0b3d 00000000 		.4byte	0
 8580 0b41 00000000 		.4byte	0
 8581              	.LLST64:
 8582 0b45 18000000 		.4byte	.LVL172
 8583 0b49 82000000 		.4byte	.LVL184
 8584 0b4d 0100     		.2byte	0x1
 8585 0b4f 54       		.byte	0x54
 8586 0b50 84000000 		.4byte	.LVL185
 8587 0b54 9A000000 		.4byte	.LVL188
 8588 0b58 0100     		.2byte	0x1
 8589 0b5a 54       		.byte	0x54
 8590 0b5b 9C000000 		.4byte	.LVL189
 8591 0b5f 38010000 		.4byte	.LFE27
 8592 0b63 0100     		.2byte	0x1
 8593 0b65 54       		.byte	0x54
 8594 0b66 00000000 		.4byte	0
 8595 0b6a 00000000 		.4byte	0
 8596              	.LLST65:
 8597 0b6e 18000000 		.4byte	.LVL172
 8598 0b72 6A000000 		.4byte	.LVL181
 8599 0b76 0200     		.2byte	0x2
 8600 0b78 31       		.byte	0x31
 8601 0b79 9F       		.byte	0x9f
 8602 0b7a 6A000000 		.4byte	.LVL181
 8603 0b7e 38010000 		.4byte	.LFE27
 8604 0b82 0200     		.2byte	0x2
 8605 0b84 91       		.byte	0x91
 8606 0b85 4C       		.sleb128 -52
 8607 0b86 00000000 		.4byte	0
 8608 0b8a 00000000 		.4byte	0
 8609              	.LLST66:
 8610 0b8e 22000000 		.4byte	.LVL175
 8611 0b92 6A000000 		.4byte	.LVL181
 8612 0b96 0200     		.2byte	0x2
 8613 0b98 30       		.byte	0x30
 8614 0b99 9F       		.byte	0x9f
 8615 0b9a 6A000000 		.4byte	.LVL181
 8616 0b9e 38010000 		.4byte	.LFE27
 8617 0ba2 0100     		.2byte	0x1
 8618 0ba4 59       		.byte	0x59
 8619 0ba5 00000000 		.4byte	0
 8620 0ba9 00000000 		.4byte	0
 8621              	.LLST67:
 8622 0bad 00000000 		.4byte	.LVL198
 8623 0bb1 1F000000 		.4byte	.LVL199-1
 8624 0bb5 0100     		.2byte	0x1
 8625 0bb7 50       		.byte	0x50
 8626 0bb8 1F000000 		.4byte	.LVL199-1
 8627 0bbc 42000000 		.4byte	.LFE28
 8628 0bc0 0400     		.2byte	0x4
 8629 0bc2 F3       		.byte	0xf3
 8630 0bc3 01       		.uleb128 0x1
 8631 0bc4 50       		.byte	0x50
 8632 0bc5 9F       		.byte	0x9f
ARM GAS  C:\Users\Besitzer\AppData\Local\Temp\cczB0neC.s 			page 174


 8633 0bc6 00000000 		.4byte	0
 8634 0bca 00000000 		.4byte	0
 8635              	.LLST68:
 8636 0bce 00000000 		.4byte	.LVL198
 8637 0bd2 1F000000 		.4byte	.LVL199-1
 8638 0bd6 0100     		.2byte	0x1
 8639 0bd8 51       		.byte	0x51
 8640 0bd9 1F000000 		.4byte	.LVL199-1
 8641 0bdd 42000000 		.4byte	.LFE28
 8642 0be1 0400     		.2byte	0x4
 8643 0be3 F3       		.byte	0xf3
 8644 0be4 01       		.uleb128 0x1
 8645 0be5 51       		.byte	0x51
 8646 0be6 9F       		.byte	0x9f
 8647 0be7 00000000 		.4byte	0
 8648 0beb 00000000 		.4byte	0
 8649              	.LLST69:
 8650 0bef 00000000 		.4byte	.LVL198
 8651 0bf3 1F000000 		.4byte	.LVL199-1
 8652 0bf7 0100     		.2byte	0x1
 8653 0bf9 52       		.byte	0x52
 8654 0bfa 1F000000 		.4byte	.LVL199-1
 8655 0bfe 42000000 		.4byte	.LFE28
 8656 0c02 0400     		.2byte	0x4
 8657 0c04 F3       		.byte	0xf3
 8658 0c05 01       		.uleb128 0x1
 8659 0c06 52       		.byte	0x52
 8660 0c07 9F       		.byte	0x9f
 8661 0c08 00000000 		.4byte	0
 8662 0c0c 00000000 		.4byte	0
 8663              	.LLST70:
 8664 0c10 00000000 		.4byte	.LVL198
 8665 0c14 1F000000 		.4byte	.LVL199-1
 8666 0c18 0100     		.2byte	0x1
 8667 0c1a 53       		.byte	0x53
 8668 0c1b 1F000000 		.4byte	.LVL199-1
 8669 0c1f 42000000 		.4byte	.LFE28
 8670 0c23 0400     		.2byte	0x4
 8671 0c25 F3       		.byte	0xf3
 8672 0c26 01       		.uleb128 0x1
 8673 0c27 53       		.byte	0x53
 8674 0c28 9F       		.byte	0x9f
 8675 0c29 00000000 		.4byte	0
 8676 0c2d 00000000 		.4byte	0
 8677              	.LLST71:
 8678 0c31 00000000 		.4byte	.LVL202
 8679 0c35 42000000 		.4byte	.LVL203
 8680 0c39 0100     		.2byte	0x1
 8681 0c3b 50       		.byte	0x50
 8682 0c3c 42000000 		.4byte	.LVL203
 8683 0c40 EC000000 		.4byte	.LFE29
 8684 0c44 0400     		.2byte	0x4
 8685 0c46 F3       		.byte	0xf3
 8686 0c47 01       		.uleb128 0x1
 8687 0c48 50       		.byte	0x50
 8688 0c49 9F       		.byte	0x9f
 8689 0c4a 00000000 		.4byte	0
ARM GAS  C:\Users\Besitzer\AppData\Local\Temp\cczB0neC.s 			page 175


 8690 0c4e 00000000 		.4byte	0
 8691              	.LLST72:
 8692 0c52 00000000 		.4byte	.LVL202
 8693 0c56 42000000 		.4byte	.LVL203
 8694 0c5a 0100     		.2byte	0x1
 8695 0c5c 51       		.byte	0x51
 8696 0c5d 42000000 		.4byte	.LVL203
 8697 0c61 EC000000 		.4byte	.LFE29
 8698 0c65 0400     		.2byte	0x4
 8699 0c67 F3       		.byte	0xf3
 8700 0c68 01       		.uleb128 0x1
 8701 0c69 51       		.byte	0x51
 8702 0c6a 9F       		.byte	0x9f
 8703 0c6b 00000000 		.4byte	0
 8704 0c6f 00000000 		.4byte	0
 8705              	.LLST73:
 8706 0c73 00000000 		.4byte	.LVL202
 8707 0c77 42000000 		.4byte	.LVL203
 8708 0c7b 0100     		.2byte	0x1
 8709 0c7d 52       		.byte	0x52
 8710 0c7e 42000000 		.4byte	.LVL203
 8711 0c82 EC000000 		.4byte	.LFE29
 8712 0c86 0400     		.2byte	0x4
 8713 0c88 F3       		.byte	0xf3
 8714 0c89 01       		.uleb128 0x1
 8715 0c8a 52       		.byte	0x52
 8716 0c8b 9F       		.byte	0x9f
 8717 0c8c 00000000 		.4byte	0
 8718 0c90 00000000 		.4byte	0
 8719              	.LLST74:
 8720 0c94 00000000 		.4byte	.LVL202
 8721 0c98 42000000 		.4byte	.LVL203
 8722 0c9c 0100     		.2byte	0x1
 8723 0c9e 53       		.byte	0x53
 8724 0c9f 42000000 		.4byte	.LVL203
 8725 0ca3 EC000000 		.4byte	.LFE29
 8726 0ca7 0400     		.2byte	0x4
 8727 0ca9 F3       		.byte	0xf3
 8728 0caa 01       		.uleb128 0x1
 8729 0cab 53       		.byte	0x53
 8730 0cac 9F       		.byte	0x9f
 8731 0cad 00000000 		.4byte	0
 8732 0cb1 00000000 		.4byte	0
 8733              	.LLST75:
 8734 0cb5 00000000 		.4byte	.LVL202
 8735 0cb9 E2000000 		.4byte	.LVL217
 8736 0cbd 0200     		.2byte	0x2
 8737 0cbf 91       		.byte	0x91
 8738 0cc0 00       		.sleb128 0
 8739 0cc1 E2000000 		.4byte	.LVL217
 8740 0cc5 EC000000 		.4byte	.LFE29
 8741 0cc9 0200     		.2byte	0x2
 8742 0ccb 7D       		.byte	0x7d
 8743 0ccc 00       		.sleb128 0
 8744 0ccd 00000000 		.4byte	0
 8745 0cd1 00000000 		.4byte	0
 8746              	.LLST76:
ARM GAS  C:\Users\Besitzer\AppData\Local\Temp\cczB0neC.s 			page 176


 8747 0cd5 00000000 		.4byte	.LVL202
 8748 0cd9 E2000000 		.4byte	.LVL217
 8749 0cdd 0200     		.2byte	0x2
 8750 0cdf 91       		.byte	0x91
 8751 0ce0 04       		.sleb128 4
 8752 0ce1 E2000000 		.4byte	.LVL217
 8753 0ce5 EC000000 		.4byte	.LFE29
 8754 0ce9 0200     		.2byte	0x2
 8755 0ceb 7D       		.byte	0x7d
 8756 0cec 04       		.sleb128 4
 8757 0ced 00000000 		.4byte	0
 8758 0cf1 00000000 		.4byte	0
 8759              	.LLST77:
 8760 0cf5 42000000 		.4byte	.LVL203
 8761 0cf9 D6000000 		.4byte	.LVL214
 8762 0cfd 0100     		.2byte	0x1
 8763 0cff 57       		.byte	0x57
 8764 0d00 D8000000 		.4byte	.LVL215
 8765 0d04 DC000000 		.4byte	.LVL216
 8766 0d08 0100     		.2byte	0x1
 8767 0d0a 57       		.byte	0x57
 8768 0d0b 00000000 		.4byte	0
 8769 0d0f 00000000 		.4byte	0
 8770              	.LLST78:
 8771 0d13 52000000 		.4byte	.LVL204
 8772 0d17 54000000 		.4byte	.LVL205
 8773 0d1b 0100     		.2byte	0x1
 8774 0d1d 55       		.byte	0x55
 8775 0d1e 5A000000 		.4byte	.LVL206
 8776 0d22 D8000000 		.4byte	.LVL215
 8777 0d26 0100     		.2byte	0x1
 8778 0d28 55       		.byte	0x55
 8779 0d29 00000000 		.4byte	0
 8780 0d2d 00000000 		.4byte	0
 8781              	.LLST79:
 8782 0d31 5A000000 		.4byte	.LVL206
 8783 0d35 CE000000 		.4byte	.LVL212
 8784 0d39 0100     		.2byte	0x1
 8785 0d3b 54       		.byte	0x54
 8786 0d3c D0000000 		.4byte	.LVL213
 8787 0d40 D8000000 		.4byte	.LVL215
 8788 0d44 0100     		.2byte	0x1
 8789 0d46 54       		.byte	0x54
 8790 0d47 00000000 		.4byte	0
 8791 0d4b 00000000 		.4byte	0
 8792              	.LLST80:
 8793 0d4f 00000000 		.4byte	.LVL218
 8794 0d53 2C000000 		.4byte	.LVL219
 8795 0d57 0100     		.2byte	0x1
 8796 0d59 50       		.byte	0x50
 8797 0d5a 2C000000 		.4byte	.LVL219
 8798 0d5e 78000000 		.4byte	.LFE30
 8799 0d62 0400     		.2byte	0x4
 8800 0d64 F3       		.byte	0xf3
 8801 0d65 01       		.uleb128 0x1
 8802 0d66 50       		.byte	0x50
 8803 0d67 9F       		.byte	0x9f
ARM GAS  C:\Users\Besitzer\AppData\Local\Temp\cczB0neC.s 			page 177


 8804 0d68 00000000 		.4byte	0
 8805 0d6c 00000000 		.4byte	0
 8806              	.LLST81:
 8807 0d70 00000000 		.4byte	.LVL221
 8808 0d74 07000000 		.4byte	.LVL222-1
 8809 0d78 0100     		.2byte	0x1
 8810 0d7a 50       		.byte	0x50
 8811 0d7b 07000000 		.4byte	.LVL222-1
 8812 0d7f 1C000000 		.4byte	.LFE31
 8813 0d83 0100     		.2byte	0x1
 8814 0d85 56       		.byte	0x56
 8815 0d86 00000000 		.4byte	0
 8816 0d8a 00000000 		.4byte	0
 8817              	.LLST82:
 8818 0d8e 0A000000 		.4byte	.LVL223
 8819 0d92 0E000000 		.4byte	.LVL224
 8820 0d96 0100     		.2byte	0x1
 8821 0d98 50       		.byte	0x50
 8822 0d99 0E000000 		.4byte	.LVL224
 8823 0d9d 1C000000 		.4byte	.LFE31
 8824 0da1 0100     		.2byte	0x1
 8825 0da3 55       		.byte	0x55
 8826 0da4 00000000 		.4byte	0
 8827 0da8 00000000 		.4byte	0
 8828              	.LLST83:
 8829 0dac 0A000000 		.4byte	.LVL223
 8830 0db0 0E000000 		.4byte	.LVL224
 8831 0db4 0200     		.2byte	0x2
 8832 0db6 30       		.byte	0x30
 8833 0db7 9F       		.byte	0x9f
 8834 0db8 0E000000 		.4byte	.LVL224
 8835 0dbc 1C000000 		.4byte	.LFE31
 8836 0dc0 0100     		.2byte	0x1
 8837 0dc2 54       		.byte	0x54
 8838 0dc3 00000000 		.4byte	0
 8839 0dc7 00000000 		.4byte	0
 8840              	.LLST84:
 8841 0dcb 00000000 		.4byte	.LVL227
 8842 0dcf 05000000 		.4byte	.LVL228-1
 8843 0dd3 0100     		.2byte	0x1
 8844 0dd5 50       		.byte	0x50
 8845 0dd6 05000000 		.4byte	.LVL228-1
 8846 0dda 0E000000 		.4byte	.LFE32
 8847 0dde 0400     		.2byte	0x4
 8848 0de0 F3       		.byte	0xf3
 8849 0de1 01       		.uleb128 0x1
 8850 0de2 50       		.byte	0x50
 8851 0de3 9F       		.byte	0x9f
 8852 0de4 00000000 		.4byte	0
 8853 0de8 00000000 		.4byte	0
 8854              	.LLST85:
 8855 0dec 00000000 		.4byte	.LVL230
 8856 0df0 06000000 		.4byte	.LVL231
 8857 0df4 0100     		.2byte	0x1
 8858 0df6 50       		.byte	0x50
 8859 0df7 06000000 		.4byte	.LVL231
 8860 0dfb 0C000000 		.4byte	.LVL233
ARM GAS  C:\Users\Besitzer\AppData\Local\Temp\cczB0neC.s 			page 178


 8861 0dff 0400     		.2byte	0x4
 8862 0e01 F3       		.byte	0xf3
 8863 0e02 01       		.uleb128 0x1
 8864 0e03 50       		.byte	0x50
 8865 0e04 9F       		.byte	0x9f
 8866 0e05 0C000000 		.4byte	.LVL233
 8867 0e09 0E000000 		.4byte	.LVL234
 8868 0e0d 0100     		.2byte	0x1
 8869 0e0f 50       		.byte	0x50
 8870 0e10 0E000000 		.4byte	.LVL234
 8871 0e14 14000000 		.4byte	.LFE34
 8872 0e18 0400     		.2byte	0x4
 8873 0e1a F3       		.byte	0xf3
 8874 0e1b 01       		.uleb128 0x1
 8875 0e1c 50       		.byte	0x50
 8876 0e1d 9F       		.byte	0x9f
 8877 0e1e 00000000 		.4byte	0
 8878 0e22 00000000 		.4byte	0
 8879              	.LLST86:
 8880 0e26 00000000 		.4byte	.LVL236
 8881 0e2a 09000000 		.4byte	.LVL237-1
 8882 0e2e 0100     		.2byte	0x1
 8883 0e30 50       		.byte	0x50
 8884 0e31 09000000 		.4byte	.LVL237-1
 8885 0e35 64000000 		.4byte	.LFE0
 8886 0e39 0400     		.2byte	0x4
 8887 0e3b F3       		.byte	0xf3
 8888 0e3c 01       		.uleb128 0x1
 8889 0e3d 50       		.byte	0x50
 8890 0e3e 9F       		.byte	0x9f
 8891 0e3f 00000000 		.4byte	0
 8892 0e43 00000000 		.4byte	0
 8893              		.section	.debug_aranges,"",%progbits
 8894 0000 3C010000 		.4byte	0x13c
 8895 0004 0200     		.2byte	0x2
 8896 0006 00000000 		.4byte	.Ldebug_info0
 8897 000a 04       		.byte	0x4
 8898 000b 00       		.byte	0
 8899 000c 0000     		.2byte	0
 8900 000e 0000     		.2byte	0
 8901 0010 00000000 		.4byte	.LFB1
 8902 0014 88000000 		.4byte	.LFE1-.LFB1
 8903 0018 00000000 		.4byte	.LFB8
 8904 001c 34010000 		.4byte	.LFE8-.LFB8
 8905 0020 00000000 		.4byte	.LFB21
 8906 0024 68000000 		.4byte	.LFE21-.LFB21
 8907 0028 00000000 		.4byte	.LFB23
 8908 002c 14010000 		.4byte	.LFE23-.LFB23
 8909 0030 00000000 		.4byte	.LFB33
 8910 0034 50000000 		.4byte	.LFE33-.LFB33
 8911 0038 00000000 		.4byte	.LFB7
 8912 003c 32000000 		.4byte	.LFE7-.LFB7
 8913 0040 00000000 		.4byte	.LFB2
 8914 0044 1C000000 		.4byte	.LFE2-.LFB2
 8915 0048 00000000 		.4byte	.LFB3
 8916 004c 22000000 		.4byte	.LFE3-.LFB3
 8917 0050 00000000 		.4byte	.LFB4
ARM GAS  C:\Users\Besitzer\AppData\Local\Temp\cczB0neC.s 			page 179


 8918 0054 24000000 		.4byte	.LFE4-.LFB4
 8919 0058 00000000 		.4byte	.LFB6
 8920 005c 26000000 		.4byte	.LFE6-.LFB6
 8921 0060 00000000 		.4byte	.LFB5
 8922 0064 20000000 		.4byte	.LFE5-.LFB5
 8923 0068 00000000 		.4byte	.LFB9
 8924 006c 1E000000 		.4byte	.LFE9-.LFB9
 8925 0070 00000000 		.4byte	.LFB10
 8926 0074 3A000000 		.4byte	.LFE10-.LFB10
 8927 0078 00000000 		.4byte	.LFB11
 8928 007c 40000000 		.4byte	.LFE11-.LFB11
 8929 0080 00000000 		.4byte	.LFB12
 8930 0084 0C000000 		.4byte	.LFE12-.LFB12
 8931 0088 00000000 		.4byte	.LFB13
 8932 008c 0C000000 		.4byte	.LFE13-.LFB13
 8933 0090 00000000 		.4byte	.LFB14
 8934 0094 0C000000 		.4byte	.LFE14-.LFB14
 8935 0098 00000000 		.4byte	.LFB15
 8936 009c 0C000000 		.4byte	.LFE15-.LFB15
 8937 00a0 00000000 		.4byte	.LFB16
 8938 00a4 10000000 		.4byte	.LFE16-.LFB16
 8939 00a8 00000000 		.4byte	.LFB17
 8940 00ac 0C000000 		.4byte	.LFE17-.LFB17
 8941 00b0 00000000 		.4byte	.LFB18
 8942 00b4 0C000000 		.4byte	.LFE18-.LFB18
 8943 00b8 00000000 		.4byte	.LFB19
 8944 00bc 0C000000 		.4byte	.LFE19-.LFB19
 8945 00c0 00000000 		.4byte	.LFB20
 8946 00c4 44000000 		.4byte	.LFE20-.LFB20
 8947 00c8 00000000 		.4byte	.LFB22
 8948 00cc 4C000000 		.4byte	.LFE22-.LFB22
 8949 00d0 00000000 		.4byte	.LFB24
 8950 00d4 D6000000 		.4byte	.LFE24-.LFB24
 8951 00d8 00000000 		.4byte	.LFB25
 8952 00dc 56000000 		.4byte	.LFE25-.LFB25
 8953 00e0 00000000 		.4byte	.LFB26
 8954 00e4 66000000 		.4byte	.LFE26-.LFB26
 8955 00e8 00000000 		.4byte	.LFB27
 8956 00ec 38010000 		.4byte	.LFE27-.LFB27
 8957 00f0 00000000 		.4byte	.LFB28
 8958 00f4 42000000 		.4byte	.LFE28-.LFB28
 8959 00f8 00000000 		.4byte	.LFB29
 8960 00fc EC000000 		.4byte	.LFE29-.LFB29
 8961 0100 00000000 		.4byte	.LFB30
 8962 0104 78000000 		.4byte	.LFE30-.LFB30
 8963 0108 00000000 		.4byte	.LFB31
 8964 010c 1C000000 		.4byte	.LFE31-.LFB31
 8965 0110 00000000 		.4byte	.LFB32
 8966 0114 0E000000 		.4byte	.LFE32-.LFB32
 8967 0118 00000000 		.4byte	.LFB34
 8968 011c 14000000 		.4byte	.LFE34-.LFB34
 8969 0120 00000000 		.4byte	.LFB0
 8970 0124 64000000 		.4byte	.LFE0-.LFB0
 8971 0128 00000000 		.4byte	.LFB35
 8972 012c 02000000 		.4byte	.LFE35-.LFB35
 8973 0130 00000000 		.4byte	.LFB36
 8974 0134 02000000 		.4byte	.LFE36-.LFB36
ARM GAS  C:\Users\Besitzer\AppData\Local\Temp\cczB0neC.s 			page 180


 8975 0138 00000000 		.4byte	0
 8976 013c 00000000 		.4byte	0
 8977              		.section	.debug_ranges,"",%progbits
 8978              	.Ldebug_ranges0:
 8979 0000 00000000 		.4byte	.LFB1
 8980 0004 88000000 		.4byte	.LFE1
 8981 0008 00000000 		.4byte	.LFB8
 8982 000c 34010000 		.4byte	.LFE8
 8983 0010 00000000 		.4byte	.LFB21
 8984 0014 68000000 		.4byte	.LFE21
 8985 0018 00000000 		.4byte	.LFB23
 8986 001c 14010000 		.4byte	.LFE23
 8987 0020 00000000 		.4byte	.LFB33
 8988 0024 50000000 		.4byte	.LFE33
 8989 0028 00000000 		.4byte	.LFB7
 8990 002c 32000000 		.4byte	.LFE7
 8991 0030 00000000 		.4byte	.LFB2
 8992 0034 1C000000 		.4byte	.LFE2
 8993 0038 00000000 		.4byte	.LFB3
 8994 003c 22000000 		.4byte	.LFE3
 8995 0040 00000000 		.4byte	.LFB4
 8996 0044 24000000 		.4byte	.LFE4
 8997 0048 00000000 		.4byte	.LFB6
 8998 004c 26000000 		.4byte	.LFE6
 8999 0050 00000000 		.4byte	.LFB5
 9000 0054 20000000 		.4byte	.LFE5
 9001 0058 00000000 		.4byte	.LFB9
 9002 005c 1E000000 		.4byte	.LFE9
 9003 0060 00000000 		.4byte	.LFB10
 9004 0064 3A000000 		.4byte	.LFE10
 9005 0068 00000000 		.4byte	.LFB11
 9006 006c 40000000 		.4byte	.LFE11
 9007 0070 00000000 		.4byte	.LFB12
 9008 0074 0C000000 		.4byte	.LFE12
 9009 0078 00000000 		.4byte	.LFB13
 9010 007c 0C000000 		.4byte	.LFE13
 9011 0080 00000000 		.4byte	.LFB14
 9012 0084 0C000000 		.4byte	.LFE14
 9013 0088 00000000 		.4byte	.LFB15
 9014 008c 0C000000 		.4byte	.LFE15
 9015 0090 00000000 		.4byte	.LFB16
 9016 0094 10000000 		.4byte	.LFE16
 9017 0098 00000000 		.4byte	.LFB17
 9018 009c 0C000000 		.4byte	.LFE17
 9019 00a0 00000000 		.4byte	.LFB18
 9020 00a4 0C000000 		.4byte	.LFE18
 9021 00a8 00000000 		.4byte	.LFB19
 9022 00ac 0C000000 		.4byte	.LFE19
 9023 00b0 00000000 		.4byte	.LFB20
 9024 00b4 44000000 		.4byte	.LFE20
 9025 00b8 00000000 		.4byte	.LFB22
 9026 00bc 4C000000 		.4byte	.LFE22
 9027 00c0 00000000 		.4byte	.LFB24
 9028 00c4 D6000000 		.4byte	.LFE24
 9029 00c8 00000000 		.4byte	.LFB25
 9030 00cc 56000000 		.4byte	.LFE25
 9031 00d0 00000000 		.4byte	.LFB26
ARM GAS  C:\Users\Besitzer\AppData\Local\Temp\cczB0neC.s 			page 181


 9032 00d4 66000000 		.4byte	.LFE26
 9033 00d8 00000000 		.4byte	.LFB27
 9034 00dc 38010000 		.4byte	.LFE27
 9035 00e0 00000000 		.4byte	.LFB28
 9036 00e4 42000000 		.4byte	.LFE28
 9037 00e8 00000000 		.4byte	.LFB29
 9038 00ec EC000000 		.4byte	.LFE29
 9039 00f0 00000000 		.4byte	.LFB30
 9040 00f4 78000000 		.4byte	.LFE30
 9041 00f8 00000000 		.4byte	.LFB31
 9042 00fc 1C000000 		.4byte	.LFE31
 9043 0100 00000000 		.4byte	.LFB32
 9044 0104 0E000000 		.4byte	.LFE32
 9045 0108 00000000 		.4byte	.LFB34
 9046 010c 14000000 		.4byte	.LFE34
 9047 0110 00000000 		.4byte	.LFB0
 9048 0114 64000000 		.4byte	.LFE0
 9049 0118 00000000 		.4byte	.LFB35
 9050 011c 02000000 		.4byte	.LFE35
 9051 0120 00000000 		.4byte	.LFB36
 9052 0124 02000000 		.4byte	.LFE36
 9053 0128 00000000 		.4byte	0
 9054 012c 00000000 		.4byte	0
 9055              		.section	.debug_line,"",%progbits
 9056              	.Ldebug_line0:
 9057 0000 7B060000 		.section	.debug_str,"MS",%progbits,1
 9057      0200F501 
 9057      00000201 
 9057      FB0E0D00 
 9057      01010101 
 9058              	.LASF88:
 9059 0000 6766785F 		.ascii	"gfx_drawPixel\000"
 9059      64726177 
 9059      50697865 
 9059      6C00
 9060              	.LASF131:
 9061 000e 7374726C 		.ascii	"strlen\000"
 9061      656E00
 9062              	.LASF76:
 9063 0015 6766785F 		.ascii	"gfx_init\000"
 9063      696E6974 
 9063      00
 9064              	.LASF81:
 9065 001e 6766785F 		.ascii	"gfx_rotation\000"
 9065      726F7461 
 9065      74696F6E 
 9065      00
 9066              	.LASF0:
 9067 002b 756E7369 		.ascii	"unsigned int\000"
 9067      676E6564 
 9067      20696E74 
 9067      00
 9068              	.LASF85:
 9069 0038 6766785F 		.ascii	"gfx_setTextBg\000"
 9069      73657454 
 9069      65787442 
 9069      6700
ARM GAS  C:\Users\Besitzer\AppData\Local\Temp\cczB0neC.s 			page 182


 9070              	.LASF107:
 9071 0046 69326361 		.ascii	"i2caddr\000"
 9071      64647200 
 9072              	.LASF87:
 9073 004e 6766785F 		.ascii	"gfx_setRotation\000"
 9073      73657452 
 9073      6F746174 
 9073      696F6E00 
 9074              	.LASF50:
 9075 005e 64697370 		.ascii	"display_line\000"
 9075      6C61795F 
 9075      6C696E65 
 9075      00
 9076              	.LASF58:
 9077 006b 6766785F 		.ascii	"gfx_hvLine\000"
 9077      68764C69 
 9077      6E6500
 9078              	.LASF33:
 9079 0076 5343524F 		.ascii	"SCROLL_DIR\000"
 9079      4C4C5F44 
 9079      495200
 9080              	.LASF126:
 9081 0081 726F7461 		.ascii	"rotation\000"
 9081      74696F6E 
 9081      00
 9082              	.LASF75:
 9083 008a 73706565 		.ascii	"speed\000"
 9083      6400
 9084              	.LASF34:
 9085 0090 5343524F 		.ascii	"SCROLL_SPEED_0\000"
 9085      4C4C5F53 
 9085      50454544 
 9085      5F3000
 9086              	.LASF35:
 9087 009f 5343524F 		.ascii	"SCROLL_SPEED_1\000"
 9087      4C4C5F53 
 9087      50454544 
 9087      5F3100
 9088              	.LASF36:
 9089 00ae 5343524F 		.ascii	"SCROLL_SPEED_2\000"
 9089      4C4C5F53 
 9089      50454544 
 9089      5F3200
 9090              	.LASF37:
 9091 00bd 5343524F 		.ascii	"SCROLL_SPEED_3\000"
 9091      4C4C5F53 
 9091      50454544 
 9091      5F3300
 9092              	.LASF38:
 9093 00cc 5343524F 		.ascii	"SCROLL_SPEED_4\000"
 9093      4C4C5F53 
 9093      50454544 
 9093      5F3400
 9094              	.LASF39:
 9095 00db 5343524F 		.ascii	"SCROLL_SPEED_5\000"
 9095      4C4C5F53 
 9095      50454544 
ARM GAS  C:\Users\Besitzer\AppData\Local\Temp\cczB0neC.s 			page 183


 9095      5F3500
 9096              	.LASF40:
 9097 00ea 5343524F 		.ascii	"SCROLL_SPEED_6\000"
 9097      4C4C5F53 
 9097      50454544 
 9097      5F3600
 9098              	.LASF41:
 9099 00f9 5343524F 		.ascii	"SCROLL_SPEED_7\000"
 9099      4C4C5F53 
 9099      50454544 
 9099      5F3700
 9100              	.LASF130:
 9101 0108 4932435F 		.ascii	"I2C_1_MasterSendStop\000"
 9101      315F4D61 
 9101      73746572 
 9101      53656E64 
 9101      53746F70 
 9102              	.LASF125:
 9103 011d 48454947 		.ascii	"HEIGHT\000"
 9103      485400
 9104              	.LASF21:
 9105 0124 75696E74 		.ascii	"uint32_t\000"
 9105      33325F74 
 9105      00
 9106              	.LASF17:
 9107 012d 696E7438 		.ascii	"int8_t\000"
 9107      5F7400
 9108              	.LASF59:
 9109 0134 73697A65 		.ascii	"size\000"
 9109      00
 9110              	.LASF45:
 9111 0139 666C6F61 		.ascii	"float\000"
 9111      7400
 9112              	.LASF51:
 9113 013f 70737461 		.ascii	"pstart\000"
 9113      727400
 9114              	.LASF117:
 9115 0146 63757273 		.ascii	"cursor_x\000"
 9115      6F725F78 
 9115      00
 9116              	.LASF118:
 9117 014f 63757273 		.ascii	"cursor_y\000"
 9117      6F725F79 
 9117      00
 9118              	.LASF97:
 9119 0158 6766785F 		.ascii	"gfx_drawTriangle\000"
 9119      64726177 
 9119      54726961 
 9119      6E676C65 
 9119      00
 9120              	.LASF121:
 9121 0169 74657874 		.ascii	"textsize\000"
 9121      73697A65 
 9121      00
 9122              	.LASF19:
 9123 0172 696E7431 		.ascii	"int16_t\000"
 9123      365F7400 
ARM GAS  C:\Users\Besitzer\AppData\Local\Temp\cczB0neC.s 			page 184


 9124              	.LASF14:
 9125 017a 6C6F6E67 		.ascii	"long long unsigned int\000"
 9125      206C6F6E 
 9125      6720756E 
 9125      7369676E 
 9125      65642069 
 9126              	.LASF62:
 9127 0191 53534431 		.ascii	"SSD1306_SetColStartAddr\000"
 9127      3330365F 
 9127      53657443 
 9127      6F6C5374 
 9127      61727441 
 9128              	.LASF9:
 9129 01a9 5F5F7569 		.ascii	"__uint16_t\000"
 9129      6E743136 
 9129      5F7400
 9130              	.LASF103:
 9131 01b4 53534431 		.ascii	"SSD1306_HAL_Reset\000"
 9131      3330365F 
 9131      48414C5F 
 9131      52657365 
 9131      7400
 9132              	.LASF57:
 9133 01c6 6766785F 		.ascii	"gfx_rotation_adjust\000"
 9133      726F7461 
 9133      74696F6E 
 9133      5F61646A 
 9133      75737400 
 9134              	.LASF124:
 9135 01da 57494454 		.ascii	"WIDTH\000"
 9135      4800
 9136              	.LASF136:
 9137 01e0 474E5520 		.ascii	"GNU C11 5.4.1 20160609 (release) [ARM/embedded-5-br"
 9137      43313120 
 9137      352E342E 
 9137      31203230 
 9137      31363036 
 9138 0213 616E6368 		.ascii	"anch revision 237715] -mcpu=cortex-m3 -mthumb -g -O"
 9138      20726576 
 9138      6973696F 
 9138      6E203233 
 9138      37373135 
 9139 0246 67202D66 		.ascii	"g -ffunction-sections -ffat-lto-objects\000"
 9139      66756E63 
 9139      74696F6E 
 9139      2D736563 
 9139      74696F6E 
 9140              	.LASF94:
 9141 026e 6766785F 		.ascii	"gfx_drawCircle\000"
 9141      64726177 
 9141      43697263 
 9141      6C6500
 9142              	.LASF77:
 9143 027d 77696474 		.ascii	"width\000"
 9143      6800
 9144              	.LASF49:
 9145 0283 64697370 		.ascii	"display_setPixel\000"
ARM GAS  C:\Users\Besitzer\AppData\Local\Temp\cczB0neC.s 			page 185


 9145      6C61795F 
 9145      73657450 
 9145      6978656C 
 9145      00
 9146              	.LASF105:
 9147 0294 5F426F6F 		.ascii	"_Bool\000"
 9147      6C00
 9148              	.LASF22:
 9149 029a 5343524F 		.ascii	"SCROLL_PAGE_0\000"
 9149      4C4C5F50 
 9149      4147455F 
 9149      3000
 9150              	.LASF23:
 9151 02a8 5343524F 		.ascii	"SCROLL_PAGE_1\000"
 9151      4C4C5F50 
 9151      4147455F 
 9151      3100
 9152              	.LASF24:
 9153 02b6 5343524F 		.ascii	"SCROLL_PAGE_2\000"
 9153      4C4C5F50 
 9153      4147455F 
 9153      3200
 9154              	.LASF25:
 9155 02c4 5343524F 		.ascii	"SCROLL_PAGE_3\000"
 9155      4C4C5F50 
 9155      4147455F 
 9155      3300
 9156              	.LASF26:
 9157 02d2 5343524F 		.ascii	"SCROLL_PAGE_4\000"
 9157      4C4C5F50 
 9157      4147455F 
 9157      3400
 9158              	.LASF27:
 9159 02e0 5343524F 		.ascii	"SCROLL_PAGE_5\000"
 9159      4C4C5F50 
 9159      4147455F 
 9159      3500
 9160              	.LASF28:
 9161 02ee 5343524F 		.ascii	"SCROLL_PAGE_6\000"
 9161      4C4C5F50 
 9161      4147455F 
 9161      3600
 9162              	.LASF29:
 9163 02fc 5343524F 		.ascii	"SCROLL_PAGE_7\000"
 9163      4C4C5F50 
 9163      4147455F 
 9163      3700
 9164              	.LASF111:
 9165 030a 53534431 		.ascii	"SSD1306_buffer\000"
 9165      3330365F 
 9165      62756666 
 9165      657200
 9166              	.LASF129:
 9167 0319 4932435F 		.ascii	"I2C_1_MasterWriteByte\000"
 9167      315F4D61 
 9167      73746572 
 9167      57726974 
ARM GAS  C:\Users\Besitzer\AppData\Local\Temp\cczB0neC.s 			page 186


 9167      65427974 
 9168              	.LASF89:
 9169 032f 6766785F 		.ascii	"gfx_drawLine\000"
 9169      64726177 
 9169      4C696E65 
 9169      00
 9170              	.LASF71:
 9171 033c 64697370 		.ascii	"display_update\000"
 9171      6C61795F 
 9171      75706461 
 9171      746500
 9172              	.LASF16:
 9173 034b 63686172 		.ascii	"char\000"
 9173      00
 9174              	.LASF135:
 9175 0350 43794465 		.ascii	"CyDelay\000"
 9175      6C617900 
 9176              	.LASF68:
 9177 0358 696E7665 		.ascii	"invert\000"
 9177      727400
 9178              	.LASF18:
 9179 035f 75696E74 		.ascii	"uint8_t\000"
 9179      385F7400 
 9180              	.LASF60:
 9181 0367 73746174 		.ascii	"status\000"
 9181      757300
 9182              	.LASF92:
 9183 036e 6766785F 		.ascii	"gfx_drawRect\000"
 9183      64726177 
 9183      52656374 
 9183      00
 9184              	.LASF115:
 9185 037b 5F776964 		.ascii	"_width\000"
 9185      746800
 9186              	.LASF90:
 9187 0382 73746565 		.ascii	"steep\000"
 9187      7000
 9188              	.LASF1:
 9189 0388 6C6F6E67 		.ascii	"long long int\000"
 9189      206C6F6E 
 9189      6720696E 
 9189      7400
 9190              	.LASF66:
 9191 0396 636F6E74 		.ascii	"contrast\000"
 9191      72617374 
 9191      00
 9192              	.LASF42:
 9193 039f 5343524F 		.ascii	"SCROLL_SPEED\000"
 9193      4C4C5F53 
 9193      50454544 
 9193      00
 9194              	.LASF70:
 9195 03ac 70616765 		.ascii	"page\000"
 9195      00
 9196              	.LASF30:
 9197 03b1 5343524F 		.ascii	"SCROLL_AREA\000"
 9197      4C4C5F41 
ARM GAS  C:\Users\Besitzer\AppData\Local\Temp\cczB0neC.s 			page 187


 9197      52454100 
 9198              	.LASF69:
 9199 03bd 53534431 		.ascii	"SSD1306_SetPageStartAddr\000"
 9199      3330365F 
 9199      53657450 
 9199      61676553 
 9199      74617274 
 9200              	.LASF79:
 9201 03d6 6766785F 		.ascii	"gfx_width\000"
 9201      77696474 
 9201      6800
 9202              	.LASF106:
 9203 03e0 53534431 		.ascii	"SSD1306_Init\000"
 9203      3330365F 
 9203      496E6974 
 9203      00
 9204              	.LASF7:
 9205 03ed 5F5F696E 		.ascii	"__int16_t\000"
 9205      7431365F 
 9205      7400
 9206              	.LASF133:
 9207 03f7 4932435F 		.ascii	"I2C_1_Enable\000"
 9207      315F456E 
 9207      61626C65 
 9207      00
 9208              	.LASF116:
 9209 0404 5F686569 		.ascii	"_height\000"
 9209      67687400 
 9210              	.LASF140:
 9211 040c 6D656D73 		.ascii	"memset\000"
 9211      657400
 9212              	.LASF52:
 9213 0413 70656E64 		.ascii	"pend\000"
 9213      00
 9214              	.LASF113:
 9215 0418 5F646973 		.ascii	"_displaybuf_size\000"
 9215      706C6179 
 9215      6275665F 
 9215      73697A65 
 9215      00
 9216              	.LASF44:
 9217 0429 75696E74 		.ascii	"uint32\000"
 9217      333200
 9218              	.LASF139:
 9219 0430 64697370 		.ascii	"display_write_buf\000"
 9219      6C61795F 
 9219      77726974 
 9219      655F6275 
 9219      6600
 9220              	.LASF123:
 9221 0442 61637450 		.ascii	"actPage\000"
 9221      61676500 
 9222              	.LASF53:
 9223 044a 6D61736B 		.ascii	"mask\000"
 9223      00
 9224              	.LASF114:
 9225 044f 5F693263 		.ascii	"_i2caddr\000"
ARM GAS  C:\Users\Besitzer\AppData\Local\Temp\cczB0neC.s 			page 188


 9225      61646472 
 9225      00
 9226              	.LASF78:
 9227 0458 68656967 		.ascii	"height\000"
 9227      687400
 9228              	.LASF84:
 9229 045f 6766785F 		.ascii	"gfx_setTextColor\000"
 9229      73657454 
 9229      65787443 
 9229      6F6C6F72 
 9229      00
 9230              	.LASF4:
 9231 0470 5F5F696E 		.ascii	"__int8_t\000"
 9231      74385F74 
 9231      00
 9232              	.LASF138:
 9233 0479 443A5C52 		.ascii	"D:\\Repos\\QuadroCopter\\Software\\FlightController"
 9233      65706F73 
 9233      5C517561 
 9233      64726F43 
 9233      6F707465 
 9234 04a8 5C535344 		.ascii	"\\SSD1306.cydsn\000"
 9234      31333036 
 9234      2E637964 
 9234      736E00
 9235              	.LASF2:
 9236 04b7 6C6F6E67 		.ascii	"long double\000"
 9236      20646F75 
 9236      626C6500 
 9237              	.LASF80:
 9238 04c3 6766785F 		.ascii	"gfx_height\000"
 9238      68656967 
 9238      687400
 9239              	.LASF20:
 9240 04ce 75696E74 		.ascii	"uint16_t\000"
 9240      31365F74 
 9240      00
 9241              	.LASF47:
 9242 04d7 72656733 		.ascii	"reg32\000"
 9242      3200
 9243              	.LASF122:
 9244 04dd 61637443 		.ascii	"actCol\000"
 9244      6F6C00
 9245              	.LASF137:
 9246 04e4 73736431 		.ascii	"ssd1306.c\000"
 9246      3330362E 
 9246      6300
 9247              	.LASF93:
 9248 04ee 6766785F 		.ascii	"gfx_fillRect\000"
 9248      66696C6C 
 9248      52656374 
 9248      00
 9249              	.LASF8:
 9250 04fb 73686F72 		.ascii	"short int\000"
 9250      7420696E 
 9250      7400
 9251              	.LASF56:
ARM GAS  C:\Users\Besitzer\AppData\Local\Temp\cczB0neC.s 			page 189


 9252 0505 7069786D 		.ascii	"pixmask\000"
 9252      61736B00 
 9253              	.LASF128:
 9254 050d 4932435F 		.ascii	"I2C_1_MasterSendStart\000"
 9254      315F4D61 
 9254      73746572 
 9254      53656E64 
 9254      53746172 
 9255              	.LASF11:
 9256 0523 6C6F6E67 		.ascii	"long int\000"
 9256      20696E74 
 9256      00
 9257              	.LASF102:
 9258 052c 6766785F 		.ascii	"gfx_println\000"
 9258      7072696E 
 9258      746C6E00 
 9259              	.LASF100:
 9260 0538 6766785F 		.ascii	"gfx_write\000"
 9260      77726974 
 9260      6500
 9261              	.LASF67:
 9262 0542 64697370 		.ascii	"display_invert\000"
 9262      6C61795F 
 9262      696E7665 
 9262      727400
 9263              	.LASF48:
 9264 0551 636F6C6F 		.ascii	"color\000"
 9264      7200
 9265              	.LASF83:
 9266 0557 6766785F 		.ascii	"gfx_setTextSize\000"
 9266      73657454 
 9266      65787453 
 9266      697A6500 
 9267              	.LASF104:
 9268 0567 72657365 		.ascii	"reset\000"
 9268      7400
 9269              	.LASF5:
 9270 056d 5F5F7569 		.ascii	"__uint8_t\000"
 9270      6E74385F 
 9270      7400
 9271              	.LASF54:
 9272 0577 6C626974 		.ascii	"lbit\000"
 9272      00
 9273              	.LASF74:
 9274 057c 73746172 		.ascii	"start\000"
 9274      7400
 9275              	.LASF101:
 9276 0582 6766785F 		.ascii	"gfx_print\000"
 9276      7072696E 
 9276      7400
 9277              	.LASF91:
 9278 058c 79737465 		.ascii	"ystep\000"
 9278      7000
 9279              	.LASF110:
 9280 0592 666F6E74 		.ascii	"font\000"
 9280      00
 9281              	.LASF15:
ARM GAS  C:\Users\Besitzer\AppData\Local\Temp\cczB0neC.s 			page 190


 9282 0597 73697A65 		.ascii	"sizetype\000"
 9282      74797065 
 9282      00
 9283              	.LASF63:
 9284 05a0 636D6462 		.ascii	"cmdbuf\000"
 9284      756600
 9285              	.LASF13:
 9286 05a7 6C6F6E67 		.ascii	"long unsigned int\000"
 9286      20756E73 
 9286      69676E65 
 9286      6420696E 
 9286      7400
 9287              	.LASF32:
 9288 05b9 5343524F 		.ascii	"SCROLL_LEFT\000"
 9288      4C4C5F4C 
 9288      45465400 
 9289              	.LASF132:
 9290 05c5 53534431 		.ascii	"SSD1306_Reset_Write\000"
 9290      3330365F 
 9290      52657365 
 9290      745F5772 
 9290      69746500 
 9291              	.LASF64:
 9292 05d9 64697370 		.ascii	"display_clear\000"
 9292      6C61795F 
 9292      636C6561 
 9292      7200
 9293              	.LASF127:
 9294 05e7 77726170 		.ascii	"wrap\000"
 9294      00
 9295              	.LASF108:
 9296 05ec 53534431 		.ascii	"SSD1306_HAL_CS\000"
 9296      3330365F 
 9296      48414C5F 
 9296      435300
 9297              	.LASF61:
 9298 05fb 7472616E 		.ascii	"transmit_status\000"
 9298      736D6974 
 9298      5F737461 
 9298      74757300 
 9299              	.LASF31:
 9300 060b 5343524F 		.ascii	"SCROLL_RIGHT\000"
 9300      4C4C5F52 
 9300      49474854 
 9300      00
 9301              	.LASF134:
 9302 0618 4932435F 		.ascii	"I2C_1_Start\000"
 9302      315F5374 
 9302      61727400 
 9303              	.LASF6:
 9304 0624 756E7369 		.ascii	"unsigned char\000"
 9304      676E6564 
 9304      20636861 
 9304      7200
 9305              	.LASF12:
 9306 0632 5F5F7569 		.ascii	"__uint32_t\000"
 9306      6E743332 
ARM GAS  C:\Users\Besitzer\AppData\Local\Temp\cczB0neC.s 			page 191


 9306      5F7400
 9307              	.LASF55:
 9308 063d 75626974 		.ascii	"ubit\000"
 9308      00
 9309              	.LASF99:
 9310 0642 6C696E65 		.ascii	"line\000"
 9310      00
 9311              	.LASF98:
 9312 0647 6766785F 		.ascii	"gfx_drawChar\000"
 9312      64726177 
 9312      43686172 
 9312      00
 9313              	.LASF109:
 9314 0654 53534431 		.ascii	"SSD1306_HAL_DC\000"
 9314      3330365F 
 9314      48414C5F 
 9314      444300
 9315              	.LASF73:
 9316 0663 64697370 		.ascii	"display_scroll\000"
 9316      6C61795F 
 9316      7363726F 
 9316      6C6C00
 9317              	.LASF112:
 9318 0672 5F646973 		.ascii	"_displaybuf\000"
 9318      706C6179 
 9318      62756600 
 9319              	.LASF65:
 9320 067e 64697370 		.ascii	"display_contrast\000"
 9320      6C61795F 
 9320      636F6E74 
 9320      72617374 
 9320      00
 9321              	.LASF95:
 9322 068f 6464465F 		.ascii	"ddF_x\000"
 9322      7800
 9323              	.LASF96:
 9324 0695 6464465F 		.ascii	"ddF_y\000"
 9324      7900
 9325              	.LASF3:
 9326 069b 7369676E 		.ascii	"signed char\000"
 9326      65642063 
 9326      68617200 
 9327              	.LASF10:
 9328 06a7 73686F72 		.ascii	"short unsigned int\000"
 9328      7420756E 
 9328      7369676E 
 9328      65642069 
 9328      6E7400
 9329              	.LASF72:
 9330 06ba 64697370 		.ascii	"display_stopscroll\000"
 9330      6C61795F 
 9330      73746F70 
 9330      7363726F 
 9330      6C6C00
 9331              	.LASF43:
 9332 06cd 75696E74 		.ascii	"uint8\000"
 9332      3800
ARM GAS  C:\Users\Besitzer\AppData\Local\Temp\cczB0neC.s 			page 192


 9333              	.LASF46:
 9334 06d3 646F7562 		.ascii	"double\000"
 9334      6C6500
 9335              	.LASF119:
 9336 06da 74657874 		.ascii	"textcolor\000"
 9336      636F6C6F 
 9336      7200
 9337              	.LASF120:
 9338 06e4 74657874 		.ascii	"textbgcolor\000"
 9338      6267636F 
 9338      6C6F7200 
 9339              	.LASF82:
 9340 06f0 6766785F 		.ascii	"gfx_setCursor\000"
 9340      73657443 
 9340      7572736F 
 9340      7200
 9341              	.LASF86:
 9342 06fe 6766785F 		.ascii	"gfx_setTextWrap\000"
 9342      73657454 
 9342      65787457 
 9342      72617000 
 9343              		.ident	"GCC: (GNU Tools for ARM Embedded Processors) 5.4.1 20160609 (release) [ARM/embedded-5-bran
