ARM GAS  C:\Users\rene_\AppData\Local\Temp\cchmTSk6.s 			page 1


   1              		.syntax unified
   2              		.cpu cortex-m3
   3              		.fpu softvfp
   4              		.eabi_attribute 20, 1
   5              		.eabi_attribute 21, 1
   6              		.eabi_attribute 23, 3
   7              		.eabi_attribute 24, 1
   8              		.eabi_attribute 25, 1
   9              		.eabi_attribute 26, 1
  10              		.eabi_attribute 30, 1
  11              		.eabi_attribute 34, 1
  12              		.eabi_attribute 18, 4
  13              		.thumb
  14              		.syntax unified
  15              		.file	"UART_DMA_TIMER_TC_ISR.c"
  16              		.text
  17              	.Ltext0:
  18              		.cfi_sections	.debug_frame
  19              		.section	.text.UART_DMA_TIMER_TC_ISR_SetVector,"ax",%progbits
  20              		.align	2
  21              		.global	UART_DMA_TIMER_TC_ISR_SetVector
  22              		.thumb
  23              		.thumb_func
  24              		.type	UART_DMA_TIMER_TC_ISR_SetVector, %function
  25              	UART_DMA_TIMER_TC_ISR_SetVector:
  26              	.LFB67:
  27              		.file 1 "Generated_Source\\PSoC5\\UART_DMA_TIMER_TC_ISR.c"
   1:Generated_Source\PSoC5/UART_DMA_TIMER_TC_ISR.c **** /*******************************************************************************
   2:Generated_Source\PSoC5/UART_DMA_TIMER_TC_ISR.c **** * File Name: UART_DMA_TIMER_TC_ISR.c  
   3:Generated_Source\PSoC5/UART_DMA_TIMER_TC_ISR.c **** * Version 1.70
   4:Generated_Source\PSoC5/UART_DMA_TIMER_TC_ISR.c **** *
   5:Generated_Source\PSoC5/UART_DMA_TIMER_TC_ISR.c **** *  Description:
   6:Generated_Source\PSoC5/UART_DMA_TIMER_TC_ISR.c **** *   API for controlling the state of an interrupt.
   7:Generated_Source\PSoC5/UART_DMA_TIMER_TC_ISR.c **** *
   8:Generated_Source\PSoC5/UART_DMA_TIMER_TC_ISR.c **** *
   9:Generated_Source\PSoC5/UART_DMA_TIMER_TC_ISR.c **** *  Note:
  10:Generated_Source\PSoC5/UART_DMA_TIMER_TC_ISR.c **** *
  11:Generated_Source\PSoC5/UART_DMA_TIMER_TC_ISR.c **** ********************************************************************************
  12:Generated_Source\PSoC5/UART_DMA_TIMER_TC_ISR.c **** * Copyright 2008-2015, Cypress Semiconductor Corporation.  All rights reserved.
  13:Generated_Source\PSoC5/UART_DMA_TIMER_TC_ISR.c **** * You may use this file only in accordance with the license, terms, conditions, 
  14:Generated_Source\PSoC5/UART_DMA_TIMER_TC_ISR.c **** * disclaimers, and limitations in the end user license agreement accompanying 
  15:Generated_Source\PSoC5/UART_DMA_TIMER_TC_ISR.c **** * the software package with which this file was provided.
  16:Generated_Source\PSoC5/UART_DMA_TIMER_TC_ISR.c **** *******************************************************************************/
  17:Generated_Source\PSoC5/UART_DMA_TIMER_TC_ISR.c **** 
  18:Generated_Source\PSoC5/UART_DMA_TIMER_TC_ISR.c **** 
  19:Generated_Source\PSoC5/UART_DMA_TIMER_TC_ISR.c **** #include <cydevice_trm.h>
  20:Generated_Source\PSoC5/UART_DMA_TIMER_TC_ISR.c **** #include <CyLib.h>
  21:Generated_Source\PSoC5/UART_DMA_TIMER_TC_ISR.c **** #include <UART_DMA_TIMER_TC_ISR.h>
  22:Generated_Source\PSoC5/UART_DMA_TIMER_TC_ISR.c **** #include "cyapicallbacks.h"
  23:Generated_Source\PSoC5/UART_DMA_TIMER_TC_ISR.c **** 
  24:Generated_Source\PSoC5/UART_DMA_TIMER_TC_ISR.c **** #if !defined(UART_DMA_TIMER_TC_ISR__REMOVED) /* Check for removal by optimization */
  25:Generated_Source\PSoC5/UART_DMA_TIMER_TC_ISR.c **** 
  26:Generated_Source\PSoC5/UART_DMA_TIMER_TC_ISR.c **** /*******************************************************************************
  27:Generated_Source\PSoC5/UART_DMA_TIMER_TC_ISR.c **** *  Place your includes, defines and code here 
  28:Generated_Source\PSoC5/UART_DMA_TIMER_TC_ISR.c **** ********************************************************************************/
  29:Generated_Source\PSoC5/UART_DMA_TIMER_TC_ISR.c **** /* `#START UART_DMA_TIMER_TC_ISR_intc` */
  30:Generated_Source\PSoC5/UART_DMA_TIMER_TC_ISR.c **** #include "project.h"
ARM GAS  C:\Users\rene_\AppData\Local\Temp\cchmTSk6.s 			page 2


  31:Generated_Source\PSoC5/UART_DMA_TIMER_TC_ISR.c **** /* `#END` */
  32:Generated_Source\PSoC5/UART_DMA_TIMER_TC_ISR.c **** 
  33:Generated_Source\PSoC5/UART_DMA_TIMER_TC_ISR.c **** #ifndef CYINT_IRQ_BASE
  34:Generated_Source\PSoC5/UART_DMA_TIMER_TC_ISR.c **** #define CYINT_IRQ_BASE      16
  35:Generated_Source\PSoC5/UART_DMA_TIMER_TC_ISR.c **** #endif /* CYINT_IRQ_BASE */
  36:Generated_Source\PSoC5/UART_DMA_TIMER_TC_ISR.c **** #ifndef CYINT_VECT_TABLE
  37:Generated_Source\PSoC5/UART_DMA_TIMER_TC_ISR.c **** #define CYINT_VECT_TABLE    ((cyisraddress **) CYREG_NVIC_VECT_OFFSET)
  38:Generated_Source\PSoC5/UART_DMA_TIMER_TC_ISR.c **** #endif /* CYINT_VECT_TABLE */
  39:Generated_Source\PSoC5/UART_DMA_TIMER_TC_ISR.c **** 
  40:Generated_Source\PSoC5/UART_DMA_TIMER_TC_ISR.c **** /* Declared in startup, used to set unused interrupts to. */
  41:Generated_Source\PSoC5/UART_DMA_TIMER_TC_ISR.c **** CY_ISR_PROTO(IntDefaultHandler);
  42:Generated_Source\PSoC5/UART_DMA_TIMER_TC_ISR.c **** 
  43:Generated_Source\PSoC5/UART_DMA_TIMER_TC_ISR.c **** 
  44:Generated_Source\PSoC5/UART_DMA_TIMER_TC_ISR.c **** /*******************************************************************************
  45:Generated_Source\PSoC5/UART_DMA_TIMER_TC_ISR.c **** * Function Name: UART_DMA_TIMER_TC_ISR_Start
  46:Generated_Source\PSoC5/UART_DMA_TIMER_TC_ISR.c **** ********************************************************************************
  47:Generated_Source\PSoC5/UART_DMA_TIMER_TC_ISR.c **** *
  48:Generated_Source\PSoC5/UART_DMA_TIMER_TC_ISR.c **** * Summary:
  49:Generated_Source\PSoC5/UART_DMA_TIMER_TC_ISR.c **** *  Set up the interrupt and enable it. This function disables the interrupt, 
  50:Generated_Source\PSoC5/UART_DMA_TIMER_TC_ISR.c **** *  sets the default interrupt vector, sets the priority from the value in the
  51:Generated_Source\PSoC5/UART_DMA_TIMER_TC_ISR.c **** *  Design Wide Resources Interrupt Editor, then enables the interrupt to the 
  52:Generated_Source\PSoC5/UART_DMA_TIMER_TC_ISR.c **** *  interrupt controller.
  53:Generated_Source\PSoC5/UART_DMA_TIMER_TC_ISR.c **** *
  54:Generated_Source\PSoC5/UART_DMA_TIMER_TC_ISR.c **** * Parameters:  
  55:Generated_Source\PSoC5/UART_DMA_TIMER_TC_ISR.c **** *   None
  56:Generated_Source\PSoC5/UART_DMA_TIMER_TC_ISR.c **** *
  57:Generated_Source\PSoC5/UART_DMA_TIMER_TC_ISR.c **** * Return:
  58:Generated_Source\PSoC5/UART_DMA_TIMER_TC_ISR.c **** *   None
  59:Generated_Source\PSoC5/UART_DMA_TIMER_TC_ISR.c **** *
  60:Generated_Source\PSoC5/UART_DMA_TIMER_TC_ISR.c **** *******************************************************************************/
  61:Generated_Source\PSoC5/UART_DMA_TIMER_TC_ISR.c **** void UART_DMA_TIMER_TC_ISR_Start(void)
  62:Generated_Source\PSoC5/UART_DMA_TIMER_TC_ISR.c **** {
  63:Generated_Source\PSoC5/UART_DMA_TIMER_TC_ISR.c ****     /* For all we know the interrupt is active. */
  64:Generated_Source\PSoC5/UART_DMA_TIMER_TC_ISR.c ****     UART_DMA_TIMER_TC_ISR_Disable();
  65:Generated_Source\PSoC5/UART_DMA_TIMER_TC_ISR.c **** 
  66:Generated_Source\PSoC5/UART_DMA_TIMER_TC_ISR.c ****     /* Set the ISR to point to the UART_DMA_TIMER_TC_ISR Interrupt. */
  67:Generated_Source\PSoC5/UART_DMA_TIMER_TC_ISR.c ****     UART_DMA_TIMER_TC_ISR_SetVector(&UART_DMA_TIMER_TC_ISR_Interrupt);
  68:Generated_Source\PSoC5/UART_DMA_TIMER_TC_ISR.c **** 
  69:Generated_Source\PSoC5/UART_DMA_TIMER_TC_ISR.c ****     /* Set the priority. */
  70:Generated_Source\PSoC5/UART_DMA_TIMER_TC_ISR.c ****     UART_DMA_TIMER_TC_ISR_SetPriority((uint8)UART_DMA_TIMER_TC_ISR_INTC_PRIOR_NUMBER);
  71:Generated_Source\PSoC5/UART_DMA_TIMER_TC_ISR.c **** 
  72:Generated_Source\PSoC5/UART_DMA_TIMER_TC_ISR.c ****     /* Enable it. */
  73:Generated_Source\PSoC5/UART_DMA_TIMER_TC_ISR.c ****     UART_DMA_TIMER_TC_ISR_Enable();
  74:Generated_Source\PSoC5/UART_DMA_TIMER_TC_ISR.c **** }
  75:Generated_Source\PSoC5/UART_DMA_TIMER_TC_ISR.c **** 
  76:Generated_Source\PSoC5/UART_DMA_TIMER_TC_ISR.c **** 
  77:Generated_Source\PSoC5/UART_DMA_TIMER_TC_ISR.c **** /*******************************************************************************
  78:Generated_Source\PSoC5/UART_DMA_TIMER_TC_ISR.c **** * Function Name: UART_DMA_TIMER_TC_ISR_StartEx
  79:Generated_Source\PSoC5/UART_DMA_TIMER_TC_ISR.c **** ********************************************************************************
  80:Generated_Source\PSoC5/UART_DMA_TIMER_TC_ISR.c **** *
  81:Generated_Source\PSoC5/UART_DMA_TIMER_TC_ISR.c **** * Summary:
  82:Generated_Source\PSoC5/UART_DMA_TIMER_TC_ISR.c **** *  Sets up the interrupt and enables it. This function disables the interrupt,
  83:Generated_Source\PSoC5/UART_DMA_TIMER_TC_ISR.c **** *  sets the interrupt vector based on the address passed in, sets the priority 
  84:Generated_Source\PSoC5/UART_DMA_TIMER_TC_ISR.c **** *  from the value in the Design Wide Resources Interrupt Editor, then enables 
  85:Generated_Source\PSoC5/UART_DMA_TIMER_TC_ISR.c **** *  the interrupt to the interrupt controller.
  86:Generated_Source\PSoC5/UART_DMA_TIMER_TC_ISR.c **** *  
  87:Generated_Source\PSoC5/UART_DMA_TIMER_TC_ISR.c **** *  When defining ISR functions, the CY_ISR and CY_ISR_PROTO macros should be 
ARM GAS  C:\Users\rene_\AppData\Local\Temp\cchmTSk6.s 			page 3


  88:Generated_Source\PSoC5/UART_DMA_TIMER_TC_ISR.c **** *  used to provide consistent definition across compilers:
  89:Generated_Source\PSoC5/UART_DMA_TIMER_TC_ISR.c **** *  
  90:Generated_Source\PSoC5/UART_DMA_TIMER_TC_ISR.c **** *  Function definition example:
  91:Generated_Source\PSoC5/UART_DMA_TIMER_TC_ISR.c **** *   CY_ISR(MyISR)
  92:Generated_Source\PSoC5/UART_DMA_TIMER_TC_ISR.c **** *   {
  93:Generated_Source\PSoC5/UART_DMA_TIMER_TC_ISR.c **** *   }
  94:Generated_Source\PSoC5/UART_DMA_TIMER_TC_ISR.c **** *   Function prototype example:
  95:Generated_Source\PSoC5/UART_DMA_TIMER_TC_ISR.c **** *   CY_ISR_PROTO(MyISR);
  96:Generated_Source\PSoC5/UART_DMA_TIMER_TC_ISR.c **** *
  97:Generated_Source\PSoC5/UART_DMA_TIMER_TC_ISR.c **** * Parameters:  
  98:Generated_Source\PSoC5/UART_DMA_TIMER_TC_ISR.c **** *   address: Address of the ISR to set in the interrupt vector table.
  99:Generated_Source\PSoC5/UART_DMA_TIMER_TC_ISR.c **** *
 100:Generated_Source\PSoC5/UART_DMA_TIMER_TC_ISR.c **** * Return:
 101:Generated_Source\PSoC5/UART_DMA_TIMER_TC_ISR.c **** *   None
 102:Generated_Source\PSoC5/UART_DMA_TIMER_TC_ISR.c **** *
 103:Generated_Source\PSoC5/UART_DMA_TIMER_TC_ISR.c **** *******************************************************************************/
 104:Generated_Source\PSoC5/UART_DMA_TIMER_TC_ISR.c **** void UART_DMA_TIMER_TC_ISR_StartEx(cyisraddress address)
 105:Generated_Source\PSoC5/UART_DMA_TIMER_TC_ISR.c **** {
 106:Generated_Source\PSoC5/UART_DMA_TIMER_TC_ISR.c ****     /* For all we know the interrupt is active. */
 107:Generated_Source\PSoC5/UART_DMA_TIMER_TC_ISR.c ****     UART_DMA_TIMER_TC_ISR_Disable();
 108:Generated_Source\PSoC5/UART_DMA_TIMER_TC_ISR.c **** 
 109:Generated_Source\PSoC5/UART_DMA_TIMER_TC_ISR.c ****     /* Set the ISR to point to the UART_DMA_TIMER_TC_ISR Interrupt. */
 110:Generated_Source\PSoC5/UART_DMA_TIMER_TC_ISR.c ****     UART_DMA_TIMER_TC_ISR_SetVector(address);
 111:Generated_Source\PSoC5/UART_DMA_TIMER_TC_ISR.c **** 
 112:Generated_Source\PSoC5/UART_DMA_TIMER_TC_ISR.c ****     /* Set the priority. */
 113:Generated_Source\PSoC5/UART_DMA_TIMER_TC_ISR.c ****     UART_DMA_TIMER_TC_ISR_SetPriority((uint8)UART_DMA_TIMER_TC_ISR_INTC_PRIOR_NUMBER);
 114:Generated_Source\PSoC5/UART_DMA_TIMER_TC_ISR.c **** 
 115:Generated_Source\PSoC5/UART_DMA_TIMER_TC_ISR.c ****     /* Enable it. */
 116:Generated_Source\PSoC5/UART_DMA_TIMER_TC_ISR.c ****     UART_DMA_TIMER_TC_ISR_Enable();
 117:Generated_Source\PSoC5/UART_DMA_TIMER_TC_ISR.c **** }
 118:Generated_Source\PSoC5/UART_DMA_TIMER_TC_ISR.c **** 
 119:Generated_Source\PSoC5/UART_DMA_TIMER_TC_ISR.c **** 
 120:Generated_Source\PSoC5/UART_DMA_TIMER_TC_ISR.c **** /*******************************************************************************
 121:Generated_Source\PSoC5/UART_DMA_TIMER_TC_ISR.c **** * Function Name: UART_DMA_TIMER_TC_ISR_Stop
 122:Generated_Source\PSoC5/UART_DMA_TIMER_TC_ISR.c **** ********************************************************************************
 123:Generated_Source\PSoC5/UART_DMA_TIMER_TC_ISR.c **** *
 124:Generated_Source\PSoC5/UART_DMA_TIMER_TC_ISR.c **** * Summary:
 125:Generated_Source\PSoC5/UART_DMA_TIMER_TC_ISR.c **** *   Disables and removes the interrupt.
 126:Generated_Source\PSoC5/UART_DMA_TIMER_TC_ISR.c **** *
 127:Generated_Source\PSoC5/UART_DMA_TIMER_TC_ISR.c **** * Parameters:  
 128:Generated_Source\PSoC5/UART_DMA_TIMER_TC_ISR.c **** *   None
 129:Generated_Source\PSoC5/UART_DMA_TIMER_TC_ISR.c **** *
 130:Generated_Source\PSoC5/UART_DMA_TIMER_TC_ISR.c **** * Return:
 131:Generated_Source\PSoC5/UART_DMA_TIMER_TC_ISR.c **** *   None
 132:Generated_Source\PSoC5/UART_DMA_TIMER_TC_ISR.c **** *
 133:Generated_Source\PSoC5/UART_DMA_TIMER_TC_ISR.c **** *******************************************************************************/
 134:Generated_Source\PSoC5/UART_DMA_TIMER_TC_ISR.c **** void UART_DMA_TIMER_TC_ISR_Stop(void)
 135:Generated_Source\PSoC5/UART_DMA_TIMER_TC_ISR.c **** {
 136:Generated_Source\PSoC5/UART_DMA_TIMER_TC_ISR.c ****     /* Disable this interrupt. */
 137:Generated_Source\PSoC5/UART_DMA_TIMER_TC_ISR.c ****     UART_DMA_TIMER_TC_ISR_Disable();
 138:Generated_Source\PSoC5/UART_DMA_TIMER_TC_ISR.c **** 
 139:Generated_Source\PSoC5/UART_DMA_TIMER_TC_ISR.c ****     /* Set the ISR to point to the passive one. */
 140:Generated_Source\PSoC5/UART_DMA_TIMER_TC_ISR.c ****     UART_DMA_TIMER_TC_ISR_SetVector(&IntDefaultHandler);
 141:Generated_Source\PSoC5/UART_DMA_TIMER_TC_ISR.c **** }
 142:Generated_Source\PSoC5/UART_DMA_TIMER_TC_ISR.c **** 
 143:Generated_Source\PSoC5/UART_DMA_TIMER_TC_ISR.c **** 
 144:Generated_Source\PSoC5/UART_DMA_TIMER_TC_ISR.c **** /*******************************************************************************
ARM GAS  C:\Users\rene_\AppData\Local\Temp\cchmTSk6.s 			page 4


 145:Generated_Source\PSoC5/UART_DMA_TIMER_TC_ISR.c **** * Function Name: UART_DMA_TIMER_TC_ISR_Interrupt
 146:Generated_Source\PSoC5/UART_DMA_TIMER_TC_ISR.c **** ********************************************************************************
 147:Generated_Source\PSoC5/UART_DMA_TIMER_TC_ISR.c **** *
 148:Generated_Source\PSoC5/UART_DMA_TIMER_TC_ISR.c **** * Summary:
 149:Generated_Source\PSoC5/UART_DMA_TIMER_TC_ISR.c **** *   The default Interrupt Service Routine for UART_DMA_TIMER_TC_ISR.
 150:Generated_Source\PSoC5/UART_DMA_TIMER_TC_ISR.c **** *
 151:Generated_Source\PSoC5/UART_DMA_TIMER_TC_ISR.c **** *   Add custom code between the coments to keep the next version of this file
 152:Generated_Source\PSoC5/UART_DMA_TIMER_TC_ISR.c **** *   from over writting your code.
 153:Generated_Source\PSoC5/UART_DMA_TIMER_TC_ISR.c **** *
 154:Generated_Source\PSoC5/UART_DMA_TIMER_TC_ISR.c **** * Parameters:  
 155:Generated_Source\PSoC5/UART_DMA_TIMER_TC_ISR.c **** *
 156:Generated_Source\PSoC5/UART_DMA_TIMER_TC_ISR.c **** * Return:
 157:Generated_Source\PSoC5/UART_DMA_TIMER_TC_ISR.c **** *   None
 158:Generated_Source\PSoC5/UART_DMA_TIMER_TC_ISR.c **** *
 159:Generated_Source\PSoC5/UART_DMA_TIMER_TC_ISR.c **** *******************************************************************************/
 160:Generated_Source\PSoC5/UART_DMA_TIMER_TC_ISR.c **** CY_ISR(UART_DMA_TIMER_TC_ISR_Interrupt)
 161:Generated_Source\PSoC5/UART_DMA_TIMER_TC_ISR.c **** {
 162:Generated_Source\PSoC5/UART_DMA_TIMER_TC_ISR.c ****     #ifdef UART_DMA_TIMER_TC_ISR_INTERRUPT_INTERRUPT_CALLBACK
 163:Generated_Source\PSoC5/UART_DMA_TIMER_TC_ISR.c ****         UART_DMA_TIMER_TC_ISR_Interrupt_InterruptCallback();
 164:Generated_Source\PSoC5/UART_DMA_TIMER_TC_ISR.c ****     #endif /* UART_DMA_TIMER_TC_ISR_INTERRUPT_INTERRUPT_CALLBACK */ 
 165:Generated_Source\PSoC5/UART_DMA_TIMER_TC_ISR.c **** 
 166:Generated_Source\PSoC5/UART_DMA_TIMER_TC_ISR.c ****     /*  Place your Interrupt code here. */
 167:Generated_Source\PSoC5/UART_DMA_TIMER_TC_ISR.c ****     /***************** Clear Pending INterrupts *****************************/
 168:Generated_Source\PSoC5/UART_DMA_TIMER_TC_ISR.c ****     UART_DMA_TIMER_TC_ISR_ClearPending();
 169:Generated_Source\PSoC5/UART_DMA_TIMER_TC_ISR.c ****     /*********** Read Interruptsource to Bring Trigger Down *****************/
 170:Generated_Source\PSoC5/UART_DMA_TIMER_TC_ISR.c ****     UART_DMA_TIMER_ReadStatusRegister();
 171:Generated_Source\PSoC5/UART_DMA_TIMER_TC_ISR.c ****     /************** Do Interruptaction *****/
 172:Generated_Source\PSoC5/UART_DMA_TIMER_TC_ISR.c ****     /* `#START UART_DMA_TIMER_TC_ISR_Interrupt` */
 173:Generated_Source\PSoC5/UART_DMA_TIMER_TC_ISR.c ****     LED_on_Board_Write(!LED_on_Board_Read());
 174:Generated_Source\PSoC5/UART_DMA_TIMER_TC_ISR.c ****     /* `#END` */
 175:Generated_Source\PSoC5/UART_DMA_TIMER_TC_ISR.c **** }
 176:Generated_Source\PSoC5/UART_DMA_TIMER_TC_ISR.c **** 
 177:Generated_Source\PSoC5/UART_DMA_TIMER_TC_ISR.c **** 
 178:Generated_Source\PSoC5/UART_DMA_TIMER_TC_ISR.c **** /*******************************************************************************
 179:Generated_Source\PSoC5/UART_DMA_TIMER_TC_ISR.c **** * Function Name: UART_DMA_TIMER_TC_ISR_SetVector
 180:Generated_Source\PSoC5/UART_DMA_TIMER_TC_ISR.c **** ********************************************************************************
 181:Generated_Source\PSoC5/UART_DMA_TIMER_TC_ISR.c **** *
 182:Generated_Source\PSoC5/UART_DMA_TIMER_TC_ISR.c **** * Summary:
 183:Generated_Source\PSoC5/UART_DMA_TIMER_TC_ISR.c **** *   Change the ISR vector for the Interrupt. Note calling UART_DMA_TIMER_TC_ISR_Start
 184:Generated_Source\PSoC5/UART_DMA_TIMER_TC_ISR.c **** *   will override any effect this method would have had. To set the vector 
 185:Generated_Source\PSoC5/UART_DMA_TIMER_TC_ISR.c **** *   before the component has been started use UART_DMA_TIMER_TC_ISR_StartEx instead.
 186:Generated_Source\PSoC5/UART_DMA_TIMER_TC_ISR.c **** * 
 187:Generated_Source\PSoC5/UART_DMA_TIMER_TC_ISR.c **** *   When defining ISR functions, the CY_ISR and CY_ISR_PROTO macros should be 
 188:Generated_Source\PSoC5/UART_DMA_TIMER_TC_ISR.c **** *   used to provide consistent definition across compilers:
 189:Generated_Source\PSoC5/UART_DMA_TIMER_TC_ISR.c **** *
 190:Generated_Source\PSoC5/UART_DMA_TIMER_TC_ISR.c **** *   Function definition example:
 191:Generated_Source\PSoC5/UART_DMA_TIMER_TC_ISR.c **** *   CY_ISR(MyISR)
 192:Generated_Source\PSoC5/UART_DMA_TIMER_TC_ISR.c **** *   {
 193:Generated_Source\PSoC5/UART_DMA_TIMER_TC_ISR.c **** *   }
 194:Generated_Source\PSoC5/UART_DMA_TIMER_TC_ISR.c **** *
 195:Generated_Source\PSoC5/UART_DMA_TIMER_TC_ISR.c **** *   Function prototype example:
 196:Generated_Source\PSoC5/UART_DMA_TIMER_TC_ISR.c **** *     CY_ISR_PROTO(MyISR);
 197:Generated_Source\PSoC5/UART_DMA_TIMER_TC_ISR.c **** *
 198:Generated_Source\PSoC5/UART_DMA_TIMER_TC_ISR.c **** * Parameters:
 199:Generated_Source\PSoC5/UART_DMA_TIMER_TC_ISR.c **** *   address: Address of the ISR to set in the interrupt vector table.
 200:Generated_Source\PSoC5/UART_DMA_TIMER_TC_ISR.c **** *
 201:Generated_Source\PSoC5/UART_DMA_TIMER_TC_ISR.c **** * Return:
ARM GAS  C:\Users\rene_\AppData\Local\Temp\cchmTSk6.s 			page 5


 202:Generated_Source\PSoC5/UART_DMA_TIMER_TC_ISR.c **** *   None
 203:Generated_Source\PSoC5/UART_DMA_TIMER_TC_ISR.c **** *
 204:Generated_Source\PSoC5/UART_DMA_TIMER_TC_ISR.c **** *******************************************************************************/
 205:Generated_Source\PSoC5/UART_DMA_TIMER_TC_ISR.c **** void UART_DMA_TIMER_TC_ISR_SetVector(cyisraddress address)
 206:Generated_Source\PSoC5/UART_DMA_TIMER_TC_ISR.c **** {
  28              		.loc 1 206 0
  29              		.cfi_startproc
  30              		@ args = 0, pretend = 0, frame = 0
  31              		@ frame_needed = 0, uses_anonymous_args = 0
  32              		@ link register save eliminated.
  33              	.LVL0:
 207:Generated_Source\PSoC5/UART_DMA_TIMER_TC_ISR.c ****     cyisraddress * ramVectorTable;
 208:Generated_Source\PSoC5/UART_DMA_TIMER_TC_ISR.c **** 
 209:Generated_Source\PSoC5/UART_DMA_TIMER_TC_ISR.c ****     ramVectorTable = (cyisraddress *) *CYINT_VECT_TABLE;
  34              		.loc 1 209 0
  35 0000 024B     		ldr	r3, .L2
  36 0002 1B68     		ldr	r3, [r3]
  37              	.LVL1:
 210:Generated_Source\PSoC5/UART_DMA_TIMER_TC_ISR.c **** 
 211:Generated_Source\PSoC5/UART_DMA_TIMER_TC_ISR.c ****     ramVectorTable[CYINT_IRQ_BASE + (uint32)UART_DMA_TIMER_TC_ISR__INTC_NUMBER] = address;
  38              		.loc 1 211 0
  39 0004 C3F88400 		str	r0, [r3, #132]
  40 0008 7047     		bx	lr
  41              	.L3:
  42 000a 00BF     		.align	2
  43              	.L2:
  44 000c 08ED00E0 		.word	-536810232
  45              		.cfi_endproc
  46              	.LFE67:
  47              		.size	UART_DMA_TIMER_TC_ISR_SetVector, .-UART_DMA_TIMER_TC_ISR_SetVector
  48              		.section	.text.UART_DMA_TIMER_TC_ISR_GetVector,"ax",%progbits
  49              		.align	2
  50              		.global	UART_DMA_TIMER_TC_ISR_GetVector
  51              		.thumb
  52              		.thumb_func
  53              		.type	UART_DMA_TIMER_TC_ISR_GetVector, %function
  54              	UART_DMA_TIMER_TC_ISR_GetVector:
  55              	.LFB68:
 212:Generated_Source\PSoC5/UART_DMA_TIMER_TC_ISR.c **** }
 213:Generated_Source\PSoC5/UART_DMA_TIMER_TC_ISR.c **** 
 214:Generated_Source\PSoC5/UART_DMA_TIMER_TC_ISR.c **** 
 215:Generated_Source\PSoC5/UART_DMA_TIMER_TC_ISR.c **** /*******************************************************************************
 216:Generated_Source\PSoC5/UART_DMA_TIMER_TC_ISR.c **** * Function Name: UART_DMA_TIMER_TC_ISR_GetVector
 217:Generated_Source\PSoC5/UART_DMA_TIMER_TC_ISR.c **** ********************************************************************************
 218:Generated_Source\PSoC5/UART_DMA_TIMER_TC_ISR.c **** *
 219:Generated_Source\PSoC5/UART_DMA_TIMER_TC_ISR.c **** * Summary:
 220:Generated_Source\PSoC5/UART_DMA_TIMER_TC_ISR.c **** *   Gets the "address" of the current ISR vector for the Interrupt.
 221:Generated_Source\PSoC5/UART_DMA_TIMER_TC_ISR.c **** *
 222:Generated_Source\PSoC5/UART_DMA_TIMER_TC_ISR.c **** * Parameters:
 223:Generated_Source\PSoC5/UART_DMA_TIMER_TC_ISR.c **** *   None
 224:Generated_Source\PSoC5/UART_DMA_TIMER_TC_ISR.c **** *
 225:Generated_Source\PSoC5/UART_DMA_TIMER_TC_ISR.c **** * Return:
 226:Generated_Source\PSoC5/UART_DMA_TIMER_TC_ISR.c **** *   Address of the ISR in the interrupt vector table.
 227:Generated_Source\PSoC5/UART_DMA_TIMER_TC_ISR.c **** *
 228:Generated_Source\PSoC5/UART_DMA_TIMER_TC_ISR.c **** *******************************************************************************/
 229:Generated_Source\PSoC5/UART_DMA_TIMER_TC_ISR.c **** cyisraddress UART_DMA_TIMER_TC_ISR_GetVector(void)
 230:Generated_Source\PSoC5/UART_DMA_TIMER_TC_ISR.c **** {
ARM GAS  C:\Users\rene_\AppData\Local\Temp\cchmTSk6.s 			page 6


  56              		.loc 1 230 0
  57              		.cfi_startproc
  58              		@ args = 0, pretend = 0, frame = 0
  59              		@ frame_needed = 0, uses_anonymous_args = 0
  60              		@ link register save eliminated.
 231:Generated_Source\PSoC5/UART_DMA_TIMER_TC_ISR.c ****     cyisraddress * ramVectorTable;
 232:Generated_Source\PSoC5/UART_DMA_TIMER_TC_ISR.c **** 
 233:Generated_Source\PSoC5/UART_DMA_TIMER_TC_ISR.c ****     ramVectorTable = (cyisraddress *) *CYINT_VECT_TABLE;
  61              		.loc 1 233 0
  62 0000 024B     		ldr	r3, .L5
  63 0002 1B68     		ldr	r3, [r3]
  64              	.LVL2:
 234:Generated_Source\PSoC5/UART_DMA_TIMER_TC_ISR.c **** 
 235:Generated_Source\PSoC5/UART_DMA_TIMER_TC_ISR.c ****     return ramVectorTable[CYINT_IRQ_BASE + (uint32)UART_DMA_TIMER_TC_ISR__INTC_NUMBER];
 236:Generated_Source\PSoC5/UART_DMA_TIMER_TC_ISR.c **** }
  65              		.loc 1 236 0
  66 0004 D3F88400 		ldr	r0, [r3, #132]
  67 0008 7047     		bx	lr
  68              	.L6:
  69 000a 00BF     		.align	2
  70              	.L5:
  71 000c 08ED00E0 		.word	-536810232
  72              		.cfi_endproc
  73              	.LFE68:
  74              		.size	UART_DMA_TIMER_TC_ISR_GetVector, .-UART_DMA_TIMER_TC_ISR_GetVector
  75              		.section	.text.UART_DMA_TIMER_TC_ISR_SetPriority,"ax",%progbits
  76              		.align	2
  77              		.global	UART_DMA_TIMER_TC_ISR_SetPriority
  78              		.thumb
  79              		.thumb_func
  80              		.type	UART_DMA_TIMER_TC_ISR_SetPriority, %function
  81              	UART_DMA_TIMER_TC_ISR_SetPriority:
  82              	.LFB69:
 237:Generated_Source\PSoC5/UART_DMA_TIMER_TC_ISR.c **** 
 238:Generated_Source\PSoC5/UART_DMA_TIMER_TC_ISR.c **** 
 239:Generated_Source\PSoC5/UART_DMA_TIMER_TC_ISR.c **** /*******************************************************************************
 240:Generated_Source\PSoC5/UART_DMA_TIMER_TC_ISR.c **** * Function Name: UART_DMA_TIMER_TC_ISR_SetPriority
 241:Generated_Source\PSoC5/UART_DMA_TIMER_TC_ISR.c **** ********************************************************************************
 242:Generated_Source\PSoC5/UART_DMA_TIMER_TC_ISR.c **** *
 243:Generated_Source\PSoC5/UART_DMA_TIMER_TC_ISR.c **** * Summary:
 244:Generated_Source\PSoC5/UART_DMA_TIMER_TC_ISR.c **** *   Sets the Priority of the Interrupt. 
 245:Generated_Source\PSoC5/UART_DMA_TIMER_TC_ISR.c **** *
 246:Generated_Source\PSoC5/UART_DMA_TIMER_TC_ISR.c **** *   Note calling UART_DMA_TIMER_TC_ISR_Start or UART_DMA_TIMER_TC_ISR_StartEx will 
 247:Generated_Source\PSoC5/UART_DMA_TIMER_TC_ISR.c **** *   override any effect this API would have had. This API should only be called
 248:Generated_Source\PSoC5/UART_DMA_TIMER_TC_ISR.c **** *   after UART_DMA_TIMER_TC_ISR_Start or UART_DMA_TIMER_TC_ISR_StartEx has been called. 
 249:Generated_Source\PSoC5/UART_DMA_TIMER_TC_ISR.c **** *   To set the initial priority for the component, use the Design-Wide Resources
 250:Generated_Source\PSoC5/UART_DMA_TIMER_TC_ISR.c **** *   Interrupt Editor.
 251:Generated_Source\PSoC5/UART_DMA_TIMER_TC_ISR.c **** *
 252:Generated_Source\PSoC5/UART_DMA_TIMER_TC_ISR.c **** *   Note This API has no effect on Non-maskable interrupt NMI).
 253:Generated_Source\PSoC5/UART_DMA_TIMER_TC_ISR.c **** *
 254:Generated_Source\PSoC5/UART_DMA_TIMER_TC_ISR.c **** * Parameters:
 255:Generated_Source\PSoC5/UART_DMA_TIMER_TC_ISR.c **** *   priority: Priority of the interrupt, 0 being the highest priority
 256:Generated_Source\PSoC5/UART_DMA_TIMER_TC_ISR.c **** *             PSoC 3 and PSoC 5LP: Priority is from 0 to 7.
 257:Generated_Source\PSoC5/UART_DMA_TIMER_TC_ISR.c **** *             PSoC 4: Priority is from 0 to 3.
 258:Generated_Source\PSoC5/UART_DMA_TIMER_TC_ISR.c **** *
 259:Generated_Source\PSoC5/UART_DMA_TIMER_TC_ISR.c **** * Return:
 260:Generated_Source\PSoC5/UART_DMA_TIMER_TC_ISR.c **** *   None
ARM GAS  C:\Users\rene_\AppData\Local\Temp\cchmTSk6.s 			page 7


 261:Generated_Source\PSoC5/UART_DMA_TIMER_TC_ISR.c **** *
 262:Generated_Source\PSoC5/UART_DMA_TIMER_TC_ISR.c **** *******************************************************************************/
 263:Generated_Source\PSoC5/UART_DMA_TIMER_TC_ISR.c **** void UART_DMA_TIMER_TC_ISR_SetPriority(uint8 priority)
 264:Generated_Source\PSoC5/UART_DMA_TIMER_TC_ISR.c **** {
  83              		.loc 1 264 0
  84              		.cfi_startproc
  85              		@ args = 0, pretend = 0, frame = 0
  86              		@ frame_needed = 0, uses_anonymous_args = 0
  87              		@ link register save eliminated.
  88              	.LVL3:
 265:Generated_Source\PSoC5/UART_DMA_TIMER_TC_ISR.c ****     *UART_DMA_TIMER_TC_ISR_INTC_PRIOR = priority << 5;
  89              		.loc 1 265 0
  90 0000 4001     		lsls	r0, r0, #5
  91              	.LVL4:
  92 0002 C0B2     		uxtb	r0, r0
  93 0004 014B     		ldr	r3, .L8
  94 0006 1870     		strb	r0, [r3]
  95 0008 7047     		bx	lr
  96              	.L9:
  97 000a 00BF     		.align	2
  98              	.L8:
  99 000c 11E400E0 		.word	-536812527
 100              		.cfi_endproc
 101              	.LFE69:
 102              		.size	UART_DMA_TIMER_TC_ISR_SetPriority, .-UART_DMA_TIMER_TC_ISR_SetPriority
 103              		.section	.text.UART_DMA_TIMER_TC_ISR_GetPriority,"ax",%progbits
 104              		.align	2
 105              		.global	UART_DMA_TIMER_TC_ISR_GetPriority
 106              		.thumb
 107              		.thumb_func
 108              		.type	UART_DMA_TIMER_TC_ISR_GetPriority, %function
 109              	UART_DMA_TIMER_TC_ISR_GetPriority:
 110              	.LFB70:
 266:Generated_Source\PSoC5/UART_DMA_TIMER_TC_ISR.c **** }
 267:Generated_Source\PSoC5/UART_DMA_TIMER_TC_ISR.c **** 
 268:Generated_Source\PSoC5/UART_DMA_TIMER_TC_ISR.c **** 
 269:Generated_Source\PSoC5/UART_DMA_TIMER_TC_ISR.c **** /*******************************************************************************
 270:Generated_Source\PSoC5/UART_DMA_TIMER_TC_ISR.c **** * Function Name: UART_DMA_TIMER_TC_ISR_GetPriority
 271:Generated_Source\PSoC5/UART_DMA_TIMER_TC_ISR.c **** ********************************************************************************
 272:Generated_Source\PSoC5/UART_DMA_TIMER_TC_ISR.c **** *
 273:Generated_Source\PSoC5/UART_DMA_TIMER_TC_ISR.c **** * Summary:
 274:Generated_Source\PSoC5/UART_DMA_TIMER_TC_ISR.c **** *   Gets the Priority of the Interrupt.
 275:Generated_Source\PSoC5/UART_DMA_TIMER_TC_ISR.c **** *
 276:Generated_Source\PSoC5/UART_DMA_TIMER_TC_ISR.c **** * Parameters:
 277:Generated_Source\PSoC5/UART_DMA_TIMER_TC_ISR.c **** *   None
 278:Generated_Source\PSoC5/UART_DMA_TIMER_TC_ISR.c **** *
 279:Generated_Source\PSoC5/UART_DMA_TIMER_TC_ISR.c **** * Return:
 280:Generated_Source\PSoC5/UART_DMA_TIMER_TC_ISR.c **** *   Priority of the interrupt, 0 being the highest priority
 281:Generated_Source\PSoC5/UART_DMA_TIMER_TC_ISR.c **** *    PSoC 3 and PSoC 5LP: Priority is from 0 to 7.
 282:Generated_Source\PSoC5/UART_DMA_TIMER_TC_ISR.c **** *    PSoC 4: Priority is from 0 to 3.
 283:Generated_Source\PSoC5/UART_DMA_TIMER_TC_ISR.c **** *
 284:Generated_Source\PSoC5/UART_DMA_TIMER_TC_ISR.c **** *******************************************************************************/
 285:Generated_Source\PSoC5/UART_DMA_TIMER_TC_ISR.c **** uint8 UART_DMA_TIMER_TC_ISR_GetPriority(void)
 286:Generated_Source\PSoC5/UART_DMA_TIMER_TC_ISR.c **** {
 111              		.loc 1 286 0
 112              		.cfi_startproc
 113              		@ args = 0, pretend = 0, frame = 0
ARM GAS  C:\Users\rene_\AppData\Local\Temp\cchmTSk6.s 			page 8


 114              		@ frame_needed = 0, uses_anonymous_args = 0
 115              		@ link register save eliminated.
 287:Generated_Source\PSoC5/UART_DMA_TIMER_TC_ISR.c ****     uint8 priority;
 288:Generated_Source\PSoC5/UART_DMA_TIMER_TC_ISR.c **** 
 289:Generated_Source\PSoC5/UART_DMA_TIMER_TC_ISR.c **** 
 290:Generated_Source\PSoC5/UART_DMA_TIMER_TC_ISR.c ****     priority = *UART_DMA_TIMER_TC_ISR_INTC_PRIOR >> 5;
 116              		.loc 1 290 0
 117 0000 014B     		ldr	r3, .L11
 118 0002 1878     		ldrb	r0, [r3]	@ zero_extendqisi2
 119              	.LVL5:
 291:Generated_Source\PSoC5/UART_DMA_TIMER_TC_ISR.c **** 
 292:Generated_Source\PSoC5/UART_DMA_TIMER_TC_ISR.c ****     return priority;
 293:Generated_Source\PSoC5/UART_DMA_TIMER_TC_ISR.c **** }
 120              		.loc 1 293 0
 121 0004 4009     		lsrs	r0, r0, #5
 122              	.LVL6:
 123 0006 7047     		bx	lr
 124              	.L12:
 125              		.align	2
 126              	.L11:
 127 0008 11E400E0 		.word	-536812527
 128              		.cfi_endproc
 129              	.LFE70:
 130              		.size	UART_DMA_TIMER_TC_ISR_GetPriority, .-UART_DMA_TIMER_TC_ISR_GetPriority
 131              		.section	.text.UART_DMA_TIMER_TC_ISR_Enable,"ax",%progbits
 132              		.align	2
 133              		.global	UART_DMA_TIMER_TC_ISR_Enable
 134              		.thumb
 135              		.thumb_func
 136              		.type	UART_DMA_TIMER_TC_ISR_Enable, %function
 137              	UART_DMA_TIMER_TC_ISR_Enable:
 138              	.LFB71:
 294:Generated_Source\PSoC5/UART_DMA_TIMER_TC_ISR.c **** 
 295:Generated_Source\PSoC5/UART_DMA_TIMER_TC_ISR.c **** 
 296:Generated_Source\PSoC5/UART_DMA_TIMER_TC_ISR.c **** /*******************************************************************************
 297:Generated_Source\PSoC5/UART_DMA_TIMER_TC_ISR.c **** * Function Name: UART_DMA_TIMER_TC_ISR_Enable
 298:Generated_Source\PSoC5/UART_DMA_TIMER_TC_ISR.c **** ********************************************************************************
 299:Generated_Source\PSoC5/UART_DMA_TIMER_TC_ISR.c **** *
 300:Generated_Source\PSoC5/UART_DMA_TIMER_TC_ISR.c **** * Summary:
 301:Generated_Source\PSoC5/UART_DMA_TIMER_TC_ISR.c **** *   Enables the interrupt to the interrupt controller. Do not call this function
 302:Generated_Source\PSoC5/UART_DMA_TIMER_TC_ISR.c **** *   unless ISR_Start() has been called or the functionality of the ISR_Start() 
 303:Generated_Source\PSoC5/UART_DMA_TIMER_TC_ISR.c **** *   function, which sets the vector and the priority, has been called.
 304:Generated_Source\PSoC5/UART_DMA_TIMER_TC_ISR.c **** *
 305:Generated_Source\PSoC5/UART_DMA_TIMER_TC_ISR.c **** * Parameters:
 306:Generated_Source\PSoC5/UART_DMA_TIMER_TC_ISR.c **** *   None
 307:Generated_Source\PSoC5/UART_DMA_TIMER_TC_ISR.c **** *
 308:Generated_Source\PSoC5/UART_DMA_TIMER_TC_ISR.c **** * Return:
 309:Generated_Source\PSoC5/UART_DMA_TIMER_TC_ISR.c **** *   None
 310:Generated_Source\PSoC5/UART_DMA_TIMER_TC_ISR.c **** *
 311:Generated_Source\PSoC5/UART_DMA_TIMER_TC_ISR.c **** *******************************************************************************/
 312:Generated_Source\PSoC5/UART_DMA_TIMER_TC_ISR.c **** void UART_DMA_TIMER_TC_ISR_Enable(void)
 313:Generated_Source\PSoC5/UART_DMA_TIMER_TC_ISR.c **** {
 139              		.loc 1 313 0
 140              		.cfi_startproc
 141              		@ args = 0, pretend = 0, frame = 0
 142              		@ frame_needed = 0, uses_anonymous_args = 0
 143              		@ link register save eliminated.
ARM GAS  C:\Users\rene_\AppData\Local\Temp\cchmTSk6.s 			page 9


 314:Generated_Source\PSoC5/UART_DMA_TIMER_TC_ISR.c ****     /* Enable the general interrupt. */
 315:Generated_Source\PSoC5/UART_DMA_TIMER_TC_ISR.c ****     *UART_DMA_TIMER_TC_ISR_INTC_SET_EN = UART_DMA_TIMER_TC_ISR__INTC_MASK;
 144              		.loc 1 315 0
 145 0000 4FF40032 		mov	r2, #131072
 146 0004 014B     		ldr	r3, .L14
 147 0006 1A60     		str	r2, [r3]
 148 0008 7047     		bx	lr
 149              	.L15:
 150 000a 00BF     		.align	2
 151              	.L14:
 152 000c 00E100E0 		.word	-536813312
 153              		.cfi_endproc
 154              	.LFE71:
 155              		.size	UART_DMA_TIMER_TC_ISR_Enable, .-UART_DMA_TIMER_TC_ISR_Enable
 156              		.section	.text.UART_DMA_TIMER_TC_ISR_GetState,"ax",%progbits
 157              		.align	2
 158              		.global	UART_DMA_TIMER_TC_ISR_GetState
 159              		.thumb
 160              		.thumb_func
 161              		.type	UART_DMA_TIMER_TC_ISR_GetState, %function
 162              	UART_DMA_TIMER_TC_ISR_GetState:
 163              	.LFB72:
 316:Generated_Source\PSoC5/UART_DMA_TIMER_TC_ISR.c **** }
 317:Generated_Source\PSoC5/UART_DMA_TIMER_TC_ISR.c **** 
 318:Generated_Source\PSoC5/UART_DMA_TIMER_TC_ISR.c **** 
 319:Generated_Source\PSoC5/UART_DMA_TIMER_TC_ISR.c **** /*******************************************************************************
 320:Generated_Source\PSoC5/UART_DMA_TIMER_TC_ISR.c **** * Function Name: UART_DMA_TIMER_TC_ISR_GetState
 321:Generated_Source\PSoC5/UART_DMA_TIMER_TC_ISR.c **** ********************************************************************************
 322:Generated_Source\PSoC5/UART_DMA_TIMER_TC_ISR.c **** *
 323:Generated_Source\PSoC5/UART_DMA_TIMER_TC_ISR.c **** * Summary:
 324:Generated_Source\PSoC5/UART_DMA_TIMER_TC_ISR.c **** *   Gets the state (enabled, disabled) of the Interrupt.
 325:Generated_Source\PSoC5/UART_DMA_TIMER_TC_ISR.c **** *
 326:Generated_Source\PSoC5/UART_DMA_TIMER_TC_ISR.c **** * Parameters:
 327:Generated_Source\PSoC5/UART_DMA_TIMER_TC_ISR.c **** *   None
 328:Generated_Source\PSoC5/UART_DMA_TIMER_TC_ISR.c **** *
 329:Generated_Source\PSoC5/UART_DMA_TIMER_TC_ISR.c **** * Return:
 330:Generated_Source\PSoC5/UART_DMA_TIMER_TC_ISR.c **** *   1 if enabled, 0 if disabled.
 331:Generated_Source\PSoC5/UART_DMA_TIMER_TC_ISR.c **** *
 332:Generated_Source\PSoC5/UART_DMA_TIMER_TC_ISR.c **** *******************************************************************************/
 333:Generated_Source\PSoC5/UART_DMA_TIMER_TC_ISR.c **** uint8 UART_DMA_TIMER_TC_ISR_GetState(void)
 334:Generated_Source\PSoC5/UART_DMA_TIMER_TC_ISR.c **** {
 164              		.loc 1 334 0
 165              		.cfi_startproc
 166              		@ args = 0, pretend = 0, frame = 0
 167              		@ frame_needed = 0, uses_anonymous_args = 0
 168              		@ link register save eliminated.
 335:Generated_Source\PSoC5/UART_DMA_TIMER_TC_ISR.c ****     /* Get the state of the general interrupt. */
 336:Generated_Source\PSoC5/UART_DMA_TIMER_TC_ISR.c ****     return ((*UART_DMA_TIMER_TC_ISR_INTC_SET_EN & (uint32)UART_DMA_TIMER_TC_ISR__INTC_MASK) != 0u) 
 169              		.loc 1 336 0
 170 0000 044B     		ldr	r3, .L19
 171 0002 1B68     		ldr	r3, [r3]
 172 0004 13F4003F 		tst	r3, #131072
 173 0008 01D0     		beq	.L18
 174 000a 0120     		movs	r0, #1
 175 000c 7047     		bx	lr
 176              	.L18:
 177 000e 0020     		movs	r0, #0
ARM GAS  C:\Users\rene_\AppData\Local\Temp\cchmTSk6.s 			page 10


 337:Generated_Source\PSoC5/UART_DMA_TIMER_TC_ISR.c **** }
 178              		.loc 1 337 0
 179 0010 7047     		bx	lr
 180              	.L20:
 181 0012 00BF     		.align	2
 182              	.L19:
 183 0014 00E100E0 		.word	-536813312
 184              		.cfi_endproc
 185              	.LFE72:
 186              		.size	UART_DMA_TIMER_TC_ISR_GetState, .-UART_DMA_TIMER_TC_ISR_GetState
 187              		.section	.text.UART_DMA_TIMER_TC_ISR_Disable,"ax",%progbits
 188              		.align	2
 189              		.global	UART_DMA_TIMER_TC_ISR_Disable
 190              		.thumb
 191              		.thumb_func
 192              		.type	UART_DMA_TIMER_TC_ISR_Disable, %function
 193              	UART_DMA_TIMER_TC_ISR_Disable:
 194              	.LFB73:
 338:Generated_Source\PSoC5/UART_DMA_TIMER_TC_ISR.c **** 
 339:Generated_Source\PSoC5/UART_DMA_TIMER_TC_ISR.c **** 
 340:Generated_Source\PSoC5/UART_DMA_TIMER_TC_ISR.c **** /*******************************************************************************
 341:Generated_Source\PSoC5/UART_DMA_TIMER_TC_ISR.c **** * Function Name: UART_DMA_TIMER_TC_ISR_Disable
 342:Generated_Source\PSoC5/UART_DMA_TIMER_TC_ISR.c **** ********************************************************************************
 343:Generated_Source\PSoC5/UART_DMA_TIMER_TC_ISR.c **** *
 344:Generated_Source\PSoC5/UART_DMA_TIMER_TC_ISR.c **** * Summary:
 345:Generated_Source\PSoC5/UART_DMA_TIMER_TC_ISR.c **** *   Disables the Interrupt in the interrupt controller.
 346:Generated_Source\PSoC5/UART_DMA_TIMER_TC_ISR.c **** *
 347:Generated_Source\PSoC5/UART_DMA_TIMER_TC_ISR.c **** * Parameters:
 348:Generated_Source\PSoC5/UART_DMA_TIMER_TC_ISR.c **** *   None
 349:Generated_Source\PSoC5/UART_DMA_TIMER_TC_ISR.c **** *
 350:Generated_Source\PSoC5/UART_DMA_TIMER_TC_ISR.c **** * Return:
 351:Generated_Source\PSoC5/UART_DMA_TIMER_TC_ISR.c **** *   None
 352:Generated_Source\PSoC5/UART_DMA_TIMER_TC_ISR.c **** *
 353:Generated_Source\PSoC5/UART_DMA_TIMER_TC_ISR.c **** *******************************************************************************/
 354:Generated_Source\PSoC5/UART_DMA_TIMER_TC_ISR.c **** void UART_DMA_TIMER_TC_ISR_Disable(void)
 355:Generated_Source\PSoC5/UART_DMA_TIMER_TC_ISR.c **** {
 195              		.loc 1 355 0
 196              		.cfi_startproc
 197              		@ args = 0, pretend = 0, frame = 0
 198              		@ frame_needed = 0, uses_anonymous_args = 0
 199              		@ link register save eliminated.
 356:Generated_Source\PSoC5/UART_DMA_TIMER_TC_ISR.c ****     /* Disable the general interrupt. */
 357:Generated_Source\PSoC5/UART_DMA_TIMER_TC_ISR.c ****     *UART_DMA_TIMER_TC_ISR_INTC_CLR_EN = UART_DMA_TIMER_TC_ISR__INTC_MASK;
 200              		.loc 1 357 0
 201 0000 4FF40032 		mov	r2, #131072
 202 0004 014B     		ldr	r3, .L22
 203 0006 1A60     		str	r2, [r3]
 204 0008 7047     		bx	lr
 205              	.L23:
 206 000a 00BF     		.align	2
 207              	.L22:
 208 000c 80E100E0 		.word	-536813184
 209              		.cfi_endproc
 210              	.LFE73:
 211              		.size	UART_DMA_TIMER_TC_ISR_Disable, .-UART_DMA_TIMER_TC_ISR_Disable
 212              		.section	.text.UART_DMA_TIMER_TC_ISR_Start,"ax",%progbits
 213              		.align	2
ARM GAS  C:\Users\rene_\AppData\Local\Temp\cchmTSk6.s 			page 11


 214              		.global	UART_DMA_TIMER_TC_ISR_Start
 215              		.thumb
 216              		.thumb_func
 217              		.type	UART_DMA_TIMER_TC_ISR_Start, %function
 218              	UART_DMA_TIMER_TC_ISR_Start:
 219              	.LFB63:
  62:Generated_Source\PSoC5/UART_DMA_TIMER_TC_ISR.c ****     /* For all we know the interrupt is active. */
 220              		.loc 1 62 0
 221              		.cfi_startproc
 222              		@ args = 0, pretend = 0, frame = 0
 223              		@ frame_needed = 0, uses_anonymous_args = 0
 224 0000 08B5     		push	{r3, lr}
 225              		.cfi_def_cfa_offset 8
 226              		.cfi_offset 3, -8
 227              		.cfi_offset 14, -4
  64:Generated_Source\PSoC5/UART_DMA_TIMER_TC_ISR.c **** 
 228              		.loc 1 64 0
 229 0002 FFF7FEFF 		bl	UART_DMA_TIMER_TC_ISR_Disable
 230              	.LVL7:
  67:Generated_Source\PSoC5/UART_DMA_TIMER_TC_ISR.c **** 
 231              		.loc 1 67 0
 232 0006 0448     		ldr	r0, .L26
 233 0008 FFF7FEFF 		bl	UART_DMA_TIMER_TC_ISR_SetVector
 234              	.LVL8:
  70:Generated_Source\PSoC5/UART_DMA_TIMER_TC_ISR.c **** 
 235              		.loc 1 70 0
 236 000c 0720     		movs	r0, #7
 237 000e FFF7FEFF 		bl	UART_DMA_TIMER_TC_ISR_SetPriority
 238              	.LVL9:
  73:Generated_Source\PSoC5/UART_DMA_TIMER_TC_ISR.c **** }
 239              		.loc 1 73 0
 240 0012 FFF7FEFF 		bl	UART_DMA_TIMER_TC_ISR_Enable
 241              	.LVL10:
 242 0016 08BD     		pop	{r3, pc}
 243              	.L27:
 244              		.align	2
 245              	.L26:
 246 0018 00000000 		.word	UART_DMA_TIMER_TC_ISR_Interrupt
 247              		.cfi_endproc
 248              	.LFE63:
 249              		.size	UART_DMA_TIMER_TC_ISR_Start, .-UART_DMA_TIMER_TC_ISR_Start
 250              		.section	.text.UART_DMA_TIMER_TC_ISR_StartEx,"ax",%progbits
 251              		.align	2
 252              		.global	UART_DMA_TIMER_TC_ISR_StartEx
 253              		.thumb
 254              		.thumb_func
 255              		.type	UART_DMA_TIMER_TC_ISR_StartEx, %function
 256              	UART_DMA_TIMER_TC_ISR_StartEx:
 257              	.LFB64:
 105:Generated_Source\PSoC5/UART_DMA_TIMER_TC_ISR.c ****     /* For all we know the interrupt is active. */
 258              		.loc 1 105 0
 259              		.cfi_startproc
 260              		@ args = 0, pretend = 0, frame = 0
 261              		@ frame_needed = 0, uses_anonymous_args = 0
 262              	.LVL11:
 263 0000 10B5     		push	{r4, lr}
 264              		.cfi_def_cfa_offset 8
ARM GAS  C:\Users\rene_\AppData\Local\Temp\cchmTSk6.s 			page 12


 265              		.cfi_offset 4, -8
 266              		.cfi_offset 14, -4
 267 0002 0446     		mov	r4, r0
 107:Generated_Source\PSoC5/UART_DMA_TIMER_TC_ISR.c **** 
 268              		.loc 1 107 0
 269 0004 FFF7FEFF 		bl	UART_DMA_TIMER_TC_ISR_Disable
 270              	.LVL12:
 110:Generated_Source\PSoC5/UART_DMA_TIMER_TC_ISR.c **** 
 271              		.loc 1 110 0
 272 0008 2046     		mov	r0, r4
 273 000a FFF7FEFF 		bl	UART_DMA_TIMER_TC_ISR_SetVector
 274              	.LVL13:
 113:Generated_Source\PSoC5/UART_DMA_TIMER_TC_ISR.c **** 
 275              		.loc 1 113 0
 276 000e 0720     		movs	r0, #7
 277 0010 FFF7FEFF 		bl	UART_DMA_TIMER_TC_ISR_SetPriority
 278              	.LVL14:
 116:Generated_Source\PSoC5/UART_DMA_TIMER_TC_ISR.c **** }
 279              		.loc 1 116 0
 280 0014 FFF7FEFF 		bl	UART_DMA_TIMER_TC_ISR_Enable
 281              	.LVL15:
 282 0018 10BD     		pop	{r4, pc}
 283              		.cfi_endproc
 284              	.LFE64:
 285              		.size	UART_DMA_TIMER_TC_ISR_StartEx, .-UART_DMA_TIMER_TC_ISR_StartEx
 286 001a 00BF     		.section	.text.UART_DMA_TIMER_TC_ISR_Stop,"ax",%progbits
 287              		.align	2
 288              		.global	UART_DMA_TIMER_TC_ISR_Stop
 289              		.thumb
 290              		.thumb_func
 291              		.type	UART_DMA_TIMER_TC_ISR_Stop, %function
 292              	UART_DMA_TIMER_TC_ISR_Stop:
 293              	.LFB65:
 135:Generated_Source\PSoC5/UART_DMA_TIMER_TC_ISR.c ****     /* Disable this interrupt. */
 294              		.loc 1 135 0
 295              		.cfi_startproc
 296              		@ args = 0, pretend = 0, frame = 0
 297              		@ frame_needed = 0, uses_anonymous_args = 0
 298 0000 08B5     		push	{r3, lr}
 299              		.cfi_def_cfa_offset 8
 300              		.cfi_offset 3, -8
 301              		.cfi_offset 14, -4
 137:Generated_Source\PSoC5/UART_DMA_TIMER_TC_ISR.c **** 
 302              		.loc 1 137 0
 303 0002 FFF7FEFF 		bl	UART_DMA_TIMER_TC_ISR_Disable
 304              	.LVL16:
 140:Generated_Source\PSoC5/UART_DMA_TIMER_TC_ISR.c **** }
 305              		.loc 1 140 0
 306 0006 0248     		ldr	r0, .L32
 307 0008 FFF7FEFF 		bl	UART_DMA_TIMER_TC_ISR_SetVector
 308              	.LVL17:
 309 000c 08BD     		pop	{r3, pc}
 310              	.L33:
 311 000e 00BF     		.align	2
 312              	.L32:
 313 0010 00000000 		.word	IntDefaultHandler
 314              		.cfi_endproc
ARM GAS  C:\Users\rene_\AppData\Local\Temp\cchmTSk6.s 			page 13


 315              	.LFE65:
 316              		.size	UART_DMA_TIMER_TC_ISR_Stop, .-UART_DMA_TIMER_TC_ISR_Stop
 317              		.section	.text.UART_DMA_TIMER_TC_ISR_SetPending,"ax",%progbits
 318              		.align	2
 319              		.global	UART_DMA_TIMER_TC_ISR_SetPending
 320              		.thumb
 321              		.thumb_func
 322              		.type	UART_DMA_TIMER_TC_ISR_SetPending, %function
 323              	UART_DMA_TIMER_TC_ISR_SetPending:
 324              	.LFB74:
 358:Generated_Source\PSoC5/UART_DMA_TIMER_TC_ISR.c **** }
 359:Generated_Source\PSoC5/UART_DMA_TIMER_TC_ISR.c **** 
 360:Generated_Source\PSoC5/UART_DMA_TIMER_TC_ISR.c **** 
 361:Generated_Source\PSoC5/UART_DMA_TIMER_TC_ISR.c **** /*******************************************************************************
 362:Generated_Source\PSoC5/UART_DMA_TIMER_TC_ISR.c **** * Function Name: UART_DMA_TIMER_TC_ISR_SetPending
 363:Generated_Source\PSoC5/UART_DMA_TIMER_TC_ISR.c **** ********************************************************************************
 364:Generated_Source\PSoC5/UART_DMA_TIMER_TC_ISR.c **** *
 365:Generated_Source\PSoC5/UART_DMA_TIMER_TC_ISR.c **** * Summary:
 366:Generated_Source\PSoC5/UART_DMA_TIMER_TC_ISR.c **** *   Causes the Interrupt to enter the pending state, a software method of
 367:Generated_Source\PSoC5/UART_DMA_TIMER_TC_ISR.c **** *   generating the interrupt.
 368:Generated_Source\PSoC5/UART_DMA_TIMER_TC_ISR.c **** *
 369:Generated_Source\PSoC5/UART_DMA_TIMER_TC_ISR.c **** * Parameters:
 370:Generated_Source\PSoC5/UART_DMA_TIMER_TC_ISR.c **** *   None
 371:Generated_Source\PSoC5/UART_DMA_TIMER_TC_ISR.c **** *
 372:Generated_Source\PSoC5/UART_DMA_TIMER_TC_ISR.c **** * Return:
 373:Generated_Source\PSoC5/UART_DMA_TIMER_TC_ISR.c **** *   None
 374:Generated_Source\PSoC5/UART_DMA_TIMER_TC_ISR.c **** *
 375:Generated_Source\PSoC5/UART_DMA_TIMER_TC_ISR.c **** * Side Effects:
 376:Generated_Source\PSoC5/UART_DMA_TIMER_TC_ISR.c **** *   If interrupts are enabled and the interrupt is set up properly, the ISR is
 377:Generated_Source\PSoC5/UART_DMA_TIMER_TC_ISR.c **** *   entered (depending on the priority of this interrupt and other pending 
 378:Generated_Source\PSoC5/UART_DMA_TIMER_TC_ISR.c **** *   interrupts).
 379:Generated_Source\PSoC5/UART_DMA_TIMER_TC_ISR.c **** *
 380:Generated_Source\PSoC5/UART_DMA_TIMER_TC_ISR.c **** *******************************************************************************/
 381:Generated_Source\PSoC5/UART_DMA_TIMER_TC_ISR.c **** void UART_DMA_TIMER_TC_ISR_SetPending(void)
 382:Generated_Source\PSoC5/UART_DMA_TIMER_TC_ISR.c **** {
 325              		.loc 1 382 0
 326              		.cfi_startproc
 327              		@ args = 0, pretend = 0, frame = 0
 328              		@ frame_needed = 0, uses_anonymous_args = 0
 329              		@ link register save eliminated.
 383:Generated_Source\PSoC5/UART_DMA_TIMER_TC_ISR.c ****     *UART_DMA_TIMER_TC_ISR_INTC_SET_PD = UART_DMA_TIMER_TC_ISR__INTC_MASK;
 330              		.loc 1 383 0
 331 0000 4FF40032 		mov	r2, #131072
 332 0004 014B     		ldr	r3, .L35
 333 0006 1A60     		str	r2, [r3]
 334 0008 7047     		bx	lr
 335              	.L36:
 336 000a 00BF     		.align	2
 337              	.L35:
 338 000c 00E200E0 		.word	-536813056
 339              		.cfi_endproc
 340              	.LFE74:
 341              		.size	UART_DMA_TIMER_TC_ISR_SetPending, .-UART_DMA_TIMER_TC_ISR_SetPending
 342              		.section	.text.UART_DMA_TIMER_TC_ISR_ClearPending,"ax",%progbits
 343              		.align	2
 344              		.global	UART_DMA_TIMER_TC_ISR_ClearPending
 345              		.thumb
ARM GAS  C:\Users\rene_\AppData\Local\Temp\cchmTSk6.s 			page 14


 346              		.thumb_func
 347              		.type	UART_DMA_TIMER_TC_ISR_ClearPending, %function
 348              	UART_DMA_TIMER_TC_ISR_ClearPending:
 349              	.LFB75:
 384:Generated_Source\PSoC5/UART_DMA_TIMER_TC_ISR.c **** }
 385:Generated_Source\PSoC5/UART_DMA_TIMER_TC_ISR.c **** 
 386:Generated_Source\PSoC5/UART_DMA_TIMER_TC_ISR.c **** 
 387:Generated_Source\PSoC5/UART_DMA_TIMER_TC_ISR.c **** /*******************************************************************************
 388:Generated_Source\PSoC5/UART_DMA_TIMER_TC_ISR.c **** * Function Name: UART_DMA_TIMER_TC_ISR_ClearPending
 389:Generated_Source\PSoC5/UART_DMA_TIMER_TC_ISR.c **** ********************************************************************************
 390:Generated_Source\PSoC5/UART_DMA_TIMER_TC_ISR.c **** *
 391:Generated_Source\PSoC5/UART_DMA_TIMER_TC_ISR.c **** * Summary:
 392:Generated_Source\PSoC5/UART_DMA_TIMER_TC_ISR.c **** *   Clears a pending interrupt in the interrupt controller.
 393:Generated_Source\PSoC5/UART_DMA_TIMER_TC_ISR.c **** *
 394:Generated_Source\PSoC5/UART_DMA_TIMER_TC_ISR.c **** *   Note Some interrupt sources are clear-on-read and require the block 
 395:Generated_Source\PSoC5/UART_DMA_TIMER_TC_ISR.c **** *   interrupt/status register to be read/cleared with the appropriate block API 
 396:Generated_Source\PSoC5/UART_DMA_TIMER_TC_ISR.c **** *   (GPIO, UART, and so on). Otherwise the ISR will continue to remain in 
 397:Generated_Source\PSoC5/UART_DMA_TIMER_TC_ISR.c **** *   pending state even though the interrupt itself is cleared using this API.
 398:Generated_Source\PSoC5/UART_DMA_TIMER_TC_ISR.c **** *
 399:Generated_Source\PSoC5/UART_DMA_TIMER_TC_ISR.c **** * Parameters:
 400:Generated_Source\PSoC5/UART_DMA_TIMER_TC_ISR.c **** *   None
 401:Generated_Source\PSoC5/UART_DMA_TIMER_TC_ISR.c **** *
 402:Generated_Source\PSoC5/UART_DMA_TIMER_TC_ISR.c **** * Return:
 403:Generated_Source\PSoC5/UART_DMA_TIMER_TC_ISR.c **** *   None
 404:Generated_Source\PSoC5/UART_DMA_TIMER_TC_ISR.c **** *
 405:Generated_Source\PSoC5/UART_DMA_TIMER_TC_ISR.c **** *******************************************************************************/
 406:Generated_Source\PSoC5/UART_DMA_TIMER_TC_ISR.c **** void UART_DMA_TIMER_TC_ISR_ClearPending(void)
 407:Generated_Source\PSoC5/UART_DMA_TIMER_TC_ISR.c **** {
 350              		.loc 1 407 0
 351              		.cfi_startproc
 352              		@ args = 0, pretend = 0, frame = 0
 353              		@ frame_needed = 0, uses_anonymous_args = 0
 354              		@ link register save eliminated.
 408:Generated_Source\PSoC5/UART_DMA_TIMER_TC_ISR.c ****     *UART_DMA_TIMER_TC_ISR_INTC_CLR_PD = UART_DMA_TIMER_TC_ISR__INTC_MASK;
 355              		.loc 1 408 0
 356 0000 4FF40032 		mov	r2, #131072
 357 0004 014B     		ldr	r3, .L38
 358 0006 1A60     		str	r2, [r3]
 359 0008 7047     		bx	lr
 360              	.L39:
 361 000a 00BF     		.align	2
 362              	.L38:
 363 000c 80E200E0 		.word	-536812928
 364              		.cfi_endproc
 365              	.LFE75:
 366              		.size	UART_DMA_TIMER_TC_ISR_ClearPending, .-UART_DMA_TIMER_TC_ISR_ClearPending
 367              		.section	.text.UART_DMA_TIMER_TC_ISR_Interrupt,"ax",%progbits
 368              		.align	2
 369              		.global	UART_DMA_TIMER_TC_ISR_Interrupt
 370              		.thumb
 371              		.thumb_func
 372              		.type	UART_DMA_TIMER_TC_ISR_Interrupt, %function
 373              	UART_DMA_TIMER_TC_ISR_Interrupt:
 374              	.LFB66:
 161:Generated_Source\PSoC5/UART_DMA_TIMER_TC_ISR.c ****     #ifdef UART_DMA_TIMER_TC_ISR_INTERRUPT_INTERRUPT_CALLBACK
 375              		.loc 1 161 0
 376              		.cfi_startproc
ARM GAS  C:\Users\rene_\AppData\Local\Temp\cchmTSk6.s 			page 15


 377              		@ args = 0, pretend = 0, frame = 0
 378              		@ frame_needed = 0, uses_anonymous_args = 0
 379 0000 08B5     		push	{r3, lr}
 380              		.cfi_def_cfa_offset 8
 381              		.cfi_offset 3, -8
 382              		.cfi_offset 14, -4
 168:Generated_Source\PSoC5/UART_DMA_TIMER_TC_ISR.c ****     /*********** Read Interruptsource to Bring Trigger Down *****************/
 383              		.loc 1 168 0
 384 0002 FFF7FEFF 		bl	UART_DMA_TIMER_TC_ISR_ClearPending
 385              	.LVL18:
 170:Generated_Source\PSoC5/UART_DMA_TIMER_TC_ISR.c ****     /************** Do Interruptaction *****/
 386              		.loc 1 170 0
 387 0006 FFF7FEFF 		bl	UART_DMA_TIMER_ReadStatusRegister
 388              	.LVL19:
 173:Generated_Source\PSoC5/UART_DMA_TIMER_TC_ISR.c ****     /* `#END` */
 389              		.loc 1 173 0
 390 000a FFF7FEFF 		bl	LED_on_Board_Read
 391              	.LVL20:
 392 000e B0FA80F0 		clz	r0, r0
 393 0012 4009     		lsrs	r0, r0, #5
 394 0014 FFF7FEFF 		bl	LED_on_Board_Write
 395              	.LVL21:
 396 0018 08BD     		pop	{r3, pc}
 397              		.cfi_endproc
 398              	.LFE66:
 399              		.size	UART_DMA_TIMER_TC_ISR_Interrupt, .-UART_DMA_TIMER_TC_ISR_Interrupt
 400 001a 00BF     		.text
 401              	.Letext0:
 402              		.file 2 "c:\\program files (x86)\\cypress\\psoc creator\\4.3\\psoc creator\\import\\gnu\\arm\\5.4.
 403              		.file 3 "c:\\program files (x86)\\cypress\\psoc creator\\4.3\\psoc creator\\import\\gnu\\arm\\5.4.
 404              		.file 4 "Generated_Source\\PSoC5/cytypes.h"
 405              		.file 5 "Generated_Source\\PSoC5\\UART_DMA_TIMER.h"
 406              		.file 6 "Generated_Source\\PSoC5\\LED_on_Board.h"
 407              		.file 7 "Generated_Source\\PSoC5/core_cm3.h"